
MICRO.elf:     file format elf32-littlearm

Sections:
Idx Name          Size      VMA       LMA       File off  Algn
  0 .isr_vector   0000010c  08000000  08000000  00001000  2**0
                  CONTENTS, ALLOC, LOAD, READONLY, DATA
  1 .text         00009750  0800010c  0800010c  0000110c  2**2
                  CONTENTS, ALLOC, LOAD, READONLY, CODE
  2 .rodata       00001b0c  0800985c  0800985c  0000a85c  2**2
                  CONTENTS, ALLOC, LOAD, READONLY, DATA
  3 .ARM.extab    00000000  0800b368  0800b368  0000d240  2**0
                  CONTENTS, READONLY
  4 .ARM          00000008  0800b368  0800b368  0000c368  2**2
                  CONTENTS, ALLOC, LOAD, READONLY, DATA
  5 .preinit_array 00000000  0800b370  0800b370  0000d240  2**0
                  CONTENTS, ALLOC, LOAD, DATA
  6 .init_array   00000004  0800b370  0800b370  0000c370  2**2
                  CONTENTS, ALLOC, LOAD, READONLY, DATA
  7 .fini_array   00000004  0800b374  0800b374  0000c374  2**2
                  CONTENTS, ALLOC, LOAD, READONLY, DATA
  8 .data         00000240  20000000  0800b378  0000d000  2**2
                  CONTENTS, ALLOC, LOAD, DATA
  9 .bss          00002458  20000240  0800b5b8  0000d240  2**2
                  ALLOC
 10 ._user_heap_stack 00000600  20002698  0800b5b8  0000d698  2**0
                  ALLOC
 11 .ARM.attributes 00000029  00000000  00000000  0000d240  2**0
                  CONTENTS, READONLY
 12 .debug_info   000285ae  00000000  00000000  0000d269  2**0
                  CONTENTS, READONLY, DEBUGGING, OCTETS
 13 .debug_abbrev 000059bc  00000000  00000000  00035817  2**0
                  CONTENTS, READONLY, DEBUGGING, OCTETS
 14 .debug_loclists 00011021  00000000  00000000  0003b1d3  2**0
                  CONTENTS, READONLY, DEBUGGING, OCTETS
 15 .debug_aranges 000018d0  00000000  00000000  0004c1f8  2**3
                  CONTENTS, READONLY, DEBUGGING, OCTETS
 16 .debug_rnglists 00001c18  00000000  00000000  0004dac8  2**0
                  CONTENTS, READONLY, DEBUGGING, OCTETS
 17 .debug_macro  0001cbad  00000000  00000000  0004f6e0  2**0
                  CONTENTS, READONLY, DEBUGGING, OCTETS
 18 .debug_line   00029c86  00000000  00000000  0006c28d  2**0
                  CONTENTS, READONLY, DEBUGGING, OCTETS
 19 .debug_str    0009939c  00000000  00000000  00095f13  2**0
                  CONTENTS, READONLY, DEBUGGING, OCTETS
 20 .comment      00000043  00000000  00000000  0012f2af  2**0
                  CONTENTS, READONLY
 21 .debug_frame  00004808  00000000  00000000  0012f2f4  2**2
                  CONTENTS, READONLY, DEBUGGING, OCTETS
 22 .debug_line_str 00000060  00000000  00000000  00133afc  2**0
                  CONTENTS, READONLY, DEBUGGING, OCTETS

Disassembly of section .text:

0800010c <__do_global_dtors_aux>:
 800010c:	b510      	push	{r4, lr}
 800010e:	4c05      	ldr	r4, [pc, #20]	@ (8000124 <__do_global_dtors_aux+0x18>)
 8000110:	7823      	ldrb	r3, [r4, #0]
 8000112:	b933      	cbnz	r3, 8000122 <__do_global_dtors_aux+0x16>
 8000114:	4b04      	ldr	r3, [pc, #16]	@ (8000128 <__do_global_dtors_aux+0x1c>)
 8000116:	b113      	cbz	r3, 800011e <__do_global_dtors_aux+0x12>
 8000118:	4804      	ldr	r0, [pc, #16]	@ (800012c <__do_global_dtors_aux+0x20>)
 800011a:	f3af 8000 	nop.w
 800011e:	2301      	movs	r3, #1
 8000120:	7023      	strb	r3, [r4, #0]
 8000122:	bd10      	pop	{r4, pc}
 8000124:	20000240 	.word	0x20000240
 8000128:	00000000 	.word	0x00000000
 800012c:	08009844 	.word	0x08009844

08000130 <frame_dummy>:
 8000130:	b508      	push	{r3, lr}
 8000132:	4b03      	ldr	r3, [pc, #12]	@ (8000140 <frame_dummy+0x10>)
 8000134:	b11b      	cbz	r3, 800013e <frame_dummy+0xe>
 8000136:	4903      	ldr	r1, [pc, #12]	@ (8000144 <frame_dummy+0x14>)
 8000138:	4803      	ldr	r0, [pc, #12]	@ (8000148 <frame_dummy+0x18>)
 800013a:	f3af 8000 	nop.w
 800013e:	bd08      	pop	{r3, pc}
 8000140:	00000000 	.word	0x00000000
 8000144:	20000244 	.word	0x20000244
 8000148:	08009844 	.word	0x08009844

0800014c <strlen>:
 800014c:	4603      	mov	r3, r0
 800014e:	f813 2b01 	ldrb.w	r2, [r3], #1
 8000152:	2a00      	cmp	r2, #0
 8000154:	d1fb      	bne.n	800014e <strlen+0x2>
 8000156:	1a18      	subs	r0, r3, r0
 8000158:	3801      	subs	r0, #1
 800015a:	4770      	bx	lr

0800015c <ESP01StrToBufTX>:
		}
	}
}

static void ESP01StrToBufTX(const char *str){
	for(int i=0; str[i]; i++){
 800015c:	2200      	movs	r2, #0
 800015e:	490a      	ldr	r1, [pc, #40]	@ (8000188 <ESP01StrToBufTX+0x2c>)
static void ESP01StrToBufTX(const char *str){
 8000160:	b530      	push	{r4, r5, lr}
 8000162:	880b      	ldrh	r3, [r1, #0]
		esp01TXATBuf[esp01iwTX++] = str[i];
 8000164:	4d09      	ldr	r5, [pc, #36]	@ (800018c <ESP01StrToBufTX+0x30>)
 8000166:	3801      	subs	r0, #1
	for(int i=0; str[i]; i++){
 8000168:	f810 4f01 	ldrb.w	r4, [r0, #1]!
 800016c:	b914      	cbnz	r4, 8000174 <ESP01StrToBufTX+0x18>
 800016e:	b102      	cbz	r2, 8000172 <ESP01StrToBufTX+0x16>
 8000170:	800b      	strh	r3, [r1, #0]
		if(esp01iwTX == ESP01TXBUFAT)
			esp01iwTX = 0;
	}
}
 8000172:	bd30      	pop	{r4, r5, pc}
		esp01TXATBuf[esp01iwTX++] = str[i];
 8000174:	1c5a      	adds	r2, r3, #1
 8000176:	b292      	uxth	r2, r2
			esp01iwTX = 0;
 8000178:	f5b2 7f00 	cmp.w	r2, #512	@ 0x200
		esp01TXATBuf[esp01iwTX++] = str[i];
 800017c:	54ec      	strb	r4, [r5, r3]
 800017e:	bf14      	ite	ne
 8000180:	4613      	movne	r3, r2
 8000182:	2300      	moveq	r3, #0
 8000184:	2201      	movs	r2, #1
 8000186:	e7ef      	b.n	8000168 <ESP01StrToBufTX+0xc>
 8000188:	2000026e 	.word	0x2000026e
 800018c:	20000276 	.word	0x20000276

08000190 <ESP01ByteToBufTX>:

static void ESP01ByteToBufTX(uint8_t value){
	esp01TXATBuf[esp01iwTX++] = value;
 8000190:	4a07      	ldr	r2, [pc, #28]	@ (80001b0 <ESP01ByteToBufTX+0x20>)
static void ESP01ByteToBufTX(uint8_t value){
 8000192:	b510      	push	{r4, lr}
	esp01TXATBuf[esp01iwTX++] = value;
 8000194:	8811      	ldrh	r1, [r2, #0]
 8000196:	4c07      	ldr	r4, [pc, #28]	@ (80001b4 <ESP01ByteToBufTX+0x24>)
 8000198:	1c4b      	adds	r3, r1, #1
 800019a:	b29b      	uxth	r3, r3
	if(esp01iwTX == ESP01TXBUFAT)
 800019c:	f5b3 7f00 	cmp.w	r3, #512	@ 0x200
	esp01TXATBuf[esp01iwTX++] = value;
 80001a0:	8013      	strh	r3, [r2, #0]
		esp01iwTX = 0;
 80001a2:	bf08      	it	eq
 80001a4:	2300      	moveq	r3, #0
	esp01TXATBuf[esp01iwTX++] = value;
 80001a6:	5460      	strb	r0, [r4, r1]
		esp01iwTX = 0;
 80001a8:	bf08      	it	eq
 80001aa:	8013      	strheq	r3, [r2, #0]
}
 80001ac:	bd10      	pop	{r4, pc}
 80001ae:	bf00      	nop
 80001b0:	2000026e 	.word	0x2000026e
 80001b4:	20000276 	.word	0x20000276

080001b8 <ESP01_SetWIFI>:
void ESP01_SetWIFI(const char *ssid, const char *password){
 80001b8:	b538      	push	{r3, r4, r5, lr}
	esp01Flags.byte = 0;
 80001ba:	2400      	movs	r4, #0
void ESP01_SetWIFI(const char *ssid, const char *password){
 80001bc:	460d      	mov	r5, r1
	esp01Flags.byte = 0;
 80001be:	4b0e      	ldr	r3, [pc, #56]	@ (80001f8 <ESP01_SetWIFI+0x40>)
	strncpy(esp01SSID, ssid, 64);
 80001c0:	4601      	mov	r1, r0
	esp01Flags.byte = 0;
 80001c2:	701c      	strb	r4, [r3, #0]
	esp01WebServerMode = 0;   /* Salir del modo webserver al conectar como Station */
 80001c4:	4b0d      	ldr	r3, [pc, #52]	@ (80001fc <ESP01_SetWIFI+0x44>)
	strncpy(esp01SSID, ssid, 64);
 80001c6:	223f      	movs	r2, #63	@ 0x3f
 80001c8:	480d      	ldr	r0, [pc, #52]	@ (8000200 <ESP01_SetWIFI+0x48>)
	esp01WebServerMode = 0;   /* Salir del modo webserver al conectar como Station */
 80001ca:	701c      	strb	r4, [r3, #0]
	strncpy(esp01SSID, ssid, 64);
 80001cc:	f008 fe7a 	bl	8008ec4 <strncpy>
	esp01SSID[63] = '\0';
 80001d0:	4b0b      	ldr	r3, [pc, #44]	@ (8000200 <ESP01_SetWIFI+0x48>)
	strncpy(esp01PASSWORD, password, 32);
 80001d2:	221f      	movs	r2, #31
 80001d4:	4629      	mov	r1, r5
 80001d6:	480b      	ldr	r0, [pc, #44]	@ (8000204 <ESP01_SetWIFI+0x4c>)
	esp01SSID[63] = '\0';
 80001d8:	f883 403f 	strb.w	r4, [r3, #63]	@ 0x3f
	strncpy(esp01PASSWORD, password, 32);
 80001dc:	f008 fe72 	bl	8008ec4 <strncpy>
	esp01TimeoutTask = 50;
 80001e0:	2232      	movs	r2, #50	@ 0x32
	esp01PASSWORD[31] = '\0';
 80001e2:	4b08      	ldr	r3, [pc, #32]	@ (8000204 <ESP01_SetWIFI+0x4c>)
 80001e4:	77dc      	strb	r4, [r3, #31]
	esp01TimeoutTask = 50;
 80001e6:	4b08      	ldr	r3, [pc, #32]	@ (8000208 <ESP01_SetWIFI+0x50>)
 80001e8:	601a      	str	r2, [r3, #0]
	esp01ATSate = ESP01ATHARDRST0;
 80001ea:	2210      	movs	r2, #16
 80001ec:	4b07      	ldr	r3, [pc, #28]	@ (800020c <ESP01_SetWIFI+0x54>)
 80001ee:	701a      	strb	r2, [r3, #0]
	esp01TriesAT = 0;
 80001f0:	4b07      	ldr	r3, [pc, #28]	@ (8000210 <ESP01_SetWIFI+0x58>)
 80001f2:	701c      	strb	r4, [r3, #0]
}
 80001f4:	bd38      	pop	{r3, r4, r5, pc}
 80001f6:	bf00      	nop
 80001f8:	200005dc 	.word	0x200005dc
 80001fc:	200004fa 	.word	0x200004fa
 8000200:	20000587 	.word	0x20000587
 8000204:	20000567 	.word	0x20000567
 8000208:	200005d8 	.word	0x200005d8
 800020c:	200005dd 	.word	0x200005dd
 8000210:	2000026c 	.word	0x2000026c

08000214 <ESP01_GetLastConnID>:
}
 8000214:	4b01      	ldr	r3, [pc, #4]	@ (800021c <ESP01_GetLastConnID+0x8>)
 8000216:	7818      	ldrb	r0, [r3, #0]
 8000218:	4770      	bx	lr
 800021a:	bf00      	nop
 800021c:	200004f9 	.word	0x200004f9

08000220 <ESP01_StartUDP>:
	if(esp01Handle.WriteUSARTByte == NULL)
 8000220:	4b19      	ldr	r3, [pc, #100]	@ (8000288 <ESP01_StartUDP+0x68>)
_eESP01STATUS ESP01_StartUDP(const char *RemoteIP, uint16_t RemotePORT, uint16_t LocalPORT){
 8000222:	b570      	push	{r4, r5, r6, lr}
	if(esp01Handle.WriteUSARTByte == NULL)
 8000224:	685b      	ldr	r3, [r3, #4]
_eESP01STATUS ESP01_StartUDP(const char *RemoteIP, uint16_t RemotePORT, uint16_t LocalPORT){
 8000226:	4606      	mov	r6, r0
 8000228:	460d      	mov	r5, r1
 800022a:	4614      	mov	r4, r2
	if(esp01Handle.WriteUSARTByte == NULL)
 800022c:	b33b      	cbz	r3, 800027e <ESP01_StartUDP+0x5e>
		LocalPORT = 30000;
 800022e:	f247 5330 	movw	r3, #30000	@ 0x7530
	strcpy(esp01PROTO, "UDP");
 8000232:	4916      	ldr	r1, [pc, #88]	@ (800028c <ESP01_StartUDP+0x6c>)
 8000234:	4816      	ldr	r0, [pc, #88]	@ (8000290 <ESP01_StartUDP+0x70>)
		LocalPORT = 30000;
 8000236:	2a00      	cmp	r2, #0
 8000238:	bf08      	it	eq
 800023a:	461c      	moveq	r4, r3
	strcpy(esp01PROTO, "UDP");
 800023c:	f008 fe98 	bl	8008f70 <strcpy>
	strncpy(esp01RemoteIP, RemoteIP, 15);
 8000240:	220f      	movs	r2, #15
 8000242:	4631      	mov	r1, r6
 8000244:	4813      	ldr	r0, [pc, #76]	@ (8000294 <ESP01_StartUDP+0x74>)
 8000246:	f008 fe3d 	bl	8008ec4 <strncpy>
	esp01RemoteIP[15] = '\0';
 800024a:	2300      	movs	r3, #0
 800024c:	4a11      	ldr	r2, [pc, #68]	@ (8000294 <ESP01_StartUDP+0x74>)
	itoa(RemotePORT, esp01RemotePORT, 10);
 800024e:	4912      	ldr	r1, [pc, #72]	@ (8000298 <ESP01_StartUDP+0x78>)
	esp01RemoteIP[15] = '\0';
 8000250:	73d3      	strb	r3, [r2, #15]
	itoa(RemotePORT, esp01RemotePORT, 10);
 8000252:	4628      	mov	r0, r5
 8000254:	220a      	movs	r2, #10
 8000256:	f008 fdb3 	bl	8008dc0 <itoa>
	itoa(LocalPORT, esp01LocalPORT, 10);
 800025a:	220a      	movs	r2, #10
 800025c:	4620      	mov	r0, r4
 800025e:	490f      	ldr	r1, [pc, #60]	@ (800029c <ESP01_StartUDP+0x7c>)
 8000260:	f008 fdae 	bl	8008dc0 <itoa>
	if(esp01SSID[0] == '\0')
 8000264:	4b0e      	ldr	r3, [pc, #56]	@ (80002a0 <ESP01_StartUDP+0x80>)
 8000266:	781b      	ldrb	r3, [r3, #0]
 8000268:	b163      	cbz	r3, 8000284 <ESP01_StartUDP+0x64>
	if(esp01Flags.bit.WIFICONNECTED == 0)
 800026a:	4b0e      	ldr	r3, [pc, #56]	@ (80002a4 <ESP01_StartUDP+0x84>)
 800026c:	7818      	ldrb	r0, [r3, #0]
 800026e:	f010 0002 	ands.w	r0, r0, #2
 8000272:	d003      	beq.n	800027c <ESP01_StartUDP+0x5c>
	esp01ATSate = ESP01ATCIPCLOSE;
 8000274:	220c      	movs	r2, #12
	return ESP01_UDPTCP_CONNECTING;
 8000276:	2006      	movs	r0, #6
	esp01ATSate = ESP01ATCIPCLOSE;
 8000278:	4b0b      	ldr	r3, [pc, #44]	@ (80002a8 <ESP01_StartUDP+0x88>)
 800027a:	701a      	strb	r2, [r3, #0]
}
 800027c:	bd70      	pop	{r4, r5, r6, pc}
		return ESP01_NOT_INIT;
 800027e:	f04f 30ff 	mov.w	r0, #4294967295
 8000282:	e7fb      	b.n	800027c <ESP01_StartUDP+0x5c>
		return ESP01_WIFI_NOT_SETED;
 8000284:	2001      	movs	r0, #1
 8000286:	e7f9      	b.n	800027c <ESP01_StartUDP+0x5c>
 8000288:	20000260 	.word	0x20000260
 800028c:	0800985c 	.word	0x0800985c
 8000290:	20000005 	.word	0x20000005
 8000294:	20000557 	.word	0x20000557
 8000298:	20000551 	.word	0x20000551
 800029c:	2000053b 	.word	0x2000053b
 80002a0:	20000587 	.word	0x20000587
 80002a4:	200005dc 	.word	0x200005dc
 80002a8:	200005dd 	.word	0x200005dd

080002ac <ESP01_StateUDPTCP>:
	if(esp01Handle.WriteUSARTByte == NULL)
 80002ac:	4b06      	ldr	r3, [pc, #24]	@ (80002c8 <ESP01_StateUDPTCP+0x1c>)
 80002ae:	685b      	ldr	r3, [r3, #4]
 80002b0:	b13b      	cbz	r3, 80002c2 <ESP01_StateUDPTCP+0x16>
	if(esp01Flags.bit.UDPTCPCONNECTED)
 80002b2:	4b06      	ldr	r3, [pc, #24]	@ (80002cc <ESP01_StateUDPTCP+0x20>)
 80002b4:	781b      	ldrb	r3, [r3, #0]
		return ESP01_UDPTCP_CONNECTED;
 80002b6:	f013 0f40 	tst.w	r3, #64	@ 0x40
 80002ba:	bf0c      	ite	eq
 80002bc:	2005      	moveq	r0, #5
 80002be:	2007      	movne	r0, #7
 80002c0:	4770      	bx	lr
		return ESP01_NOT_INIT;
 80002c2:	f04f 30ff 	mov.w	r0, #4294967295
}
 80002c6:	4770      	bx	lr
 80002c8:	20000260 	.word	0x20000260
 80002cc:	200005dc 	.word	0x200005dc

080002d0 <ESP01_WriteRX>:
	esp01RXATBuf[esp01iwRXAT++] = value;
 80002d0:	4a06      	ldr	r2, [pc, #24]	@ (80002ec <ESP01_WriteRX+0x1c>)
void ESP01_WriteRX(uint8_t value){
 80002d2:	b510      	push	{r4, lr}
	esp01RXATBuf[esp01iwRXAT++] = value;
 80002d4:	8811      	ldrh	r1, [r2, #0]
 80002d6:	4c06      	ldr	r4, [pc, #24]	@ (80002f0 <ESP01_WriteRX+0x20>)
 80002d8:	1c4b      	adds	r3, r1, #1
 80002da:	b29b      	uxth	r3, r3
	if(esp01iwRXAT == ESP01RXBUFAT)
 80002dc:	2b80      	cmp	r3, #128	@ 0x80
	esp01RXATBuf[esp01iwRXAT++] = value;
 80002de:	8013      	strh	r3, [r2, #0]
		esp01iwRXAT = 0;
 80002e0:	bf08      	it	eq
 80002e2:	2300      	moveq	r3, #0
	esp01RXATBuf[esp01iwRXAT++] = value;
 80002e4:	5460      	strb	r0, [r4, r1]
		esp01iwRXAT = 0;
 80002e6:	bf08      	it	eq
 80002e8:	8013      	strheq	r3, [r2, #0]
}
 80002ea:	bd10      	pop	{r4, pc}
 80002ec:	20000274 	.word	0x20000274
 80002f0:	20000476 	.word	0x20000476

080002f4 <ESP01_Send>:
_eESP01STATUS ESP01_Send(uint8_t connID, uint8_t *buf, uint16_t irRingBuf, uint16_t length, uint16_t sizeRingBuf){
 80002f4:	e92d 47ff 	stmdb	sp!, {r0, r1, r2, r3, r4, r5, r6, r7, r8, r9, sl, lr}
 80002f8:	461f      	mov	r7, r3
	if(esp01Handle.WriteUSARTByte == NULL)
 80002fa:	4b3d      	ldr	r3, [pc, #244]	@ (80003f0 <ESP01_Send+0xfc>)
_eESP01STATUS ESP01_Send(uint8_t connID, uint8_t *buf, uint16_t irRingBuf, uint16_t length, uint16_t sizeRingBuf){
 80002fc:	4604      	mov	r4, r0
	if(esp01Handle.WriteUSARTByte == NULL)
 80002fe:	685b      	ldr	r3, [r3, #4]
_eESP01STATUS ESP01_Send(uint8_t connID, uint8_t *buf, uint16_t irRingBuf, uint16_t length, uint16_t sizeRingBuf){
 8000300:	4688      	mov	r8, r1
 8000302:	4615      	mov	r5, r2
 8000304:	f8bd 9030 	ldrh.w	r9, [sp, #48]	@ 0x30
	if(esp01Handle.WriteUSARTByte == NULL)
 8000308:	2b00      	cmp	r3, #0
 800030a:	d06c      	beq.n	80003e6 <ESP01_Send+0xf2>
	if(esp01Flags.bit.UDPTCPCONNECTED == 0 && !esp01WebServerMode)
 800030c:	4e39      	ldr	r6, [pc, #228]	@ (80003f4 <ESP01_Send+0x100>)
 800030e:	f8df a0e8 	ldr.w	sl, [pc, #232]	@ 80003f8 <ESP01_Send+0x104>
 8000312:	7833      	ldrb	r3, [r6, #0]
 8000314:	f89a 1000 	ldrb.w	r1, [sl]
 8000318:	f003 0240 	and.w	r2, r3, #64	@ 0x40
 800031c:	430a      	orrs	r2, r1
 800031e:	d065      	beq.n	80003ec <ESP01_Send+0xf8>
	if(esp01Flags.bit.SENDINGDATA == 0){
 8000320:	071b      	lsls	r3, r3, #28
 8000322:	d458      	bmi.n	80003d6 <ESP01_Send+0xe2>
		itoa(length, strInt, 10);
 8000324:	220a      	movs	r2, #10
 8000326:	a901      	add	r1, sp, #4
 8000328:	4638      	mov	r0, r7
 800032a:	f008 fd49 	bl	8008dc0 <itoa>
		l = strlen(strInt);
 800032e:	a801      	add	r0, sp, #4
 8000330:	f7ff ff0c 	bl	800014c <strlen>
		if(l>4 || l==0)
 8000334:	1e42      	subs	r2, r0, #1
 8000336:	b2d2      	uxtb	r2, r2
 8000338:	2a03      	cmp	r2, #3
 800033a:	d84a      	bhi.n	80003d2 <ESP01_Send+0xde>
		ESP01StrToBufTX(ATCIPSEND);
 800033c:	482f      	ldr	r0, [pc, #188]	@ (80003fc <ESP01_Send+0x108>)
 800033e:	f7ff ff0d 	bl	800015c <ESP01StrToBufTX>
		if(esp01WebServerMode){
 8000342:	f89a 3000 	ldrb.w	r3, [sl]
 8000346:	b153      	cbz	r3, 800035e <ESP01_Send+0x6a>
			itoa(connID, connStr, 10);
 8000348:	220a      	movs	r2, #10
 800034a:	4669      	mov	r1, sp
 800034c:	4620      	mov	r0, r4
 800034e:	f008 fd37 	bl	8008dc0 <itoa>
			ESP01StrToBufTX(connStr);
 8000352:	4668      	mov	r0, sp
 8000354:	f7ff ff02 	bl	800015c <ESP01StrToBufTX>
			ESP01ByteToBufTX(',');
 8000358:	202c      	movs	r0, #44	@ 0x2c
 800035a:	f7ff ff19 	bl	8000190 <ESP01ByteToBufTX>
		ESP01StrToBufTX(strInt);
 800035e:	a801      	add	r0, sp, #4
 8000360:	f7ff fefc 	bl	800015c <ESP01StrToBufTX>
		ESP01StrToBufTX("\r>");
 8000364:	4826      	ldr	r0, [pc, #152]	@ (8000400 <ESP01_Send+0x10c>)
 8000366:	f7ff fef9 	bl	800015c <ESP01StrToBufTX>
		for(uint16_t i=0; i<length; i++){
 800036a:	2200      	movs	r2, #0
 800036c:	4611      	mov	r1, r2
 800036e:	4825      	ldr	r0, [pc, #148]	@ (8000404 <ESP01_Send+0x110>)
			esp01TXATBuf[esp01iwTX++] = buf[irRingBuf++];
 8000370:	f8df c094 	ldr.w	ip, [pc, #148]	@ 8000408 <ESP01_Send+0x114>
 8000374:	8803      	ldrh	r3, [r0, #0]
		for(uint16_t i=0; i<length; i++){
 8000376:	b294      	uxth	r4, r2
 8000378:	42a7      	cmp	r7, r4
 800037a:	d816      	bhi.n	80003aa <ESP01_Send+0xb6>
 800037c:	b101      	cbz	r1, 8000380 <ESP01_Send+0x8c>
 800037e:	8003      	strh	r3, [r0, #0]
		esp01Flags.bit.TXCIPSEND = 1;
 8000380:	7833      	ldrb	r3, [r6, #0]
		if(ESP01DbgStr != NULL){
 8000382:	4c22      	ldr	r4, [pc, #136]	@ (800040c <ESP01_Send+0x118>)
		esp01Flags.bit.TXCIPSEND = 1;
 8000384:	f023 030c 	bic.w	r3, r3, #12
 8000388:	f043 030c 	orr.w	r3, r3, #12
 800038c:	7033      	strb	r3, [r6, #0]
		if(ESP01DbgStr != NULL){
 800038e:	6823      	ldr	r3, [r4, #0]
 8000390:	b13b      	cbz	r3, 80003a2 <ESP01_Send+0xae>
			ESP01DbgStr("+&DBGSENDING DATA ");
 8000392:	481f      	ldr	r0, [pc, #124]	@ (8000410 <ESP01_Send+0x11c>)
 8000394:	4798      	blx	r3
			ESP01DbgStr(strInt);
 8000396:	6823      	ldr	r3, [r4, #0]
 8000398:	a801      	add	r0, sp, #4
 800039a:	4798      	blx	r3
			ESP01DbgStr("\n");
 800039c:	6823      	ldr	r3, [r4, #0]
 800039e:	481d      	ldr	r0, [pc, #116]	@ (8000414 <ESP01_Send+0x120>)
 80003a0:	4798      	blx	r3
		return ESP01_SEND_READY;
 80003a2:	2009      	movs	r0, #9
}
 80003a4:	b004      	add	sp, #16
 80003a6:	e8bd 87f0 	ldmia.w	sp!, {r4, r5, r6, r7, r8, r9, sl, pc}
			esp01TXATBuf[esp01iwTX++] = buf[irRingBuf++];
 80003aa:	1c5c      	adds	r4, r3, #1
 80003ac:	b2a4      	uxth	r4, r4
				esp01iwTX = 0;
 80003ae:	f5b4 7f00 	cmp.w	r4, #512	@ 0x200
 80003b2:	bf08      	it	eq
 80003b4:	2400      	moveq	r4, #0
			esp01TXATBuf[esp01iwTX++] = buf[irRingBuf++];
 80003b6:	1c69      	adds	r1, r5, #1
 80003b8:	f818 5005 	ldrb.w	r5, [r8, r5]
 80003bc:	b289      	uxth	r1, r1
 80003be:	f80c 5003 	strb.w	r5, [ip, r3]
		for(uint16_t i=0; i<length; i++){
 80003c2:	3201      	adds	r2, #1
 80003c4:	4549      	cmp	r1, r9
 80003c6:	bf14      	ite	ne
 80003c8:	460d      	movne	r5, r1
 80003ca:	2500      	moveq	r5, #0
 80003cc:	4623      	mov	r3, r4
 80003ce:	2101      	movs	r1, #1
 80003d0:	e7d1      	b.n	8000376 <ESP01_Send+0x82>
			return ESP01_SEND_ERROR;
 80003d2:	200b      	movs	r0, #11
 80003d4:	e7e6      	b.n	80003a4 <ESP01_Send+0xb0>
	if(ESP01DbgStr != NULL)
 80003d6:	4b0d      	ldr	r3, [pc, #52]	@ (800040c <ESP01_Send+0x118>)
 80003d8:	681b      	ldr	r3, [r3, #0]
 80003da:	b90b      	cbnz	r3, 80003e0 <ESP01_Send+0xec>
	return ESP01_SEND_BUSY;
 80003dc:	2008      	movs	r0, #8
 80003de:	e7e1      	b.n	80003a4 <ESP01_Send+0xb0>
		ESP01DbgStr("+&DBGSENDING DATA BUSY\n");
 80003e0:	480d      	ldr	r0, [pc, #52]	@ (8000418 <ESP01_Send+0x124>)
 80003e2:	4798      	blx	r3
 80003e4:	e7fa      	b.n	80003dc <ESP01_Send+0xe8>
		return ESP01_NOT_INIT;
 80003e6:	f04f 30ff 	mov.w	r0, #4294967295
 80003ea:	e7db      	b.n	80003a4 <ESP01_Send+0xb0>
		return ESP01_UDPTCP_DISCONNECTED;
 80003ec:	2005      	movs	r0, #5
 80003ee:	e7d9      	b.n	80003a4 <ESP01_Send+0xb0>
 80003f0:	20000260 	.word	0x20000260
 80003f4:	200005dc 	.word	0x200005dc
 80003f8:	200004fa 	.word	0x200004fa
 80003fc:	08009dff 	.word	0x08009dff
 8000400:	08009860 	.word	0x08009860
 8000404:	2000026e 	.word	0x2000026e
 8000408:	20000276 	.word	0x20000276
 800040c:	200005c8 	.word	0x200005c8
 8000410:	08009863 	.word	0x08009863
 8000414:	08009a1f 	.word	0x08009a1f
 8000418:	08009876 	.word	0x08009876

0800041c <ESP01_Init>:
void ESP01_Init(_sESP01Handle *hESP01){
 800041c:	4602      	mov	r2, r0
	memcpy(&esp01Handle, hESP01, sizeof(_sESP01Handle));
 800041e:	4b0f      	ldr	r3, [pc, #60]	@ (800045c <ESP01_Init+0x40>)
 8000420:	6800      	ldr	r0, [r0, #0]
 8000422:	6851      	ldr	r1, [r2, #4]
 8000424:	c303      	stmia	r3!, {r0, r1}
 8000426:	6890      	ldr	r0, [r2, #8]
	esp01ATSate = ESP01ATIDLE;
 8000428:	4a0d      	ldr	r2, [pc, #52]	@ (8000460 <ESP01_Init+0x44>)
	memcpy(&esp01Handle, hESP01, sizeof(_sESP01Handle));
 800042a:	6018      	str	r0, [r3, #0]
	esp01ATSate = ESP01ATIDLE;
 800042c:	2300      	movs	r3, #0
 800042e:	7013      	strb	r3, [r2, #0]
	esp01HState = 0;
 8000430:	4a0c      	ldr	r2, [pc, #48]	@ (8000464 <ESP01_Init+0x48>)
 8000432:	7013      	strb	r3, [r2, #0]
	esp01irTX = 0;
 8000434:	4a0c      	ldr	r2, [pc, #48]	@ (8000468 <ESP01_Init+0x4c>)
 8000436:	8013      	strh	r3, [r2, #0]
	esp01iwTX = 0;
 8000438:	4a0c      	ldr	r2, [pc, #48]	@ (800046c <ESP01_Init+0x50>)
 800043a:	8013      	strh	r3, [r2, #0]
	esp01irRXAT = 0;
 800043c:	4a0c      	ldr	r2, [pc, #48]	@ (8000470 <ESP01_Init+0x54>)
 800043e:	8013      	strh	r3, [r2, #0]
	esp01iwRXAT = 0;
 8000440:	4a0c      	ldr	r2, [pc, #48]	@ (8000474 <ESP01_Init+0x58>)
 8000442:	8013      	strh	r3, [r2, #0]
	esp01Flags.byte = 0;
 8000444:	4a0c      	ldr	r2, [pc, #48]	@ (8000478 <ESP01_Init+0x5c>)
 8000446:	7013      	strb	r3, [r2, #0]
	esp01WebServerMode = 0;
 8000448:	4a0c      	ldr	r2, [pc, #48]	@ (800047c <ESP01_Init+0x60>)
 800044a:	7013      	strb	r3, [r2, #0]
	esp01LastConnID    = 0;
 800044c:	4a0c      	ldr	r2, [pc, #48]	@ (8000480 <ESP01_Init+0x64>)
 800044e:	7013      	strb	r3, [r2, #0]
	ESP01ChangeState = NULL;
 8000450:	4a0c      	ldr	r2, [pc, #48]	@ (8000484 <ESP01_Init+0x68>)
 8000452:	6013      	str	r3, [r2, #0]
	ESP01DbgStr = NULL;
 8000454:	4a0c      	ldr	r2, [pc, #48]	@ (8000488 <ESP01_Init+0x6c>)
 8000456:	6013      	str	r3, [r2, #0]
}
 8000458:	4770      	bx	lr
 800045a:	bf00      	nop
 800045c:	20000260 	.word	0x20000260
 8000460:	200005dd 	.word	0x200005dd
 8000464:	200004f8 	.word	0x200004f8
 8000468:	20000270 	.word	0x20000270
 800046c:	2000026e 	.word	0x2000026e
 8000470:	20000272 	.word	0x20000272
 8000474:	20000274 	.word	0x20000274
 8000478:	200005dc 	.word	0x200005dc
 800047c:	200004fa 	.word	0x200004fa
 8000480:	200004f9 	.word	0x200004f9
 8000484:	200005cc 	.word	0x200005cc
 8000488:	200005c8 	.word	0x200005c8

0800048c <ESP01_Timeout10ms>:
	if(esp01TimeoutTask)
 800048c:	4a09      	ldr	r2, [pc, #36]	@ (80004b4 <ESP01_Timeout10ms+0x28>)
 800048e:	6813      	ldr	r3, [r2, #0]
 8000490:	b10b      	cbz	r3, 8000496 <ESP01_Timeout10ms+0xa>
		esp01TimeoutTask--;
 8000492:	3b01      	subs	r3, #1
 8000494:	6013      	str	r3, [r2, #0]
	if(esp01TimeoutDataRx){
 8000496:	4a08      	ldr	r2, [pc, #32]	@ (80004b8 <ESP01_Timeout10ms+0x2c>)
 8000498:	6813      	ldr	r3, [r2, #0]
 800049a:	b123      	cbz	r3, 80004a6 <ESP01_Timeout10ms+0x1a>
		esp01TimeoutDataRx--;
 800049c:	3b01      	subs	r3, #1
 800049e:	6013      	str	r3, [r2, #0]
		if(!esp01TimeoutDataRx)
 80004a0:	b90b      	cbnz	r3, 80004a6 <ESP01_Timeout10ms+0x1a>
			esp01HState = 0;
 80004a2:	4a06      	ldr	r2, [pc, #24]	@ (80004bc <ESP01_Timeout10ms+0x30>)
 80004a4:	7013      	strb	r3, [r2, #0]
	if(esp01TimeoutTxSymbol)
 80004a6:	4a06      	ldr	r2, [pc, #24]	@ (80004c0 <ESP01_Timeout10ms+0x34>)
 80004a8:	6813      	ldr	r3, [r2, #0]
 80004aa:	b10b      	cbz	r3, 80004b0 <ESP01_Timeout10ms+0x24>
		esp01TimeoutTxSymbol--;
 80004ac:	3b01      	subs	r3, #1
 80004ae:	6013      	str	r3, [r2, #0]
}
 80004b0:	4770      	bx	lr
 80004b2:	bf00      	nop
 80004b4:	200005d8 	.word	0x200005d8
 80004b8:	200005d4 	.word	0x200005d4
 80004bc:	200004f8 	.word	0x200004f8
 80004c0:	200005d0 	.word	0x200005d0

080004c4 <ESP01_Task>:
void ESP01_Task(){
 80004c4:	e92d 4ff8 	stmdb	sp!, {r3, r4, r5, r6, r7, r8, r9, sl, fp, lr}
	if(esp01irRXAT != esp01iwRXAT)
 80004c8:	4aa3      	ldr	r2, [pc, #652]	@ (8000758 <ESP01_Task+0x294>)
 80004ca:	4ea4      	ldr	r6, [pc, #656]	@ (800075c <ESP01_Task+0x298>)
 80004cc:	f8b2 b000 	ldrh.w	fp, [r2]
 80004d0:	8833      	ldrh	r3, [r6, #0]
void ESP01_Task(){
 80004d2:	2500      	movs	r5, #0
	if(esp01irRXAT != esp01iwRXAT)
 80004d4:	455b      	cmp	r3, fp
 80004d6:	d006      	beq.n	80004e6 <ESP01_Task+0x22>
	if(esp01ATSate==ESP01ATHARDRST0 || esp01ATSate==ESP01ATHARDRST1 ||
 80004d8:	4fa1      	ldr	r7, [pc, #644]	@ (8000760 <ESP01_Task+0x29c>)
 80004da:	783a      	ldrb	r2, [r7, #0]
 80004dc:	3a10      	subs	r2, #16
 80004de:	2a02      	cmp	r2, #2
 80004e0:	d823      	bhi.n	800052a <ESP01_Task+0x66>
		esp01irRXAT = esp01iwRXAT;
 80004e2:	f8a6 b000 	strh.w	fp, [r6]
	if(!esp01TimeoutTask)
 80004e6:	4e9f      	ldr	r6, [pc, #636]	@ (8000764 <ESP01_Task+0x2a0>)
 80004e8:	4d9f      	ldr	r5, [pc, #636]	@ (8000768 <ESP01_Task+0x2a4>)
 80004ea:	6833      	ldr	r3, [r6, #0]
 80004ec:	2b00      	cmp	r3, #0
 80004ee:	f040 8250 	bne.w	8000992 <ESP01_Task+0x4ce>
	esp01TimeoutTask = 100;
 80004f2:	2364      	movs	r3, #100	@ 0x64
	switch(esp01ATSate){
 80004f4:	4c9a      	ldr	r4, [pc, #616]	@ (8000760 <ESP01_Task+0x29c>)
	esp01TimeoutTask = 100;
 80004f6:	6033      	str	r3, [r6, #0]
	switch(esp01ATSate){
 80004f8:	7823      	ldrb	r3, [r4, #0]
 80004fa:	2b12      	cmp	r3, #18
 80004fc:	f200 8249 	bhi.w	8000992 <ESP01_Task+0x4ce>
 8000500:	e8df f013 	tbh	[pc, r3, lsl #1]
 8000504:	027403cf 	.word	0x027403cf
 8000508:	02bc02b6 	.word	0x02bc02b6
 800050c:	02d902c6 	.word	0x02d902c6
 8000510:	0314030a 	.word	0x0314030a
 8000514:	0354031e 	.word	0x0354031e
 8000518:	036d035c 	.word	0x036d035c
 800051c:	038a037b 	.word	0x038a037b
 8000520:	03cc03c7 	.word	0x03cc03c7
 8000524:	025f023c 	.word	0x025f023c
 8000528:	026e      	.short	0x026e
	esp01TimeoutDataRx = 2;
 800052a:	2202      	movs	r2, #2
 800052c:	498f      	ldr	r1, [pc, #572]	@ (800076c <ESP01_Task+0x2a8>)
		switch(esp01HState){
 800052e:	4c90      	ldr	r4, [pc, #576]	@ (8000770 <ESP01_Task+0x2ac>)
	esp01TimeoutDataRx = 2;
 8000530:	600a      	str	r2, [r1, #0]
	while(esp01irRXAT != i){
 8000532:	459b      	cmp	fp, r3
 8000534:	d0d7      	beq.n	80004e6 <ESP01_Task+0x22>
		value = esp01RXATBuf[esp01irRXAT];
 8000536:	4a8f      	ldr	r2, [pc, #572]	@ (8000774 <ESP01_Task+0x2b0>)
 8000538:	5cd0      	ldrb	r0, [r2, r3]
		switch(esp01HState){
 800053a:	7822      	ldrb	r2, [r4, #0]
 800053c:	2a0d      	cmp	r2, #13
 800053e:	f200 8218 	bhi.w	8000972 <ESP01_Task+0x4ae>
 8000542:	e8df f012 	tbh	[pc, r2, lsl #1]
 8000546:	000e      	.short	0x000e
 8000548:	00c50057 	.word	0x00c50057
 800054c:	02160216 	.word	0x02160216
 8000550:	01a2018d 	.word	0x01a2018d
 8000554:	01b701aa 	.word	0x01b701aa
 8000558:	01d20216 	.word	0x01d20216
 800055c:	020101ef 	.word	0x020101ef
 8000560:	01e0      	.short	0x01e0
            indexResponse = 0;
 8000562:	2300      	movs	r3, #0
            indexResponseChar = 4;
 8000564:	2104      	movs	r1, #4
            while(responses[indexResponse] != NULL){
 8000566:	4698      	mov	r8, r3
            indexResponse = 0;
 8000568:	f8df c20c 	ldr.w	ip, [pc, #524]	@ 8000778 <ESP01_Task+0x2b4>
            indexResponseChar = 4;
 800056c:	4a83      	ldr	r2, [pc, #524]	@ (800077c <ESP01_Task+0x2b8>)
            while(responses[indexResponse] != NULL){
 800056e:	f8df 9210 	ldr.w	r9, [pc, #528]	@ 8000780 <ESP01_Task+0x2bc>
            indexResponse = 0;
 8000572:	f88c 3000 	strb.w	r3, [ip]
            indexResponseChar = 4;
 8000576:	7011      	strb	r1, [r2, #0]
            while(responses[indexResponse] != NULL){
 8000578:	fa5f fe83 	uxtb.w	lr, r3
 800057c:	f859 102e 	ldr.w	r1, [r9, lr, lsl #2]
 8000580:	b9e1      	cbnz	r1, 80005bc <ESP01_Task+0xf8>
 8000582:	f1b8 0f00 	cmp.w	r8, #0
 8000586:	d001      	beq.n	800058c <ESP01_Task+0xc8>
 8000588:	f88c e000 	strb.w	lr, [ip]
				esp01TimeoutDataRx = 0;
 800058c:	2200      	movs	r2, #0
 800058e:	4b77      	ldr	r3, [pc, #476]	@ (800076c <ESP01_Task+0x2a8>)
				if(esp01Flags.bit.WAITINGSYMBOL){
 8000590:	4975      	ldr	r1, [pc, #468]	@ (8000768 <ESP01_Task+0x2a4>)
				esp01TimeoutDataRx = 0;
 8000592:	601a      	str	r2, [r3, #0]
				if(esp01Flags.bit.WAITINGSYMBOL){
 8000594:	780b      	ldrb	r3, [r1, #0]
 8000596:	f013 0f01 	tst.w	r3, #1
 800059a:	d006      	beq.n	80005aa <ESP01_Task+0xe6>
					if(value == '>'){
 800059c:	283e      	cmp	r0, #62	@ 0x3e
 800059e:	d104      	bne.n	80005aa <ESP01_Task+0xe6>
						esp01Flags.bit.WAITINGSYMBOL = 0;
 80005a0:	f362 0300 	bfi	r3, r2, #0, #1
 80005a4:	700b      	strb	r3, [r1, #0]
						esp01TimeoutTxSymbol = 0;
 80005a6:	4b77      	ldr	r3, [pc, #476]	@ (8000784 <ESP01_Task+0x2c0>)
 80005a8:	601a      	str	r2, [r3, #0]
		esp01irRXAT++;
 80005aa:	8833      	ldrh	r3, [r6, #0]
 80005ac:	3301      	adds	r3, #1
 80005ae:	b29b      	uxth	r3, r3
		if(esp01irRXAT == ESP01RXBUFAT)
 80005b0:	2b80      	cmp	r3, #128	@ 0x80
		esp01irRXAT++;
 80005b2:	8033      	strh	r3, [r6, #0]
			esp01irRXAT = 0;
 80005b4:	bf04      	itt	eq
 80005b6:	2300      	moveq	r3, #0
 80005b8:	8033      	strheq	r3, [r6, #0]
 80005ba:	e7ba      	b.n	8000532 <ESP01_Task+0x6e>
                if(value == responses[indexResponse][indexResponseChar]){
 80005bc:	f891 a004 	ldrb.w	sl, [r1, #4]
 80005c0:	3301      	adds	r3, #1
 80005c2:	4582      	cmp	sl, r0
 80005c4:	d113      	bne.n	80005ee <ESP01_Task+0x12a>
 80005c6:	f1b8 0f00 	cmp.w	r8, #0
 80005ca:	d001      	beq.n	80005d0 <ESP01_Task+0x10c>
 80005cc:	f88c e000 	strb.w	lr, [ip]
                    esp01nBytes = (responses[indexResponse][0] - '0');
 80005d0:	780b      	ldrb	r3, [r1, #0]
                    esp01nBytes += (responses[indexResponse][1] - '0');
 80005d2:	7849      	ldrb	r1, [r1, #1]
                    esp01nBytes = (responses[indexResponse][0] - '0');
 80005d4:	3b30      	subs	r3, #48	@ 0x30
                    esp01nBytes--;
 80005d6:	3931      	subs	r1, #49	@ 0x31
                    esp01nBytes *= 10;
 80005d8:	eb03 0383 	add.w	r3, r3, r3, lsl #2
                    esp01nBytes--;
 80005dc:	eb01 0343 	add.w	r3, r1, r3, lsl #1
 80005e0:	4969      	ldr	r1, [pc, #420]	@ (8000788 <ESP01_Task+0x2c4>)
 80005e2:	800b      	strh	r3, [r1, #0]
                esp01HState = 1;
 80005e4:	2301      	movs	r3, #1
 80005e6:	7023      	strb	r3, [r4, #0]
                indexResponseChar++;
 80005e8:	2305      	movs	r3, #5
						esp01Flags.bit.ATRESPONSEOK = 1;
 80005ea:	7013      	strb	r3, [r2, #0]
 80005ec:	e7dd      	b.n	80005aa <ESP01_Task+0xe6>
 80005ee:	f04f 0801 	mov.w	r8, #1
 80005f2:	e7c1      	b.n	8000578 <ESP01_Task+0xb4>
            if(value == responses[indexResponse][indexResponseChar]){
 80005f4:	f8df c180 	ldr.w	ip, [pc, #384]	@ 8000778 <ESP01_Task+0x2b4>
 80005f8:	4961      	ldr	r1, [pc, #388]	@ (8000780 <ESP01_Task+0x2bc>)
 80005fa:	f89c 2000 	ldrb.w	r2, [ip]
 80005fe:	f851 2022 	ldr.w	r2, [r1, r2, lsl #2]
 8000602:	495e      	ldr	r1, [pc, #376]	@ (800077c <ESP01_Task+0x2b8>)
 8000604:	7809      	ldrb	r1, [r1, #0]
 8000606:	f812 e001 	ldrb.w	lr, [r2, r1]
 800060a:	4586      	cmp	lr, r0
 800060c:	d114      	bne.n	8000638 <ESP01_Task+0x174>
                esp01nBytes--;
 800060e:	f8df c178 	ldr.w	ip, [pc, #376]	@ 8000788 <ESP01_Task+0x2c4>
 8000612:	f8bc 3000 	ldrh.w	r3, [ip]
 8000616:	3b01      	subs	r3, #1
 8000618:	b29b      	uxth	r3, r3
 800061a:	f8ac 3000 	strh.w	r3, [ip]
                if(!esp01nBytes || value=='\r'){
 800061e:	b10b      	cbz	r3, 8000624 <ESP01_Task+0x160>
 8000620:	280d      	cmp	r0, #13
 8000622:	d14d      	bne.n	80006c0 <ESP01_Task+0x1fc>
                    esp01HState = (responses[indexResponse][2] - '0');
 8000624:	7893      	ldrb	r3, [r2, #2]
                    esp01HState += (responses[indexResponse][3] - '0');
 8000626:	78d2      	ldrb	r2, [r2, #3]
                    esp01HState = (responses[indexResponse][2] - '0');
 8000628:	3b30      	subs	r3, #48	@ 0x30
                    esp01HState *= 10;
 800062a:	eb03 0383 	add.w	r3, r3, r3, lsl #2
                    esp01HState += (responses[indexResponse][3] - '0');
 800062e:	3a30      	subs	r2, #48	@ 0x30
 8000630:	eb02 0343 	add.w	r3, r2, r3, lsl #1
				esp01HState = 12;
 8000634:	7023      	strb	r3, [r4, #0]
 8000636:	e7b8      	b.n	80005aa <ESP01_Task+0xe6>
                indexResponse = 0;
 8000638:	2200      	movs	r2, #0
                while(responses[indexResponse] != NULL){
 800063a:	4691      	mov	r9, r2
                    esp01nBytes -= (indexResponseChar-3);
 800063c:	f5c1 4a7f 	rsb	sl, r1, #65280	@ 0xff00
                indexResponse = 0;
 8000640:	f88c 2000 	strb.w	r2, [ip]
                    esp01nBytes -= (indexResponseChar-3);
 8000644:	f10a 0ad3 	add.w	sl, sl, #211	@ 0xd3
                while(responses[indexResponse] != NULL){
 8000648:	f8df c134 	ldr.w	ip, [pc, #308]	@ 8000780 <ESP01_Task+0x2bc>
 800064c:	fa5f f882 	uxtb.w	r8, r2
 8000650:	f85c c028 	ldr.w	ip, [ip, r8, lsl #2]
 8000654:	f1bc 0f00 	cmp.w	ip, #0
 8000658:	d10c      	bne.n	8000674 <ESP01_Task+0x1b0>
 800065a:	f1b9 0f00 	cmp.w	r9, #0
 800065e:	d004      	beq.n	800066a <ESP01_Task+0x1a6>
 8000660:	4a49      	ldr	r2, [pc, #292]	@ (8000788 <ESP01_Task+0x2c4>)
 8000662:	8015      	strh	r5, [r2, #0]
 8000664:	4a44      	ldr	r2, [pc, #272]	@ (8000778 <ESP01_Task+0x2b4>)
 8000666:	f882 8000 	strb.w	r8, [r2]
					esp01HState = 0;
 800066a:	2200      	movs	r2, #0
					esp01irRXAT--;
 800066c:	3b01      	subs	r3, #1
					esp01HState = 0;
 800066e:	7022      	strb	r2, [r4, #0]
					esp01irRXAT--;
 8000670:	8033      	strh	r3, [r6, #0]
 8000672:	e79a      	b.n	80005aa <ESP01_Task+0xe6>
                    esp01nBytes = (responses[indexResponse][0] - '0');
 8000674:	f89c e000 	ldrb.w	lr, [ip]
                    esp01nBytes += (responses[indexResponse][1] - '0');
 8000678:	f89c 5001 	ldrb.w	r5, [ip, #1]
                    esp01nBytes = (responses[indexResponse][0] - '0');
 800067c:	f1ae 0e30 	sub.w	lr, lr, #48	@ 0x30
                    esp01nBytes *= 10;
 8000680:	eb0e 0e8e 	add.w	lr, lr, lr, lsl #2
                    esp01nBytes -= (indexResponseChar-3);
 8000684:	4455      	add	r5, sl
 8000686:	eb05 054e 	add.w	r5, r5, lr, lsl #1
 800068a:	b2ad      	uxth	r5, r5
                    if(esp01nBytes<128 && value==responses[indexResponse][indexResponseChar]){
 800068c:	2d7f      	cmp	r5, #127	@ 0x7f
 800068e:	d81b      	bhi.n	80006c8 <ESP01_Task+0x204>
 8000690:	f81c e001 	ldrb.w	lr, [ip, r1]
 8000694:	4586      	cmp	lr, r0
 8000696:	d117      	bne.n	80006c8 <ESP01_Task+0x204>
 8000698:	4b3b      	ldr	r3, [pc, #236]	@ (8000788 <ESP01_Task+0x2c4>)
 800069a:	801d      	strh	r5, [r3, #0]
 800069c:	f1b9 0f00 	cmp.w	r9, #0
 80006a0:	d002      	beq.n	80006a8 <ESP01_Task+0x1e4>
 80006a2:	4b35      	ldr	r3, [pc, #212]	@ (8000778 <ESP01_Task+0x2b4>)
 80006a4:	f883 8000 	strb.w	r8, [r3]
                        if(esp01nBytes == 0){
 80006a8:	b955      	cbnz	r5, 80006c0 <ESP01_Task+0x1fc>
                            esp01HState = (responses[indexResponse][2] - '0');
 80006aa:	f89c 3002 	ldrb.w	r3, [ip, #2]
                            esp01HState += (responses[indexResponse][3] - '0');
 80006ae:	f89c 2003 	ldrb.w	r2, [ip, #3]
                            esp01HState = (responses[indexResponse][2] - '0');
 80006b2:	3b30      	subs	r3, #48	@ 0x30
                            esp01HState *= 10;
 80006b4:	eb03 0383 	add.w	r3, r3, r3, lsl #2
                            esp01HState += (responses[indexResponse][3] - '0');
 80006b8:	3a30      	subs	r2, #48	@ 0x30
 80006ba:	eb02 0343 	add.w	r3, r2, r3, lsl #1
 80006be:	7023      	strb	r3, [r4, #0]
			indexResponseChar++;
 80006c0:	4b2e      	ldr	r3, [pc, #184]	@ (800077c <ESP01_Task+0x2b8>)
 80006c2:	3101      	adds	r1, #1
 80006c4:	7019      	strb	r1, [r3, #0]
			break;
 80006c6:	e770      	b.n	80005aa <ESP01_Task+0xe6>
                while(responses[indexResponse] != NULL){
 80006c8:	f04f 0901 	mov.w	r9, #1
 80006cc:	3201      	adds	r2, #1
 80006ce:	e7bb      	b.n	8000648 <ESP01_Task+0x184>
			if(value == '\n'){
 80006d0:	280a      	cmp	r0, #10
 80006d2:	f47f af6a 	bne.w	80005aa <ESP01_Task+0xe6>
				esp01HState = 0;
 80006d6:	2200      	movs	r2, #0
				switch(indexResponse){
 80006d8:	4b27      	ldr	r3, [pc, #156]	@ (8000778 <ESP01_Task+0x2b4>)
				esp01HState = 0;
 80006da:	7022      	strb	r2, [r4, #0]
				switch(indexResponse){
 80006dc:	781b      	ldrb	r3, [r3, #0]
 80006de:	3b02      	subs	r3, #2
 80006e0:	2b0d      	cmp	r3, #13
 80006e2:	f63f af62 	bhi.w	80005aa <ESP01_Task+0xe6>
 80006e6:	a101      	add	r1, pc, #4	@ (adr r1, 80006ec <ESP01_Task+0x228>)
 80006e8:	f851 f023 	ldr.w	pc, [r1, r3, lsl #2]
 80006ec:	08000725 	.word	0x08000725
 80006f0:	0800073d 	.word	0x0800073d
 80006f4:	08000795 	.word	0x08000795
 80006f8:	080005ab 	.word	0x080005ab
 80006fc:	080007c1 	.word	0x080007c1
 8000700:	080007c1 	.word	0x080007c1
 8000704:	080007ff 	.word	0x080007ff
 8000708:	08000809 	.word	0x08000809
 800070c:	08000821 	.word	0x08000821
 8000710:	080007ff 	.word	0x080007ff
 8000714:	080005ab 	.word	0x080005ab
 8000718:	0800084b 	.word	0x0800084b
 800071c:	080005ab 	.word	0x080005ab
 8000720:	08000855 	.word	0x08000855
					if(esp01ATSate == ESP01ATRESPONSE){
 8000724:	783b      	ldrb	r3, [r7, #0]
 8000726:	2b02      	cmp	r3, #2
 8000728:	f47f af3f 	bne.w	80005aa <ESP01_Task+0xe6>
						esp01TimeoutTask = 0;
 800072c:	2200      	movs	r2, #0
 800072e:	4b0d      	ldr	r3, [pc, #52]	@ (8000764 <ESP01_Task+0x2a0>)
 8000730:	601a      	str	r2, [r3, #0]
						esp01Flags.bit.ATRESPONSEOK = 1;
 8000732:	4a0d      	ldr	r2, [pc, #52]	@ (8000768 <ESP01_Task+0x2a4>)
 8000734:	7813      	ldrb	r3, [r2, #0]
 8000736:	f043 0320 	orr.w	r3, r3, #32
 800073a:	e756      	b.n	80005ea <ESP01_Task+0x126>
					if(esp01Flags.bit.SENDINGDATA){
 800073c:	4a0a      	ldr	r2, [pc, #40]	@ (8000768 <ESP01_Task+0x2a4>)
 800073e:	7813      	ldrb	r3, [r2, #0]
 8000740:	0719      	lsls	r1, r3, #28
 8000742:	f57f af32 	bpl.w	80005aa <ESP01_Task+0xe6>
						esp01Flags.bit.SENDINGDATA = 0;
 8000746:	f023 0348 	bic.w	r3, r3, #72	@ 0x48
 800074a:	7013      	strb	r3, [r2, #0]
						esp01irTX = esp01iwTX;
 800074c:	4b0f      	ldr	r3, [pc, #60]	@ (800078c <ESP01_Task+0x2c8>)
 800074e:	881a      	ldrh	r2, [r3, #0]
 8000750:	4b0f      	ldr	r3, [pc, #60]	@ (8000790 <ESP01_Task+0x2cc>)
					esp01nBytes = 0;
 8000752:	801a      	strh	r2, [r3, #0]
 8000754:	e729      	b.n	80005aa <ESP01_Task+0xe6>
 8000756:	bf00      	nop
 8000758:	20000274 	.word	0x20000274
 800075c:	20000272 	.word	0x20000272
 8000760:	200005dd 	.word	0x200005dd
 8000764:	200005d8 	.word	0x200005d8
 8000768:	200005dc 	.word	0x200005dc
 800076c:	200005d4 	.word	0x200005d4
 8000770:	200004f8 	.word	0x200004f8
 8000774:	20000476 	.word	0x20000476
 8000778:	2000025d 	.word	0x2000025d
 800077c:	2000025c 	.word	0x2000025c
 8000780:	08009c80 	.word	0x08009c80
 8000784:	200005d0 	.word	0x200005d0
 8000788:	200004f6 	.word	0x200004f6
 800078c:	2000026e 	.word	0x2000026e
 8000790:	20000270 	.word	0x20000270
					esp01TimeoutTask = 0;
 8000794:	4b9a      	ldr	r3, [pc, #616]	@ (8000a00 <ESP01_Task+0x53c>)
 8000796:	601a      	str	r2, [r3, #0]
					if(esp01ATSate == ESP01CWJAPRESPONSE)
 8000798:	783b      	ldrb	r3, [r7, #0]
 800079a:	2b09      	cmp	r3, #9
 800079c:	4b99      	ldr	r3, [pc, #612]	@ (8000a04 <ESP01_Task+0x540>)
						esp01Flags.bit.ATRESPONSEOK = 1;
 800079e:	bf02      	ittt	eq
 80007a0:	781a      	ldrbeq	r2, [r3, #0]
 80007a2:	f042 0220 	orreq.w	r2, r2, #32
 80007a6:	701a      	strbeq	r2, [r3, #0]
					esp01Flags.bit.WIFICONNECTED = 1;
 80007a8:	781a      	ldrb	r2, [r3, #0]
 80007aa:	f042 0202 	orr.w	r2, r2, #2
 80007ae:	701a      	strb	r2, [r3, #0]
					if(ESP01ChangeState != NULL)
 80007b0:	4b95      	ldr	r3, [pc, #596]	@ (8000a08 <ESP01_Task+0x544>)
 80007b2:	681b      	ldr	r3, [r3, #0]
 80007b4:	2b00      	cmp	r3, #0
 80007b6:	f43f aef8 	beq.w	80005aa <ESP01_Task+0xe6>
						ESP01ChangeState(ESP01_WIFI_CONNECTED);
 80007ba:	2003      	movs	r0, #3
						ESP01ChangeState(ESP01_SEND_OK);
 80007bc:	4798      	blx	r3
 80007be:	e6f4      	b.n	80005aa <ESP01_Task+0xe6>
					esp01Flags.bit.UDPTCPCONNECTED = 0;
 80007c0:	f8df 8240 	ldr.w	r8, [pc, #576]	@ 8000a04 <ESP01_Task+0x540>
 80007c4:	f898 3000 	ldrb.w	r3, [r8]
 80007c8:	f023 0340 	bic.w	r3, r3, #64	@ 0x40
 80007cc:	f888 3000 	strb.w	r3, [r8]
					if(ESP01ChangeState != NULL)
 80007d0:	4b8d      	ldr	r3, [pc, #564]	@ (8000a08 <ESP01_Task+0x544>)
 80007d2:	681b      	ldr	r3, [r3, #0]
 80007d4:	b10b      	cbz	r3, 80007da <ESP01_Task+0x316>
						ESP01ChangeState(ESP01_WIFI_DISCONNECTED);
 80007d6:	2000      	movs	r0, #0
 80007d8:	4798      	blx	r3
					if(esp01WebServerMode)
 80007da:	4b8c      	ldr	r3, [pc, #560]	@ (8000a0c <ESP01_Task+0x548>)
 80007dc:	781a      	ldrb	r2, [r3, #0]
 80007de:	2a00      	cmp	r2, #0
 80007e0:	f47f aee3 	bne.w	80005aa <ESP01_Task+0xe6>
					esp01Flags.bit.WIFICONNECTED = 0;
 80007e4:	f898 3000 	ldrb.w	r3, [r8]
 80007e8:	f362 0341 	bfi	r3, r2, #1, #1
 80007ec:	f888 3000 	strb.w	r3, [r8]
					if(esp01ATSate == ESP01CWJAPRESPONSE)
 80007f0:	783b      	ldrb	r3, [r7, #0]
 80007f2:	2b09      	cmp	r3, #9
 80007f4:	f43f aed9 	beq.w	80005aa <ESP01_Task+0xe6>
					esp01ATSate = ESP01ATHARDRSTSTOP;
 80007f8:	2312      	movs	r3, #18
 80007fa:	703b      	strb	r3, [r7, #0]
					break;
 80007fc:	e6d5      	b.n	80005aa <ESP01_Task+0xe6>
					esp01Flags.bit.UDPTCPCONNECTED = 0;
 80007fe:	4a81      	ldr	r2, [pc, #516]	@ (8000a04 <ESP01_Task+0x540>)
 8000800:	7813      	ldrb	r3, [r2, #0]
 8000802:	f023 0340 	bic.w	r3, r3, #64	@ 0x40
 8000806:	e6f0      	b.n	80005ea <ESP01_Task+0x126>
					esp01Flags.bit.SENDINGDATA = 0;
 8000808:	4a7e      	ldr	r2, [pc, #504]	@ (8000a04 <ESP01_Task+0x540>)
 800080a:	7813      	ldrb	r3, [r2, #0]
 800080c:	f023 0308 	bic.w	r3, r3, #8
 8000810:	7013      	strb	r3, [r2, #0]
					if(ESP01ChangeState != NULL)
 8000812:	4b7d      	ldr	r3, [pc, #500]	@ (8000a08 <ESP01_Task+0x544>)
 8000814:	681b      	ldr	r3, [r3, #0]
 8000816:	2b00      	cmp	r3, #0
 8000818:	f43f aec7 	beq.w	80005aa <ESP01_Task+0xe6>
						ESP01ChangeState(ESP01_SEND_OK);
 800081c:	200a      	movs	r0, #10
 800081e:	e7cd      	b.n	80007bc <ESP01_Task+0x2f8>
					if(!esp01WebServerMode){
 8000820:	4b7a      	ldr	r3, [pc, #488]	@ (8000a0c <ESP01_Task+0x548>)
 8000822:	781b      	ldrb	r3, [r3, #0]
 8000824:	2b00      	cmp	r3, #0
 8000826:	f47f aec0 	bne.w	80005aa <ESP01_Task+0xe6>
						esp01TimeoutTask = 0;
 800082a:	4a75      	ldr	r2, [pc, #468]	@ (8000a00 <ESP01_Task+0x53c>)
 800082c:	6013      	str	r3, [r2, #0]
						esp01Flags.bit.ATRESPONSEOK = 1;
 800082e:	4a75      	ldr	r2, [pc, #468]	@ (8000a04 <ESP01_Task+0x540>)
 8000830:	7813      	ldrb	r3, [r2, #0]
 8000832:	f023 0360 	bic.w	r3, r3, #96	@ 0x60
 8000836:	f043 0360 	orr.w	r3, r3, #96	@ 0x60
 800083a:	7013      	strb	r3, [r2, #0]
						if(ESP01ChangeState != NULL)
 800083c:	4b72      	ldr	r3, [pc, #456]	@ (8000a08 <ESP01_Task+0x544>)
 800083e:	681b      	ldr	r3, [r3, #0]
 8000840:	2b00      	cmp	r3, #0
 8000842:	f43f aeb2 	beq.w	80005aa <ESP01_Task+0xe6>
							ESP01ChangeState(ESP01_UDPTCP_CONNECTED);
 8000846:	2007      	movs	r0, #7
 8000848:	e7b8      	b.n	80007bc <ESP01_Task+0x2f8>
					esp01Flags.bit.WIFICONNECTED = 0;
 800084a:	4a6e      	ldr	r2, [pc, #440]	@ (8000a04 <ESP01_Task+0x540>)
 800084c:	7813      	ldrb	r3, [r2, #0]
 800084e:	f023 0342 	bic.w	r3, r3, #66	@ 0x42
 8000852:	e6ca      	b.n	80005ea <ESP01_Task+0x126>
					esp01Flags.bit.WIFICONNECTED = 0;
 8000854:	4a6b      	ldr	r2, [pc, #428]	@ (8000a04 <ESP01_Task+0x540>)
 8000856:	7813      	ldrb	r3, [r2, #0]
 8000858:	f023 0342 	bic.w	r3, r3, #66	@ 0x42
 800085c:	7013      	strb	r3, [r2, #0]
 800085e:	e7cb      	b.n	80007f8 <ESP01_Task+0x334>
				if(ESP01DbgStr != NULL)
 8000860:	4a6b      	ldr	r2, [pc, #428]	@ (8000a10 <ESP01_Task+0x54c>)
			if(value == ','){
 8000862:	282c      	cmp	r0, #44	@ 0x2c
				if(ESP01DbgStr != NULL)
 8000864:	6812      	ldr	r2, [r2, #0]
			if(value == ','){
 8000866:	d107      	bne.n	8000878 <ESP01_Task+0x3b4>
				esp01HState = 6;
 8000868:	2306      	movs	r3, #6
 800086a:	7023      	strb	r3, [r4, #0]
				if(ESP01DbgStr != NULL)
 800086c:	2a00      	cmp	r2, #0
 800086e:	f43f ae9c 	beq.w	80005aa <ESP01_Task+0xe6>
					ESP01DbgStr("+&DBGRESPONSE CIFSR\n");
 8000872:	4868      	ldr	r0, [pc, #416]	@ (8000a14 <ESP01_Task+0x550>)
					ESP01DbgStr("+&DBGERROR CIFSR 5\n");
 8000874:	4790      	blx	r2
 8000876:	e698      	b.n	80005aa <ESP01_Task+0xe6>
				esp01HState = 0;
 8000878:	2100      	movs	r1, #0
				esp01irRXAT--;
 800087a:	3b01      	subs	r3, #1
				esp01HState = 0;
 800087c:	7021      	strb	r1, [r4, #0]
				esp01irRXAT--;
 800087e:	8033      	strh	r3, [r6, #0]
				if(ESP01DbgStr != NULL)
 8000880:	2a00      	cmp	r2, #0
 8000882:	f43f ae92 	beq.w	80005aa <ESP01_Task+0xe6>
					ESP01DbgStr("+&DBGERROR CIFSR 5\n");
 8000886:	4864      	ldr	r0, [pc, #400]	@ (8000a18 <ESP01_Task+0x554>)
 8000888:	e7f4      	b.n	8000874 <ESP01_Task+0x3b0>
			if(value == '\"'){
 800088a:	2822      	cmp	r0, #34	@ 0x22
 800088c:	f47f ae8d 	bne.w	80005aa <ESP01_Task+0xe6>
				esp01HState = 7;
 8000890:	2307      	movs	r3, #7
					esp01HState = 11;
 8000892:	7023      	strb	r3, [r4, #0]
					esp01nBytes = 0;
 8000894:	2200      	movs	r2, #0
 8000896:	4b61      	ldr	r3, [pc, #388]	@ (8000a1c <ESP01_Task+0x558>)
 8000898:	e75b      	b.n	8000752 <ESP01_Task+0x28e>
			if(value == '\"' || esp01nBytes==16)
 800089a:	2822      	cmp	r0, #34	@ 0x22
 800089c:	d003      	beq.n	80008a6 <ESP01_Task+0x3e2>
 800089e:	4a5f      	ldr	r2, [pc, #380]	@ (8000a1c <ESP01_Task+0x558>)
 80008a0:	8813      	ldrh	r3, [r2, #0]
 80008a2:	2b10      	cmp	r3, #16
 80008a4:	d101      	bne.n	80008aa <ESP01_Task+0x3e6>
				esp01HState = 8;
 80008a6:	2308      	movs	r3, #8
 80008a8:	e6c4      	b.n	8000634 <ESP01_Task+0x170>
				esp01LocalIP[esp01nBytes++] = value;
 80008aa:	1c59      	adds	r1, r3, #1
 80008ac:	8011      	strh	r1, [r2, #0]
 80008ae:	4a5c      	ldr	r2, [pc, #368]	@ (8000a20 <ESP01_Task+0x55c>)
 80008b0:	54d0      	strb	r0, [r2, r3]
 80008b2:	e67a      	b.n	80005aa <ESP01_Task+0xe6>
			if(value == '\n'){
 80008b4:	280a      	cmp	r0, #10
 80008b6:	f47f ae78 	bne.w	80005aa <ESP01_Task+0xe6>
				esp01HState = 0;
 80008ba:	2300      	movs	r3, #0
				if(esp01nBytes < 16){
 80008bc:	4a57      	ldr	r2, [pc, #348]	@ (8000a1c <ESP01_Task+0x558>)
				esp01HState = 0;
 80008be:	7023      	strb	r3, [r4, #0]
				if(esp01nBytes < 16){
 80008c0:	8811      	ldrh	r1, [r2, #0]
 80008c2:	4a57      	ldr	r2, [pc, #348]	@ (8000a20 <ESP01_Task+0x55c>)
 80008c4:	290f      	cmp	r1, #15
					esp01LocalIP[esp01nBytes] = '\0';
 80008c6:	bf9b      	ittet	ls
 80008c8:	5453      	strbls	r3, [r2, r1]
					esp01Flags.bit.ATRESPONSEOK = 1;
 80008ca:	494e      	ldrls	r1, [pc, #312]	@ (8000a04 <ESP01_Task+0x540>)
					esp01LocalIP[0] = '\0';
 80008cc:	7013      	strbhi	r3, [r2, #0]
					esp01Flags.bit.ATRESPONSEOK = 1;
 80008ce:	780a      	ldrbls	r2, [r1, #0]
 80008d0:	bf9f      	itttt	ls
 80008d2:	f042 0220 	orrls.w	r2, r2, #32
 80008d6:	700a      	strbls	r2, [r1, #0]
					esp01TimeoutTask = 0;
 80008d8:	4a49      	ldrls	r2, [pc, #292]	@ (8000a00 <ESP01_Task+0x53c>)
 80008da:	6013      	strls	r3, [r2, #0]
				if(ESP01ChangeState != NULL)
 80008dc:	4b4a      	ldr	r3, [pc, #296]	@ (8000a08 <ESP01_Task+0x544>)
 80008de:	681b      	ldr	r3, [r3, #0]
 80008e0:	2b00      	cmp	r3, #0
 80008e2:	f43f ae62 	beq.w	80005aa <ESP01_Task+0xe6>
					ESP01ChangeState(ESP01_WIFI_NEW_IP);
 80008e6:	2004      	movs	r0, #4
 80008e8:	e768      	b.n	80007bc <ESP01_Task+0x2f8>
			if(value == ','){
 80008ea:	282c      	cmp	r0, #44	@ 0x2c
 80008ec:	f47f aebd 	bne.w	800066a <ESP01_Task+0x1a6>
				if(esp01WebServerMode){
 80008f0:	4b46      	ldr	r3, [pc, #280]	@ (8000a0c <ESP01_Task+0x548>)
 80008f2:	781b      	ldrb	r3, [r3, #0]
 80008f4:	b12b      	cbz	r3, 8000902 <ESP01_Task+0x43e>
					esp01HState = 13;
 80008f6:	230d      	movs	r3, #13
					esp01LastConnID = 0;
 80008f8:	2200      	movs	r2, #0
					esp01HState = 13;
 80008fa:	7023      	strb	r3, [r4, #0]
					esp01LastConnID = 0;
 80008fc:	4b49      	ldr	r3, [pc, #292]	@ (8000a24 <ESP01_Task+0x560>)
 80008fe:	701a      	strb	r2, [r3, #0]
 8000900:	e653      	b.n	80005aa <ESP01_Task+0xe6>
					esp01HState = 11;
 8000902:	230b      	movs	r3, #11
 8000904:	e7c5      	b.n	8000892 <ESP01_Task+0x3ce>
			if(value == ','){
 8000906:	282c      	cmp	r0, #44	@ 0x2c
 8000908:	d0fb      	beq.n	8000902 <ESP01_Task+0x43e>
			else if(value >= '0' && value <= '9'){
 800090a:	f1a0 0230 	sub.w	r2, r0, #48	@ 0x30
 800090e:	2a09      	cmp	r2, #9
 8000910:	f63f aeab 	bhi.w	800066a <ESP01_Task+0x1a6>
				esp01LastConnID = (uint8_t)(esp01LastConnID * 10 + (value - '0'));
 8000914:	4a43      	ldr	r2, [pc, #268]	@ (8000a24 <ESP01_Task+0x560>)
 8000916:	7813      	ldrb	r3, [r2, #0]
 8000918:	eb03 0383 	add.w	r3, r3, r3, lsl #2
 800091c:	eb00 0343 	add.w	r3, r0, r3, lsl #1
 8000920:	3b30      	subs	r3, #48	@ 0x30
 8000922:	e662      	b.n	80005ea <ESP01_Task+0x126>
			if(value == ':')
 8000924:	283a      	cmp	r0, #58	@ 0x3a
 8000926:	d101      	bne.n	800092c <ESP01_Task+0x468>
				esp01HState = 12;
 8000928:	230c      	movs	r3, #12
 800092a:	e683      	b.n	8000634 <ESP01_Task+0x170>
				if(value<'0' || value>'9'){
 800092c:	f1a0 0230 	sub.w	r2, r0, #48	@ 0x30
 8000930:	2a09      	cmp	r2, #9
 8000932:	f63f ae9a 	bhi.w	800066a <ESP01_Task+0x1a6>
					esp01nBytes += (value - '0');
 8000936:	4a39      	ldr	r2, [pc, #228]	@ (8000a1c <ESP01_Task+0x558>)
					esp01nBytes *= 10;
 8000938:	8813      	ldrh	r3, [r2, #0]
 800093a:	eb03 0383 	add.w	r3, r3, r3, lsl #2
					esp01nBytes += (value - '0');
 800093e:	eb00 0343 	add.w	r3, r0, r3, lsl #1
 8000942:	3b30      	subs	r3, #48	@ 0x30
 8000944:	8013      	strh	r3, [r2, #0]
 8000946:	e630      	b.n	80005aa <ESP01_Task+0xe6>
			if(esp01Handle.WriteByteToBufRX != NULL)
 8000948:	4b37      	ldr	r3, [pc, #220]	@ (8000a28 <ESP01_Task+0x564>)
 800094a:	689b      	ldr	r3, [r3, #8]
 800094c:	b103      	cbz	r3, 8000950 <ESP01_Task+0x48c>
				esp01Handle.WriteByteToBufRX(value);
 800094e:	4798      	blx	r3
			esp01nBytes--;
 8000950:	4a32      	ldr	r2, [pc, #200]	@ (8000a1c <ESP01_Task+0x558>)
 8000952:	8813      	ldrh	r3, [r2, #0]
 8000954:	3b01      	subs	r3, #1
 8000956:	b29b      	uxth	r3, r3
 8000958:	8013      	strh	r3, [r2, #0]
			if(!esp01nBytes){
 800095a:	2b00      	cmp	r3, #0
 800095c:	f47f ae25 	bne.w	80005aa <ESP01_Task+0xe6>
				esp01HState = 0;
 8000960:	7023      	strb	r3, [r4, #0]
				if(ESP01DbgStr != NULL)
 8000962:	4b2b      	ldr	r3, [pc, #172]	@ (8000a10 <ESP01_Task+0x54c>)
 8000964:	681b      	ldr	r3, [r3, #0]
 8000966:	2b00      	cmp	r3, #0
 8000968:	f43f ae1f 	beq.w	80005aa <ESP01_Task+0xe6>
					ESP01DbgStr("+&DBGRESPONSE IPD\n");
 800096c:	482f      	ldr	r0, [pc, #188]	@ (8000a2c <ESP01_Task+0x568>)
 800096e:	4798      	blx	r3
 8000970:	e61b      	b.n	80005aa <ESP01_Task+0xe6>
			esp01HState = 0;
 8000972:	2300      	movs	r3, #0
			esp01TimeoutDataRx = 0;
 8000974:	4a2e      	ldr	r2, [pc, #184]	@ (8000a30 <ESP01_Task+0x56c>)
			esp01HState = 0;
 8000976:	7023      	strb	r3, [r4, #0]
			esp01TimeoutDataRx = 0;
 8000978:	6013      	str	r3, [r2, #0]
 800097a:	e616      	b.n	80005aa <ESP01_Task+0xe6>
		esp01Handle.DoCHPD(0);
 800097c:	4b2a      	ldr	r3, [pc, #168]	@ (8000a28 <ESP01_Task+0x564>)
 800097e:	2000      	movs	r0, #0
 8000980:	681b      	ldr	r3, [r3, #0]
 8000982:	4798      	blx	r3
		if(ESP01DbgStr != NULL)
 8000984:	4b22      	ldr	r3, [pc, #136]	@ (8000a10 <ESP01_Task+0x54c>)
 8000986:	681b      	ldr	r3, [r3, #0]
 8000988:	b10b      	cbz	r3, 800098e <ESP01_Task+0x4ca>
			ESP01DbgStr("+&DBGESP01HARDRESET0\n");
 800098a:	482a      	ldr	r0, [pc, #168]	@ (8000a34 <ESP01_Task+0x570>)
 800098c:	4798      	blx	r3
		esp01ATSate = ESP01ATHARDRST1;
 800098e:	2311      	movs	r3, #17
				esp01ATSate = ESP01ATHARDRST0;
 8000990:	7023      	strb	r3, [r4, #0]
	if(esp01Flags.bit.WAITINGSYMBOL){
 8000992:	782b      	ldrb	r3, [r5, #0]
 8000994:	07da      	lsls	r2, r3, #31
 8000996:	f140 81d3 	bpl.w	8000d40 <ESP01_Task+0x87c>
		if(!esp01TimeoutTxSymbol){
 800099a:	4a27      	ldr	r2, [pc, #156]	@ (8000a38 <ESP01_Task+0x574>)
 800099c:	6812      	ldr	r2, [r2, #0]
 800099e:	b972      	cbnz	r2, 80009be <ESP01_Task+0x4fa>
			esp01Flags.bit.WAITINGSYMBOL = 0;
 80009a0:	f023 0309 	bic.w	r3, r3, #9
			esp01irTX = esp01iwTX;
 80009a4:	4a25      	ldr	r2, [pc, #148]	@ (8000a3c <ESP01_Task+0x578>)
			esp01Flags.bit.WAITINGSYMBOL = 0;
 80009a6:	702b      	strb	r3, [r5, #0]
			if(!esp01WebServerMode){
 80009a8:	4b18      	ldr	r3, [pc, #96]	@ (8000a0c <ESP01_Task+0x548>)
			esp01irTX = esp01iwTX;
 80009aa:	8811      	ldrh	r1, [r2, #0]
			if(!esp01WebServerMode){
 80009ac:	781b      	ldrb	r3, [r3, #0]
			esp01irTX = esp01iwTX;
 80009ae:	4a24      	ldr	r2, [pc, #144]	@ (8000a40 <ESP01_Task+0x57c>)
 80009b0:	8011      	strh	r1, [r2, #0]
			if(!esp01WebServerMode){
 80009b2:	b923      	cbnz	r3, 80009be <ESP01_Task+0x4fa>
				esp01ATSate = ESP01ATAT;
 80009b4:	2201      	movs	r2, #1
 80009b6:	4b23      	ldr	r3, [pc, #140]	@ (8000a44 <ESP01_Task+0x580>)
 80009b8:	701a      	strb	r2, [r3, #0]
				esp01TimeoutTask = 10;
 80009ba:	230a      	movs	r3, #10
 80009bc:	6033      	str	r3, [r6, #0]
}
 80009be:	e8bd 8ff8 	ldmia.w	sp!, {r3, r4, r5, r6, r7, r8, r9, sl, fp, pc}
		esp01Handle.DoCHPD(1);
 80009c2:	4b19      	ldr	r3, [pc, #100]	@ (8000a28 <ESP01_Task+0x564>)
 80009c4:	2001      	movs	r0, #1
 80009c6:	681b      	ldr	r3, [r3, #0]
 80009c8:	4798      	blx	r3
		if(ESP01DbgStr != NULL)
 80009ca:	4b11      	ldr	r3, [pc, #68]	@ (8000a10 <ESP01_Task+0x54c>)
 80009cc:	681b      	ldr	r3, [r3, #0]
 80009ce:	b10b      	cbz	r3, 80009d4 <ESP01_Task+0x510>
			ESP01DbgStr("+&DBGESP01HARDRESET1\n");
 80009d0:	481d      	ldr	r0, [pc, #116]	@ (8000a48 <ESP01_Task+0x584>)
 80009d2:	4798      	blx	r3
		esp01ATSate = ESP01ATHARDRSTSTOP;
 80009d4:	2312      	movs	r3, #18
 80009d6:	7023      	strb	r3, [r4, #0]
		esp01TimeoutTask = 500;
 80009d8:	f44f 73fa 	mov.w	r3, #500	@ 0x1f4
			esp01TimeoutTask = 0;
 80009dc:	6033      	str	r3, [r6, #0]
			break;
 80009de:	e7d8      	b.n	8000992 <ESP01_Task+0x4ce>
		esp01ATSate = ESP01ATAT;
 80009e0:	2301      	movs	r3, #1
		esp01TriesAT = 0;
 80009e2:	2200      	movs	r2, #0
		esp01ATSate = ESP01ATAT;
 80009e4:	7023      	strb	r3, [r4, #0]
		esp01TriesAT = 0;
 80009e6:	4b19      	ldr	r3, [pc, #100]	@ (8000a4c <ESP01_Task+0x588>)
			esp01TriesAT = 4;
 80009e8:	701a      	strb	r2, [r3, #0]
 80009ea:	e7d2      	b.n	8000992 <ESP01_Task+0x4ce>
		if(esp01TriesAT){
 80009ec:	4a17      	ldr	r2, [pc, #92]	@ (8000a4c <ESP01_Task+0x588>)
 80009ee:	7813      	ldrb	r3, [r2, #0]
 80009f0:	b373      	cbz	r3, 8000a50 <ESP01_Task+0x58c>
			esp01TriesAT--;
 80009f2:	3b01      	subs	r3, #1
 80009f4:	b2db      	uxtb	r3, r3
 80009f6:	7013      	strb	r3, [r2, #0]
			if(!esp01TriesAT){
 80009f8:	bb63      	cbnz	r3, 8000a54 <ESP01_Task+0x590>
				esp01ATSate = ESP01ATHARDRST0;
 80009fa:	2310      	movs	r3, #16
 80009fc:	e7c8      	b.n	8000990 <ESP01_Task+0x4cc>
 80009fe:	bf00      	nop
 8000a00:	200005d8 	.word	0x200005d8
 8000a04:	200005dc 	.word	0x200005dc
 8000a08:	200005cc 	.word	0x200005cc
 8000a0c:	200004fa 	.word	0x200004fa
 8000a10:	200005c8 	.word	0x200005c8
 8000a14:	0800988e 	.word	0x0800988e
 8000a18:	080098a3 	.word	0x080098a3
 8000a1c:	200004f6 	.word	0x200004f6
 8000a20:	20000541 	.word	0x20000541
 8000a24:	200004f9 	.word	0x200004f9
 8000a28:	20000260 	.word	0x20000260
 8000a2c:	080098b7 	.word	0x080098b7
 8000a30:	200005d4 	.word	0x200005d4
 8000a34:	080098ca 	.word	0x080098ca
 8000a38:	200005d0 	.word	0x200005d0
 8000a3c:	2000026e 	.word	0x2000026e
 8000a40:	20000270 	.word	0x20000270
 8000a44:	200005dd 	.word	0x200005dd
 8000a48:	080098e0 	.word	0x080098e0
 8000a4c:	2000026c 	.word	0x2000026c
			esp01TriesAT = 4;
 8000a50:	2304      	movs	r3, #4
 8000a52:	7013      	strb	r3, [r2, #0]
		esp01Flags.bit.ATRESPONSEOK = 0;
 8000a54:	782b      	ldrb	r3, [r5, #0]
		ESP01StrToBufTX(ATAT);
 8000a56:	4897      	ldr	r0, [pc, #604]	@ (8000cb4 <ESP01_Task+0x7f0>)
		esp01Flags.bit.ATRESPONSEOK = 0;
 8000a58:	f023 0320 	bic.w	r3, r3, #32
 8000a5c:	702b      	strb	r3, [r5, #0]
		ESP01StrToBufTX(ATAT);
 8000a5e:	f7ff fb7d 	bl	800015c <ESP01StrToBufTX>
		if(ESP01DbgStr != NULL)
 8000a62:	4b95      	ldr	r3, [pc, #596]	@ (8000cb8 <ESP01_Task+0x7f4>)
 8000a64:	681b      	ldr	r3, [r3, #0]
 8000a66:	b10b      	cbz	r3, 8000a6c <ESP01_Task+0x5a8>
			ESP01DbgStr("+&DBGESP01AT\n");
 8000a68:	4894      	ldr	r0, [pc, #592]	@ (8000cbc <ESP01_Task+0x7f8>)
 8000a6a:	4798      	blx	r3
		esp01ATSate = ESP01ATRESPONSE;
 8000a6c:	2302      	movs	r3, #2
 8000a6e:	e78f      	b.n	8000990 <ESP01_Task+0x4cc>
		if(esp01Flags.bit.ATRESPONSEOK)
 8000a70:	782b      	ldrb	r3, [r5, #0]
 8000a72:	0698      	lsls	r0, r3, #26
 8000a74:	f140 80bf 	bpl.w	8000bf6 <ESP01_Task+0x732>
			esp01ATSate = ESP01ATCWMODE;
 8000a78:	2303      	movs	r3, #3
 8000a7a:	e789      	b.n	8000990 <ESP01_Task+0x4cc>
		ESP01StrToBufTX(ATCWMODE);
 8000a7c:	4890      	ldr	r0, [pc, #576]	@ (8000cc0 <ESP01_Task+0x7fc>)
 8000a7e:	f7ff fb6d 	bl	800015c <ESP01StrToBufTX>
		if(ESP01DbgStr != NULL)
 8000a82:	4b8d      	ldr	r3, [pc, #564]	@ (8000cb8 <ESP01_Task+0x7f4>)
 8000a84:	681b      	ldr	r3, [r3, #0]
 8000a86:	b10b      	cbz	r3, 8000a8c <ESP01_Task+0x5c8>
			ESP01DbgStr("+&DBGESP01ATCWMODE\n");
 8000a88:	488e      	ldr	r0, [pc, #568]	@ (8000cc4 <ESP01_Task+0x800>)
 8000a8a:	4798      	blx	r3
		esp01ATSate = ESP01ATCIPMUX;
 8000a8c:	2304      	movs	r3, #4
 8000a8e:	e77f      	b.n	8000990 <ESP01_Task+0x4cc>
		if (esp01WebServerMode) {
 8000a90:	4f8d      	ldr	r7, [pc, #564]	@ (8000cc8 <ESP01_Task+0x804>)
 8000a92:	783b      	ldrb	r3, [r7, #0]
 8000a94:	b16b      	cbz	r3, 8000ab2 <ESP01_Task+0x5ee>
			ESP01StrToBufTX("AT+CIPMUX=1\r\n");
 8000a96:	488d      	ldr	r0, [pc, #564]	@ (8000ccc <ESP01_Task+0x808>)
			ESP01StrToBufTX("AT+CIPMUX=0\r\n");
 8000a98:	f7ff fb60 	bl	800015c <ESP01StrToBufTX>
		if (ESP01DbgStr != NULL)
 8000a9c:	4b86      	ldr	r3, [pc, #536]	@ (8000cb8 <ESP01_Task+0x7f4>)
 8000a9e:	681b      	ldr	r3, [r3, #0]
 8000aa0:	b10b      	cbz	r3, 8000aa6 <ESP01_Task+0x5e2>
			ESP01DbgStr("+&DBGESP01ATCIPMUX\n");
 8000aa2:	488b      	ldr	r0, [pc, #556]	@ (8000cd0 <ESP01_Task+0x80c>)
 8000aa4:	4798      	blx	r3
		esp01ATSate = (esp01WebServerMode) ? ESP01ATCWSAP : ESP01ATCWJAP;
 8000aa6:	783b      	ldrb	r3, [r7, #0]
 8000aa8:	2b00      	cmp	r3, #0
 8000aaa:	bf0c      	ite	eq
 8000aac:	2308      	moveq	r3, #8
 8000aae:	2305      	movne	r3, #5
 8000ab0:	e76e      	b.n	8000990 <ESP01_Task+0x4cc>
			ESP01StrToBufTX("AT+CIPMUX=0\r\n");
 8000ab2:	4888      	ldr	r0, [pc, #544]	@ (8000cd4 <ESP01_Task+0x810>)
 8000ab4:	e7f0      	b.n	8000a98 <ESP01_Task+0x5d4>
		ESP01StrToBufTX(ATCWSAP);
 8000ab6:	4888      	ldr	r0, [pc, #544]	@ (8000cd8 <ESP01_Task+0x814>)
 8000ab8:	f7ff fb50 	bl	800015c <ESP01StrToBufTX>
		ESP01ByteToBufTX('"');
 8000abc:	2022      	movs	r0, #34	@ 0x22
 8000abe:	f7ff fb67 	bl	8000190 <ESP01ByteToBufTX>
		ESP01StrToBufTX(esp01AP_SSID);
 8000ac2:	4886      	ldr	r0, [pc, #536]	@ (8000cdc <ESP01_Task+0x818>)
 8000ac4:	f7ff fb4a 	bl	800015c <ESP01StrToBufTX>
		ESP01ByteToBufTX('"');
 8000ac8:	2022      	movs	r0, #34	@ 0x22
 8000aca:	f7ff fb61 	bl	8000190 <ESP01ByteToBufTX>
		ESP01ByteToBufTX(',');
 8000ace:	202c      	movs	r0, #44	@ 0x2c
 8000ad0:	f7ff fb5e 	bl	8000190 <ESP01ByteToBufTX>
		ESP01ByteToBufTX('"');
 8000ad4:	2022      	movs	r0, #34	@ 0x22
 8000ad6:	f7ff fb5b 	bl	8000190 <ESP01ByteToBufTX>
		ESP01StrToBufTX(esp01AP_PASS);
 8000ada:	4881      	ldr	r0, [pc, #516]	@ (8000ce0 <ESP01_Task+0x81c>)
 8000adc:	f7ff fb3e 	bl	800015c <ESP01StrToBufTX>
		ESP01ByteToBufTX('"');
 8000ae0:	2022      	movs	r0, #34	@ 0x22
 8000ae2:	f7ff fb55 	bl	8000190 <ESP01ByteToBufTX>
		ESP01ByteToBufTX(',');
 8000ae6:	202c      	movs	r0, #44	@ 0x2c
 8000ae8:	f7ff fb52 	bl	8000190 <ESP01ByteToBufTX>
		ESP01StrToBufTX(esp01AP_CH);
 8000aec:	487d      	ldr	r0, [pc, #500]	@ (8000ce4 <ESP01_Task+0x820>)
 8000aee:	f7ff fb35 	bl	800015c <ESP01StrToBufTX>
		ESP01ByteToBufTX(',');
 8000af2:	202c      	movs	r0, #44	@ 0x2c
 8000af4:	f7ff fb4c 	bl	8000190 <ESP01ByteToBufTX>
		ESP01StrToBufTX(esp01AP_ENC);
 8000af8:	487b      	ldr	r0, [pc, #492]	@ (8000ce8 <ESP01_Task+0x824>)
 8000afa:	f7ff fb2f 	bl	800015c <ESP01StrToBufTX>
		ESP01ByteToBufTX('\r');
 8000afe:	200d      	movs	r0, #13
 8000b00:	f7ff fb46 	bl	8000190 <ESP01ByteToBufTX>
		ESP01ByteToBufTX('\n');
 8000b04:	200a      	movs	r0, #10
 8000b06:	f7ff fb43 	bl	8000190 <ESP01ByteToBufTX>
		if(ESP01DbgStr != NULL)
 8000b0a:	4b6b      	ldr	r3, [pc, #428]	@ (8000cb8 <ESP01_Task+0x7f4>)
 8000b0c:	681b      	ldr	r3, [r3, #0]
 8000b0e:	b10b      	cbz	r3, 8000b14 <ESP01_Task+0x650>
			ESP01DbgStr("+&DBGESP01ATCWSAP\n");
 8000b10:	4876      	ldr	r0, [pc, #472]	@ (8000cec <ESP01_Task+0x828>)
 8000b12:	4798      	blx	r3
		esp01ATSate = ESP01ATCWDHCP;
 8000b14:	2306      	movs	r3, #6
 8000b16:	e73b      	b.n	8000990 <ESP01_Task+0x4cc>
		ESP01StrToBufTX(ATCWDHCP);
 8000b18:	4875      	ldr	r0, [pc, #468]	@ (8000cf0 <ESP01_Task+0x82c>)
 8000b1a:	f7ff fb1f 	bl	800015c <ESP01StrToBufTX>
		if(ESP01DbgStr != NULL)
 8000b1e:	4b66      	ldr	r3, [pc, #408]	@ (8000cb8 <ESP01_Task+0x7f4>)
 8000b20:	681b      	ldr	r3, [r3, #0]
 8000b22:	b10b      	cbz	r3, 8000b28 <ESP01_Task+0x664>
			ESP01DbgStr("+&DBGESP01ATCWDHCP\n");
 8000b24:	4873      	ldr	r0, [pc, #460]	@ (8000cf4 <ESP01_Task+0x830>)
 8000b26:	4798      	blx	r3
		esp01ATSate = ESP01ATCIPSERVER;
 8000b28:	2307      	movs	r3, #7
 8000b2a:	e731      	b.n	8000990 <ESP01_Task+0x4cc>
		ESP01StrToBufTX(ATCIPSERVER);
 8000b2c:	4872      	ldr	r0, [pc, #456]	@ (8000cf8 <ESP01_Task+0x834>)
 8000b2e:	f7ff fb15 	bl	800015c <ESP01StrToBufTX>
		if(ESP01DbgStr != NULL)
 8000b32:	4b61      	ldr	r3, [pc, #388]	@ (8000cb8 <ESP01_Task+0x7f4>)
 8000b34:	681b      	ldr	r3, [r3, #0]
 8000b36:	b10b      	cbz	r3, 8000b3c <ESP01_Task+0x678>
			ESP01DbgStr("+&DBGESP01ATCIPSERVER\n");
 8000b38:	4870      	ldr	r0, [pc, #448]	@ (8000cfc <ESP01_Task+0x838>)
 8000b3a:	4798      	blx	r3
		esp01ATSate = ESP01ATCONNECTED;
 8000b3c:	230f      	movs	r3, #15
 8000b3e:	e727      	b.n	8000990 <ESP01_Task+0x4cc>
		if(esp01Flags.bit.WIFICONNECTED){
 8000b40:	782b      	ldrb	r3, [r5, #0]
 8000b42:	0799      	lsls	r1, r3, #30
 8000b44:	d501      	bpl.n	8000b4a <ESP01_Task+0x686>
			esp01ATSate = ESP01ATCIFSR;
 8000b46:	230a      	movs	r3, #10
 8000b48:	e722      	b.n	8000990 <ESP01_Task+0x4cc>
		if(esp01SSID[0] == '\0')
 8000b4a:	4f6d      	ldr	r7, [pc, #436]	@ (8000d00 <ESP01_Task+0x83c>)
 8000b4c:	783b      	ldrb	r3, [r7, #0]
 8000b4e:	2b00      	cmp	r3, #0
 8000b50:	f43f af1f 	beq.w	8000992 <ESP01_Task+0x4ce>
		ESP01StrToBufTX(ATCWJAP);
 8000b54:	486b      	ldr	r0, [pc, #428]	@ (8000d04 <ESP01_Task+0x840>)
 8000b56:	f7ff fb01 	bl	800015c <ESP01StrToBufTX>
		ESP01ByteToBufTX('\"');
 8000b5a:	2022      	movs	r0, #34	@ 0x22
 8000b5c:	f7ff fb18 	bl	8000190 <ESP01ByteToBufTX>
		ESP01StrToBufTX(esp01SSID);
 8000b60:	4638      	mov	r0, r7
 8000b62:	f7ff fafb 	bl	800015c <ESP01StrToBufTX>
		ESP01ByteToBufTX('\"');
 8000b66:	2022      	movs	r0, #34	@ 0x22
 8000b68:	f7ff fb12 	bl	8000190 <ESP01ByteToBufTX>
		ESP01ByteToBufTX(',');
 8000b6c:	202c      	movs	r0, #44	@ 0x2c
 8000b6e:	f7ff fb0f 	bl	8000190 <ESP01ByteToBufTX>
		ESP01ByteToBufTX('\"');
 8000b72:	2022      	movs	r0, #34	@ 0x22
 8000b74:	f7ff fb0c 	bl	8000190 <ESP01ByteToBufTX>
		ESP01StrToBufTX(esp01PASSWORD);
 8000b78:	4863      	ldr	r0, [pc, #396]	@ (8000d08 <ESP01_Task+0x844>)
 8000b7a:	f7ff faef 	bl	800015c <ESP01StrToBufTX>
		ESP01ByteToBufTX('\"');
 8000b7e:	2022      	movs	r0, #34	@ 0x22
 8000b80:	f7ff fb06 	bl	8000190 <ESP01ByteToBufTX>
		ESP01ByteToBufTX('\r');
 8000b84:	200d      	movs	r0, #13
 8000b86:	f7ff fb03 	bl	8000190 <ESP01ByteToBufTX>
		ESP01ByteToBufTX('\n');
 8000b8a:	200a      	movs	r0, #10
 8000b8c:	f7ff fb00 	bl	8000190 <ESP01ByteToBufTX>
		if(ESP01DbgStr != NULL)
 8000b90:	4b49      	ldr	r3, [pc, #292]	@ (8000cb8 <ESP01_Task+0x7f4>)
 8000b92:	681b      	ldr	r3, [r3, #0]
 8000b94:	b10b      	cbz	r3, 8000b9a <ESP01_Task+0x6d6>
			ESP01DbgStr("+&DBGESP01ATCWJAP\n");
 8000b96:	485d      	ldr	r0, [pc, #372]	@ (8000d0c <ESP01_Task+0x848>)
 8000b98:	4798      	blx	r3
		esp01Flags.bit.ATRESPONSEOK = 0;
 8000b9a:	782b      	ldrb	r3, [r5, #0]
 8000b9c:	f023 0320 	bic.w	r3, r3, #32
 8000ba0:	702b      	strb	r3, [r5, #0]
		esp01ATSate = ESP01CWJAPRESPONSE;
 8000ba2:	2309      	movs	r3, #9
 8000ba4:	7023      	strb	r3, [r4, #0]
		esp01TimeoutTask = 1500;
 8000ba6:	f240 53dc 	movw	r3, #1500	@ 0x5dc
 8000baa:	e717      	b.n	80009dc <ESP01_Task+0x518>
		if(esp01Flags.bit.ATRESPONSEOK){
 8000bac:	782b      	ldrb	r3, [r5, #0]
 8000bae:	069a      	lsls	r2, r3, #26
 8000bb0:	d521      	bpl.n	8000bf6 <ESP01_Task+0x732>
			esp01ATSate = ESP01ATCIFSR;
 8000bb2:	230a      	movs	r3, #10
			esp01TriesAT = 4;
 8000bb4:	2204      	movs	r2, #4
			esp01ATSate = ESP01ATCIFSR;
 8000bb6:	7023      	strb	r3, [r4, #0]
			esp01TriesAT = 4;
 8000bb8:	4b55      	ldr	r3, [pc, #340]	@ (8000d10 <ESP01_Task+0x84c>)
 8000bba:	e715      	b.n	80009e8 <ESP01_Task+0x524>
		esp01LocalIP[0] = '\0';
 8000bbc:	2200      	movs	r2, #0
 8000bbe:	4b55      	ldr	r3, [pc, #340]	@ (8000d14 <ESP01_Task+0x850>)
		ESP01StrToBufTX(ATCIFSR);
 8000bc0:	4855      	ldr	r0, [pc, #340]	@ (8000d18 <ESP01_Task+0x854>)
		esp01LocalIP[0] = '\0';
 8000bc2:	701a      	strb	r2, [r3, #0]
		ESP01StrToBufTX(ATCIFSR);
 8000bc4:	f7ff faca 	bl	800015c <ESP01StrToBufTX>
		if(ESP01DbgStr != NULL)
 8000bc8:	4b3b      	ldr	r3, [pc, #236]	@ (8000cb8 <ESP01_Task+0x7f4>)
 8000bca:	681b      	ldr	r3, [r3, #0]
 8000bcc:	b10b      	cbz	r3, 8000bd2 <ESP01_Task+0x70e>
			ESP01DbgStr("+&DBGESP01CIFSR\n");
 8000bce:	4853      	ldr	r0, [pc, #332]	@ (8000d1c <ESP01_Task+0x858>)
 8000bd0:	4798      	blx	r3
		esp01Flags.bit.ATRESPONSEOK = 0;
 8000bd2:	782b      	ldrb	r3, [r5, #0]
 8000bd4:	f023 0320 	bic.w	r3, r3, #32
 8000bd8:	702b      	strb	r3, [r5, #0]
		esp01ATSate = ESP01CIFSRRESPONSE;
 8000bda:	230b      	movs	r3, #11
 8000bdc:	e6d8      	b.n	8000990 <ESP01_Task+0x4cc>
		if(esp01Flags.bit.ATRESPONSEOK)
 8000bde:	782b      	ldrb	r3, [r5, #0]
 8000be0:	069b      	lsls	r3, r3, #26
 8000be2:	d501      	bpl.n	8000be8 <ESP01_Task+0x724>
			esp01ATSate = ESP01ATCIPCLOSE;
 8000be4:	230c      	movs	r3, #12
 8000be6:	e6d3      	b.n	8000990 <ESP01_Task+0x4cc>
			esp01TriesAT--;
 8000be8:	4a49      	ldr	r2, [pc, #292]	@ (8000d10 <ESP01_Task+0x84c>)
 8000bea:	7813      	ldrb	r3, [r2, #0]
 8000bec:	3b01      	subs	r3, #1
 8000bee:	b2db      	uxtb	r3, r3
 8000bf0:	7013      	strb	r3, [r2, #0]
			if(esp01TriesAT == 0){
 8000bf2:	2b00      	cmp	r3, #0
 8000bf4:	d1a7      	bne.n	8000b46 <ESP01_Task+0x682>
			esp01ATSate = ESP01ATAT;
 8000bf6:	2301      	movs	r3, #1
 8000bf8:	e6ca      	b.n	8000990 <ESP01_Task+0x4cc>
		if(esp01RemoteIP[0] == '\0')
 8000bfa:	4b49      	ldr	r3, [pc, #292]	@ (8000d20 <ESP01_Task+0x85c>)
 8000bfc:	781b      	ldrb	r3, [r3, #0]
 8000bfe:	2b00      	cmp	r3, #0
 8000c00:	f43f aec7 	beq.w	8000992 <ESP01_Task+0x4ce>
		ESP01StrToBufTX(ATCIPCLOSE);
 8000c04:	4847      	ldr	r0, [pc, #284]	@ (8000d24 <ESP01_Task+0x860>)
 8000c06:	f7ff faa9 	bl	800015c <ESP01StrToBufTX>
		if(ESP01DbgStr != NULL)
 8000c0a:	4b2b      	ldr	r3, [pc, #172]	@ (8000cb8 <ESP01_Task+0x7f4>)
 8000c0c:	681b      	ldr	r3, [r3, #0]
 8000c0e:	b10b      	cbz	r3, 8000c14 <ESP01_Task+0x750>
			ESP01DbgStr("+&DBGESP01ATCIPCLOSE\n");
 8000c10:	4845      	ldr	r0, [pc, #276]	@ (8000d28 <ESP01_Task+0x864>)
 8000c12:	4798      	blx	r3
		esp01ATSate = ESP01ATCIPSTART;
 8000c14:	230d      	movs	r3, #13
 8000c16:	e6bb      	b.n	8000990 <ESP01_Task+0x4cc>
		ESP01StrToBufTX(ATCIPSTART);
 8000c18:	4844      	ldr	r0, [pc, #272]	@ (8000d2c <ESP01_Task+0x868>)
 8000c1a:	f7ff fa9f 	bl	800015c <ESP01StrToBufTX>
		ESP01ByteToBufTX('\"');
 8000c1e:	2022      	movs	r0, #34	@ 0x22
 8000c20:	f7ff fab6 	bl	8000190 <ESP01ByteToBufTX>
		ESP01StrToBufTX(esp01PROTO);
 8000c24:	4842      	ldr	r0, [pc, #264]	@ (8000d30 <ESP01_Task+0x86c>)
 8000c26:	f7ff fa99 	bl	800015c <ESP01StrToBufTX>
		ESP01ByteToBufTX('\"');
 8000c2a:	2022      	movs	r0, #34	@ 0x22
 8000c2c:	f7ff fab0 	bl	8000190 <ESP01ByteToBufTX>
		ESP01ByteToBufTX(',');
 8000c30:	202c      	movs	r0, #44	@ 0x2c
 8000c32:	f7ff faad 	bl	8000190 <ESP01ByteToBufTX>
		ESP01ByteToBufTX('\"');
 8000c36:	2022      	movs	r0, #34	@ 0x22
 8000c38:	f7ff faaa 	bl	8000190 <ESP01ByteToBufTX>
		ESP01StrToBufTX(esp01RemoteIP);
 8000c3c:	4838      	ldr	r0, [pc, #224]	@ (8000d20 <ESP01_Task+0x85c>)
 8000c3e:	f7ff fa8d 	bl	800015c <ESP01StrToBufTX>
		ESP01ByteToBufTX('\"');
 8000c42:	2022      	movs	r0, #34	@ 0x22
 8000c44:	f7ff faa4 	bl	8000190 <ESP01ByteToBufTX>
		ESP01ByteToBufTX(',');
 8000c48:	202c      	movs	r0, #44	@ 0x2c
 8000c4a:	f7ff faa1 	bl	8000190 <ESP01ByteToBufTX>
		ESP01StrToBufTX(esp01RemotePORT);
 8000c4e:	4839      	ldr	r0, [pc, #228]	@ (8000d34 <ESP01_Task+0x870>)
 8000c50:	f7ff fa84 	bl	800015c <ESP01StrToBufTX>
		ESP01ByteToBufTX(',');
 8000c54:	202c      	movs	r0, #44	@ 0x2c
 8000c56:	f7ff fa9b 	bl	8000190 <ESP01ByteToBufTX>
		ESP01StrToBufTX(esp01LocalPORT);
 8000c5a:	4837      	ldr	r0, [pc, #220]	@ (8000d38 <ESP01_Task+0x874>)
 8000c5c:	f7ff fa7e 	bl	800015c <ESP01StrToBufTX>
		ESP01ByteToBufTX(',');
 8000c60:	202c      	movs	r0, #44	@ 0x2c
 8000c62:	f7ff fa95 	bl	8000190 <ESP01ByteToBufTX>
		ESP01ByteToBufTX('0');
 8000c66:	2030      	movs	r0, #48	@ 0x30
 8000c68:	f7ff fa92 	bl	8000190 <ESP01ByteToBufTX>
		ESP01ByteToBufTX('\r');
 8000c6c:	200d      	movs	r0, #13
 8000c6e:	f7ff fa8f 	bl	8000190 <ESP01ByteToBufTX>
		ESP01ByteToBufTX('\n');
 8000c72:	200a      	movs	r0, #10
 8000c74:	f7ff fa8c 	bl	8000190 <ESP01ByteToBufTX>
		if(ESP01DbgStr != NULL)
 8000c78:	4b0f      	ldr	r3, [pc, #60]	@ (8000cb8 <ESP01_Task+0x7f4>)
 8000c7a:	681b      	ldr	r3, [r3, #0]
 8000c7c:	b10b      	cbz	r3, 8000c82 <ESP01_Task+0x7be>
			ESP01DbgStr("+&DBGESP01ATCIPSTART\n");
 8000c7e:	482f      	ldr	r0, [pc, #188]	@ (8000d3c <ESP01_Task+0x878>)
 8000c80:	4798      	blx	r3
		esp01Flags.bit.ATRESPONSEOK = 0;
 8000c82:	782b      	ldrb	r3, [r5, #0]
 8000c84:	f023 0360 	bic.w	r3, r3, #96	@ 0x60
 8000c88:	702b      	strb	r3, [r5, #0]
		esp01ATSate = ESP01CIPSTARTRESPONSE;
 8000c8a:	230e      	movs	r3, #14
 8000c8c:	7023      	strb	r3, [r4, #0]
		esp01TimeoutTask = 200;
 8000c8e:	23c8      	movs	r3, #200	@ 0xc8
 8000c90:	e6a4      	b.n	80009dc <ESP01_Task+0x518>
		if(esp01Flags.bit.ATRESPONSEOK)
 8000c92:	782b      	ldrb	r3, [r5, #0]
 8000c94:	069f      	lsls	r7, r3, #26
 8000c96:	f53f af51 	bmi.w	8000b3c <ESP01_Task+0x678>
 8000c9a:	e7ac      	b.n	8000bf6 <ESP01_Task+0x732>
		if(esp01WebServerMode){
 8000c9c:	4b0a      	ldr	r3, [pc, #40]	@ (8000cc8 <ESP01_Task+0x804>)
 8000c9e:	781b      	ldrb	r3, [r3, #0]
 8000ca0:	b10b      	cbz	r3, 8000ca6 <ESP01_Task+0x7e2>
			esp01TimeoutTask = 0;
 8000ca2:	2300      	movs	r3, #0
 8000ca4:	e69a      	b.n	80009dc <ESP01_Task+0x518>
		if(esp01Flags.bit.ATRESPONSEOK)
 8000ca6:	782b      	ldrb	r3, [r5, #0]
		if(esp01Flags.bit.WIFICONNECTED == 0){
 8000ca8:	0798      	lsls	r0, r3, #30
 8000caa:	d5a4      	bpl.n	8000bf6 <ESP01_Task+0x732>
		if(esp01Flags.bit.UDPTCPCONNECTED == 0){
 8000cac:	0659      	lsls	r1, r3, #25
 8000cae:	d599      	bpl.n	8000be4 <ESP01_Task+0x720>
 8000cb0:	e7f7      	b.n	8000ca2 <ESP01_Task+0x7de>
 8000cb2:	bf00      	nop
 8000cb4:	08009e49 	.word	0x08009e49
 8000cb8:	200005c8 	.word	0x200005c8
 8000cbc:	080098f6 	.word	0x080098f6
 8000cc0:	08009e3b 	.word	0x08009e3b
 8000cc4:	08009904 	.word	0x08009904
 8000cc8:	200004fa 	.word	0x200004fa
 8000ccc:	08009918 	.word	0x08009918
 8000cd0:	08009934 	.word	0x08009934
 8000cd4:	08009926 	.word	0x08009926
 8000cd8:	08009df1 	.word	0x08009df1
 8000cdc:	2000051b 	.word	0x2000051b
 8000ce0:	200004fb 	.word	0x200004fb
 8000ce4:	20000002 	.word	0x20000002
 8000ce8:	20000000 	.word	0x20000000
 8000cec:	08009948 	.word	0x08009948
 8000cf0:	08009ddd 	.word	0x08009ddd
 8000cf4:	0800995b 	.word	0x0800995b
 8000cf8:	08009dc9 	.word	0x08009dc9
 8000cfc:	0800996f 	.word	0x0800996f
 8000d00:	20000587 	.word	0x20000587
 8000d04:	08009e31 	.word	0x08009e31
 8000d08:	20000567 	.word	0x20000567
 8000d0c:	08009986 	.word	0x08009986
 8000d10:	2000026c 	.word	0x2000026c
 8000d14:	20000541 	.word	0x20000541
 8000d18:	08009e26 	.word	0x08009e26
 8000d1c:	08009999 	.word	0x08009999
 8000d20:	20000557 	.word	0x20000557
 8000d24:	08009e0b 	.word	0x08009e0b
 8000d28:	080099aa 	.word	0x080099aa
 8000d2c:	08009e19 	.word	0x08009e19
 8000d30:	20000005 	.word	0x20000005
 8000d34:	20000551 	.word	0x20000551
 8000d38:	2000053b 	.word	0x2000053b
 8000d3c:	080099c0 	.word	0x080099c0
	if(esp01irTX != esp01iwTX){
 8000d40:	4c15      	ldr	r4, [pc, #84]	@ (8000d98 <ESP01_Task+0x8d4>)
 8000d42:	4916      	ldr	r1, [pc, #88]	@ (8000d9c <ESP01_Task+0x8d8>)
 8000d44:	8822      	ldrh	r2, [r4, #0]
 8000d46:	8809      	ldrh	r1, [r1, #0]
 8000d48:	4291      	cmp	r1, r2
 8000d4a:	f43f ae38 	beq.w	80009be <ESP01_Task+0x4fa>
		value = esp01TXATBuf[esp01irTX];
 8000d4e:	4e14      	ldr	r6, [pc, #80]	@ (8000da0 <ESP01_Task+0x8dc>)
		if(esp01Flags.bit.TXCIPSEND){
 8000d50:	075f      	lsls	r7, r3, #29
		value = esp01TXATBuf[esp01irTX];
 8000d52:	5cb0      	ldrb	r0, [r6, r2]
		if(esp01Flags.bit.TXCIPSEND){
 8000d54:	d502      	bpl.n	8000d5c <ESP01_Task+0x898>
				value = '\n';
 8000d56:	283e      	cmp	r0, #62	@ 0x3e
 8000d58:	bf08      	it	eq
 8000d5a:	200a      	moveq	r0, #10
		if(esp01Handle.WriteUSARTByte(value)){
 8000d5c:	4b11      	ldr	r3, [pc, #68]	@ (8000da4 <ESP01_Task+0x8e0>)
 8000d5e:	685b      	ldr	r3, [r3, #4]
 8000d60:	4798      	blx	r3
 8000d62:	2800      	cmp	r0, #0
 8000d64:	f43f ae2b 	beq.w	80009be <ESP01_Task+0x4fa>
			if(esp01Flags.bit.TXCIPSEND){
 8000d68:	782a      	ldrb	r2, [r5, #0]
				if(esp01TXATBuf[esp01irTX] == '>'){
 8000d6a:	8823      	ldrh	r3, [r4, #0]
			if(esp01Flags.bit.TXCIPSEND){
 8000d6c:	0751      	lsls	r1, r2, #29
 8000d6e:	d50a      	bpl.n	8000d86 <ESP01_Task+0x8c2>
				if(esp01TXATBuf[esp01irTX] == '>'){
 8000d70:	5cf1      	ldrb	r1, [r6, r3]
 8000d72:	293e      	cmp	r1, #62	@ 0x3e
 8000d74:	d107      	bne.n	8000d86 <ESP01_Task+0x8c2>
					esp01TimeoutTxSymbol = 5;
 8000d76:	2105      	movs	r1, #5
					esp01Flags.bit.WAITINGSYMBOL = 1;
 8000d78:	f022 0205 	bic.w	r2, r2, #5
 8000d7c:	f042 0201 	orr.w	r2, r2, #1
 8000d80:	702a      	strb	r2, [r5, #0]
					esp01TimeoutTxSymbol = 5;
 8000d82:	4a09      	ldr	r2, [pc, #36]	@ (8000da8 <ESP01_Task+0x8e4>)
 8000d84:	6011      	str	r1, [r2, #0]
			esp01irTX++;
 8000d86:	3301      	adds	r3, #1
 8000d88:	b29b      	uxth	r3, r3
			if(esp01irTX == ESP01TXBUFAT)
 8000d8a:	f5b3 7f00 	cmp.w	r3, #512	@ 0x200
				esp01irTX = 0;
 8000d8e:	bf08      	it	eq
 8000d90:	2300      	moveq	r3, #0
 8000d92:	8023      	strh	r3, [r4, #0]
}
 8000d94:	e613      	b.n	80009be <ESP01_Task+0x4fa>
 8000d96:	bf00      	nop
 8000d98:	20000270 	.word	0x20000270
 8000d9c:	2000026e 	.word	0x2000026e
 8000da0:	20000276 	.word	0x20000276
 8000da4:	20000260 	.word	0x20000260
 8000da8:	200005d0 	.word	0x200005d0

08000dac <ESP01_AttachChangeState>:
	ESP01ChangeState = aESP01ChangeState;
 8000dac:	4b01      	ldr	r3, [pc, #4]	@ (8000db4 <ESP01_AttachChangeState+0x8>)
 8000dae:	6018      	str	r0, [r3, #0]
}
 8000db0:	4770      	bx	lr
 8000db2:	bf00      	nop
 8000db4:	200005cc 	.word	0x200005cc

08000db8 <ESP01_AttachDebugStr>:
	ESP01DbgStr = aESP01DbgStr;
 8000db8:	4b01      	ldr	r3, [pc, #4]	@ (8000dc0 <ESP01_AttachDebugStr+0x8>)
 8000dba:	6018      	str	r0, [r3, #0]
}
 8000dbc:	4770      	bx	lr
 8000dbe:	bf00      	nop
 8000dc0:	200005c8 	.word	0x200005c8

08000dc4 <USBRxData>:
}


void USBRxData(uint8_t *buf, uint32_t len) { //Recibimos datos -> Enviamos datos

	for (uint8_t nBytesRx = 0; nBytesRx < len; nBytesRx++) { //Guardamos los datos en el buffer de recepcion
 8000dc4:	2200      	movs	r2, #0
void USBRxData(uint8_t *buf, uint32_t len) { //Recibimos datos -> Enviamos datos
 8000dc6:	b5f0      	push	{r4, r5, r6, r7, lr}
		USBRx.buff[USBRx.indexW++] = buf[nBytesRx];
 8000dc8:	4b08      	ldr	r3, [pc, #32]	@ (8000dec <USBRxData+0x28>)
	for (uint8_t nBytesRx = 0; nBytesRx < len; nBytesRx++) { //Guardamos los datos en el buffer de recepcion
 8000dca:	b2d4      	uxtb	r4, r2
 8000dcc:	42a1      	cmp	r1, r4
 8000dce:	f102 0201 	add.w	r2, r2, #1
 8000dd2:	d800      	bhi.n	8000dd6 <USBRxData+0x12>
		USBRx.indexW &= USBRx.mask;
	}

}
 8000dd4:	bdf0      	pop	{r4, r5, r6, r7, pc}
		USBRx.buff[USBRx.indexW++] = buf[nBytesRx];
 8000dd6:	795d      	ldrb	r5, [r3, #5]
 8000dd8:	681e      	ldr	r6, [r3, #0]
 8000dda:	1c6f      	adds	r7, r5, #1
 8000ddc:	715f      	strb	r7, [r3, #5]
 8000dde:	5d04      	ldrb	r4, [r0, r4]
 8000de0:	5574      	strb	r4, [r6, r5]
		USBRx.indexW &= USBRx.mask;
 8000de2:	795c      	ldrb	r4, [r3, #5]
 8000de4:	79dd      	ldrb	r5, [r3, #7]
 8000de6:	402c      	ands	r4, r5
 8000de8:	715c      	strb	r4, [r3, #5]
	for (uint8_t nBytesRx = 0; nBytesRx < len; nBytesRx++) { //Guardamos los datos en el buffer de recepcion
 8000dea:	e7ee      	b.n	8000dca <USBRxData+0x6>
 8000dec:	20000c48 	.word	0x20000c48

08000df0 <OnESP01ChangeState>:
 * Cuando el WiFi se conecta (ESP01_WIFI_CONNECTED), arranca el UDP
 * automaticamente usando la IP y puerto guardados desde el formulario.
 */
void OnESP01ChangeState(_eESP01STATUS state)
{
    if(state == ESP01_WIFI_CONNECTED){
 8000df0:	2803      	cmp	r0, #3
        udpReadyToStart = 1; /* Activar flag: httpTask o do10ms iniciara el UDP */
 8000df2:	bf02      	ittt	eq
 8000df4:	2201      	moveq	r2, #1
 8000df6:	4b01      	ldreq	r3, [pc, #4]	@ (8000dfc <OnESP01ChangeState+0xc>)
 8000df8:	701a      	strbeq	r2, [r3, #0]
    }
}
 8000dfa:	4770      	bx	lr
 8000dfc:	20000618 	.word	0x20000618

08000e00 <CHPD_Control>:
    HAL_GPIO_WritePin(GPIOB, GPIO_PIN_9, state ? GPIO_PIN_SET : GPIO_PIN_RESET);
 8000e00:	1e02      	subs	r2, r0, #0
 8000e02:	bf18      	it	ne
 8000e04:	2201      	movne	r2, #1
 8000e06:	f44f 7100 	mov.w	r1, #512	@ 0x200
 8000e0a:	4801      	ldr	r0, [pc, #4]	@ (8000e10 <CHPD_Control+0x10>)
 8000e0c:	f002 bf98 	b.w	8003d40 <HAL_GPIO_WritePin>
 8000e10:	40010c00 	.word	0x40010c00

08000e14 <displayMemWrite>:
void displayMemWrite(uint8_t address, uint8_t *data, uint8_t size, uint8_t type){
 8000e14:	b51f      	push	{r0, r1, r2, r3, r4, lr}
 8000e16:	4614      	mov	r4, r2
 8000e18:	461a      	mov	r2, r3
	HAL_I2C_Mem_Write(&hi2c2, address , type, 1, data, size, HAL_MAX_DELAY);
 8000e1a:	f04f 33ff 	mov.w	r3, #4294967295
 8000e1e:	9100      	str	r1, [sp, #0]
 8000e20:	e9cd 4301 	strd	r4, r3, [sp, #4]
 8000e24:	4601      	mov	r1, r0
 8000e26:	2301      	movs	r3, #1
 8000e28:	4802      	ldr	r0, [pc, #8]	@ (8000e34 <displayMemWrite+0x20>)
 8000e2a:	f003 fa0f 	bl	800424c <HAL_I2C_Mem_Write>
}
 8000e2e:	b004      	add	sp, #16
 8000e30:	bd10      	pop	{r4, pc}
 8000e32:	bf00      	nop
 8000e34:	20000e74 	.word	0x20000e74

08000e38 <mpuMemWrite>:
void mpuMemWrite(uint8_t address, uint8_t *data, uint8_t size, uint8_t type){
 8000e38:	f7ff bfec 	b.w	8000e14 <displayMemWrite>

08000e3c <displayMemWriteDMA>:
void displayMemWriteDMA(uint8_t address, uint8_t *data, uint8_t size, uint8_t type){
 8000e3c:	b513      	push	{r0, r1, r4, lr}
 8000e3e:	4614      	mov	r4, r2
 8000e40:	461a      	mov	r2, r3
	HAL_I2C_Mem_Write_DMA(&hi2c2, address , type, 1, data, size);
 8000e42:	e9cd 1400 	strd	r1, r4, [sp]
 8000e46:	2301      	movs	r3, #1
 8000e48:	4601      	mov	r1, r0
 8000e4a:	4802      	ldr	r0, [pc, #8]	@ (8000e54 <displayMemWriteDMA+0x18>)
 8000e4c:	f003 fa8e 	bl	800436c <HAL_I2C_Mem_Write_DMA>
}
 8000e50:	b002      	add	sp, #8
 8000e52:	bd10      	pop	{r4, pc}
 8000e54:	20000e74 	.word	0x20000e74

08000e58 <mpuMemReadDMA>:
void mpuMemReadDMA(uint8_t address, uint8_t *data, uint8_t size, uint8_t type){
 8000e58:	b513      	push	{r0, r1, r4, lr}
 8000e5a:	4614      	mov	r4, r2
 8000e5c:	461a      	mov	r2, r3
	HAL_I2C_Mem_Read_DMA(&hi2c2, address , type, 1, data, size);
 8000e5e:	e9cd 1400 	strd	r1, r4, [sp]
 8000e62:	2301      	movs	r3, #1
 8000e64:	4601      	mov	r1, r0
 8000e66:	4802      	ldr	r0, [pc, #8]	@ (8000e70 <mpuMemReadDMA+0x18>)
 8000e68:	f003 fb46 	bl	80044f8 <HAL_I2C_Mem_Read_DMA>
}
 8000e6c:	b002      	add	sp, #8
 8000e6e:	bd10      	pop	{r4, pc}
 8000e70:	20000e74 	.word	0x20000e74

08000e74 <USART_SendByte>:
{
 8000e74:	b507      	push	{r0, r1, r2, lr}
    if(HAL_UART_Transmit_IT(&huart1, &byte, 1) == HAL_OK)
 8000e76:	2201      	movs	r2, #1
{
 8000e78:	f88d 0007 	strb.w	r0, [sp, #7]
    if(HAL_UART_Transmit_IT(&huart1, &byte, 1) == HAL_OK)
 8000e7c:	f10d 0107 	add.w	r1, sp, #7
 8000e80:	4803      	ldr	r0, [pc, #12]	@ (8000e90 <USART_SendByte+0x1c>)
 8000e82:	f006 f934 	bl	80070ee <HAL_UART_Transmit_IT>
}
 8000e86:	fab0 f080 	clz	r0, r0
 8000e8a:	0940      	lsrs	r0, r0, #5
 8000e8c:	b003      	add	sp, #12
 8000e8e:	bd00      	pop	{pc}
 8000e90:	20000c84 	.word	0x20000c84

08000e94 <DebugESP01_To_USB>:
void DebugESP01_To_USB(const char *msg) {
 8000e94:	b510      	push	{r4, lr}
 8000e96:	4604      	mov	r4, r0
    CDC_Transmit_FS((uint8_t*)msg, strlen(msg));
 8000e98:	f7ff f958 	bl	800014c <strlen>
 8000e9c:	b281      	uxth	r1, r0
 8000e9e:	4620      	mov	r0, r4
}
 8000ea0:	e8bd 4010 	ldmia.w	sp!, {r4, lr}
    CDC_Transmit_FS((uint8_t*)msg, strlen(msg));
 8000ea4:	f007 bdd2 	b.w	8008a4c <CDC_Transmit_FS>

08000ea8 <WiFi_Data_Callback>:
{
 8000ea8:	b510      	push	{r4, lr}
    if(isWebserverMode){
 8000eaa:	4b16      	ldr	r3, [pc, #88]	@ (8000f04 <WiFi_Data_Callback+0x5c>)
 8000eac:	781b      	ldrb	r3, [r3, #0]
 8000eae:	b1f3      	cbz	r3, 8000eee <WiFi_Data_Callback+0x46>
        if(httpBufIdx == 0xFF)
 8000eb0:	4915      	ldr	r1, [pc, #84]	@ (8000f08 <WiFi_Data_Callback+0x60>)
 8000eb2:	780c      	ldrb	r4, [r1, #0]
 8000eb4:	2cff      	cmp	r4, #255	@ 0xff
 8000eb6:	d015      	beq.n	8000ee4 <WiFi_Data_Callback+0x3c>
        if(httpBufIdx < HTTP_BUF_SIZE - 1){
 8000eb8:	2c7e      	cmp	r4, #126	@ 0x7e
 8000eba:	4b14      	ldr	r3, [pc, #80]	@ (8000f0c <WiFi_Data_Callback+0x64>)
 8000ebc:	d813      	bhi.n	8000ee6 <WiFi_Data_Callback+0x3e>
            httpBuf[httpBufIdx++] = (char)byte;
 8000ebe:	5518      	strb	r0, [r3, r4]
            httpBuf[httpBufIdx]   = '\0';
 8000ec0:	2000      	movs	r0, #0
            httpBuf[httpBufIdx++] = (char)byte;
 8000ec2:	1c62      	adds	r2, r4, #1
 8000ec4:	b2d2      	uxtb	r2, r2
            if(httpBufIdx >= 2 &&
 8000ec6:	2a01      	cmp	r2, #1
            httpBuf[httpBufIdx++] = (char)byte;
 8000ec8:	700a      	strb	r2, [r1, #0]
            httpBuf[httpBufIdx]   = '\0';
 8000eca:	5498      	strb	r0, [r3, r2]
            if(httpBufIdx >= 2 &&
 8000ecc:	d00a      	beq.n	8000ee4 <WiFi_Data_Callback+0x3c>
               httpBuf[httpBufIdx-2] == '\r' &&
 8000ece:	4413      	add	r3, r2
            if(httpBufIdx >= 2 &&
 8000ed0:	f813 2c02 	ldrb.w	r2, [r3, #-2]
 8000ed4:	2a0d      	cmp	r2, #13
 8000ed6:	d105      	bne.n	8000ee4 <WiFi_Data_Callback+0x3c>
               httpBuf[httpBufIdx-2] == '\r' &&
 8000ed8:	f813 3c01 	ldrb.w	r3, [r3, #-1]
 8000edc:	2b0a      	cmp	r3, #10
 8000ede:	d101      	bne.n	8000ee4 <WiFi_Data_Callback+0x3c>
                httpBufIdx = 0xFF; /* marcar como listo */
 8000ee0:	23ff      	movs	r3, #255	@ 0xff
 8000ee2:	700b      	strb	r3, [r1, #0]
}
 8000ee4:	bd10      	pop	{r4, pc}
            httpBufIdx = 0;
 8000ee6:	2200      	movs	r2, #0
 8000ee8:	700a      	strb	r2, [r1, #0]
            httpBuf[0] = '\0';
 8000eea:	701a      	strb	r2, [r3, #0]
 8000eec:	e7fa      	b.n	8000ee4 <WiFi_Data_Callback+0x3c>
        WiFiRx.buff[WiFiRx.indexW++] = byte;
 8000eee:	4b08      	ldr	r3, [pc, #32]	@ (8000f10 <WiFi_Data_Callback+0x68>)
 8000ef0:	795a      	ldrb	r2, [r3, #5]
 8000ef2:	6819      	ldr	r1, [r3, #0]
 8000ef4:	1c54      	adds	r4, r2, #1
 8000ef6:	715c      	strb	r4, [r3, #5]
 8000ef8:	5488      	strb	r0, [r1, r2]
        WiFiRx.indexW &= WiFiRx.mask;
 8000efa:	795a      	ldrb	r2, [r3, #5]
 8000efc:	79d9      	ldrb	r1, [r3, #7]
 8000efe:	400a      	ands	r2, r1
 8000f00:	715a      	strb	r2, [r3, #5]
 8000f02:	e7ef      	b.n	8000ee4 <WiFi_Data_Callback+0x3c>
 8000f04:	2000076d 	.word	0x2000076d
 8000f08:	2000076e 	.word	0x2000076e
 8000f0c:	2000076f 	.word	0x2000076f
 8000f10:	20000c30 	.word	0x20000c30

08000f14 <HAL_ADC_ConvCpltCallback>:
		adcDataTx[i] = adcData[i];
 8000f14:	4b05      	ldr	r3, [pc, #20]	@ (8000f2c <HAL_ADC_ConvCpltCallback+0x18>)
 8000f16:	4a06      	ldr	r2, [pc, #24]	@ (8000f30 <HAL_ADC_ConvCpltCallback+0x1c>)
 8000f18:	f103 0110 	add.w	r1, r3, #16
 8000f1c:	f853 0b04 	ldr.w	r0, [r3], #4
 8000f20:	428b      	cmp	r3, r1
 8000f22:	f842 0b04 	str.w	r0, [r2], #4
 8000f26:	d1f9      	bne.n	8000f1c <HAL_ADC_ConvCpltCallback+0x8>
}
 8000f28:	4770      	bx	lr
 8000f2a:	bf00      	nop
 8000f2c:	20000c70 	.word	0x20000c70
 8000f30:	20000c60 	.word	0x20000c60

08000f34 <HAL_I2C_MemTxCpltCallback>:
	ssd1306_TxCplt = 1;
 8000f34:	2201      	movs	r2, #1
 8000f36:	4b01      	ldr	r3, [pc, #4]	@ (8000f3c <HAL_I2C_MemTxCpltCallback+0x8>)
 8000f38:	701a      	strb	r2, [r3, #0]
}
 8000f3a:	4770      	bx	lr
 8000f3c:	20000829 	.word	0x20000829

08000f40 <HAL_I2C_MemRxCpltCallback>:
	mpu6050_RxCplt = 1;
 8000f40:	2201      	movs	r2, #1
 8000f42:	4b01      	ldr	r3, [pc, #4]	@ (8000f48 <HAL_I2C_MemRxCpltCallback+0x8>)
 8000f44:	701a      	strb	r2, [r3, #0]
}
 8000f46:	4770      	bx	lr
 8000f48:	20000828 	.word	0x20000828

08000f4c <HAL_TIM_PeriodElapsedCallback>:
void HAL_TIM_PeriodElapsedCallback(TIM_HandleTypeDef *htim) {
 8000f4c:	b538      	push	{r3, r4, r5, lr}
	if (htim->Instance == TIM1) { //250us
 8000f4e:	6802      	ldr	r2, [r0, #0]
 8000f50:	4b1a      	ldr	r3, [pc, #104]	@ (8000fbc <HAL_TIM_PeriodElapsedCallback+0x70>)
void HAL_TIM_PeriodElapsedCallback(TIM_HandleTypeDef *htim) {
 8000f52:	4604      	mov	r4, r0
	if (htim->Instance == TIM1) { //250us
 8000f54:	429a      	cmp	r2, r3
 8000f56:	d112      	bne.n	8000f7e <HAL_TIM_PeriodElapsedCallback+0x32>
		time10ms++;
 8000f58:	4a19      	ldr	r2, [pc, #100]	@ (8000fc0 <HAL_TIM_PeriodElapsedCallback+0x74>)
		HAL_ADC_Start_DMA(&hadc1, (uint32_t*) adcData, 8);
 8000f5a:	491a      	ldr	r1, [pc, #104]	@ (8000fc4 <HAL_TIM_PeriodElapsedCallback+0x78>)
		time10ms++;
 8000f5c:	7813      	ldrb	r3, [r2, #0]
		HAL_ADC_Start_DMA(&hadc1, (uint32_t*) adcData, 8);
 8000f5e:	481a      	ldr	r0, [pc, #104]	@ (8000fc8 <HAL_TIM_PeriodElapsedCallback+0x7c>)
		time10ms++;
 8000f60:	3301      	adds	r3, #1
 8000f62:	b2db      	uxtb	r3, r3
		if (time10ms == TO10MS) {
 8000f64:	2b28      	cmp	r3, #40	@ 0x28
			time10ms = 0;
 8000f66:	bf01      	itttt	eq
 8000f68:	2300      	moveq	r3, #0
 8000f6a:	7013      	strbeq	r3, [r2, #0]
			IS10MS = TRUE;
 8000f6c:	4a17      	ldreq	r2, [pc, #92]	@ (8000fcc <HAL_TIM_PeriodElapsedCallback+0x80>)
 8000f6e:	7813      	ldrbeq	r3, [r2, #0]
 8000f70:	bf08      	it	eq
 8000f72:	f043 0380 	orreq.w	r3, r3, #128	@ 0x80
 8000f76:	7013      	strb	r3, [r2, #0]
		HAL_ADC_Start_DMA(&hadc1, (uint32_t*) adcData, 8);
 8000f78:	2208      	movs	r2, #8
 8000f7a:	f002 fb07 	bl	800358c <HAL_ADC_Start_DMA>
	if (htim->Instance == TIM2) { //20ms
 8000f7e:	6823      	ldr	r3, [r4, #0]
 8000f80:	f1b3 4f80 	cmp.w	r3, #1073741824	@ 0x40000000
 8000f84:	d118      	bne.n	8000fb8 <HAL_TIM_PeriodElapsedCallback+0x6c>
		Pila[i2cIndex] = MPU6050;
 8000f86:	2201      	movs	r2, #1
 8000f88:	4911      	ldr	r1, [pc, #68]	@ (8000fd0 <HAL_TIM_PeriodElapsedCallback+0x84>)
		tmo100--;
 8000f8a:	4812      	ldr	r0, [pc, #72]	@ (8000fd4 <HAL_TIM_PeriodElapsedCallback+0x88>)
		Pila[i2cIndex] = MPU6050;
 8000f8c:	780b      	ldrb	r3, [r1, #0]
 8000f8e:	4c12      	ldr	r4, [pc, #72]	@ (8000fd8 <HAL_TIM_PeriodElapsedCallback+0x8c>)
 8000f90:	54e2      	strb	r2, [r4, r3]
		i2cIndex++;
 8000f92:	4413      	add	r3, r2
		tmo100--;
 8000f94:	7802      	ldrb	r2, [r0, #0]
		i2cIndex&=(I2CSIZE-1);
 8000f96:	f003 030f 	and.w	r3, r3, #15
		tmo100--;
 8000f9a:	3a01      	subs	r2, #1
		if(!tmo100){
 8000f9c:	f012 02ff 	ands.w	r2, r2, #255	@ 0xff
			tmo100=5;
 8000fa0:	bf08      	it	eq
 8000fa2:	2505      	moveq	r5, #5
		i2cIndex&=(I2CSIZE-1);
 8000fa4:	700b      	strb	r3, [r1, #0]
			Pila[i2cIndex] = SSD1306;
 8000fa6:	bf03      	ittte	eq
 8000fa8:	54e2      	strbeq	r2, [r4, r3]
			i2cIndex++;
 8000faa:	3301      	addeq	r3, #1
			i2cIndex&=(I2CSIZE-1);
 8000fac:	f003 030f 	andeq.w	r3, r3, #15
		tmo100--;
 8000fb0:	7002      	strbne	r2, [r0, #0]
			tmo100=5;
 8000fb2:	bf04      	itt	eq
 8000fb4:	7005      	strbeq	r5, [r0, #0]
			i2cIndex&=(I2CSIZE-1);
 8000fb6:	700b      	strbeq	r3, [r1, #0]
}
 8000fb8:	bd38      	pop	{r3, r4, r5, pc}
 8000fba:	bf00      	nop
 8000fbc:	40012c00 	.word	0x40012c00
 8000fc0:	20000c80 	.word	0x20000c80
 8000fc4:	20000c70 	.word	0x20000c70
 8000fc8:	20000f0c 	.word	0x20000f0c
 8000fcc:	2000082a 	.word	0x2000082a
 8000fd0:	2000080b 	.word	0x2000080b
 8000fd4:	20000034 	.word	0x20000034
 8000fd8:	2000080c 	.word	0x2000080c

08000fdc <decodeCommand>:
void decodeCommand(_sComm *dataRx, _sComm *dataTx) {
 8000fdc:	b5f0      	push	{r4, r5, r6, r7, lr}
	switch (dataRx->buff[dataRx->indexData]) {
 8000fde:	6802      	ldr	r2, [r0, #0]
 8000fe0:	7983      	ldrb	r3, [r0, #6]
void decodeCommand(_sComm *dataRx, _sComm *dataTx) {
 8000fe2:	460c      	mov	r4, r1
	switch (dataRx->buff[dataRx->indexData]) {
 8000fe4:	5cd1      	ldrb	r1, [r2, r3]
void decodeCommand(_sComm *dataRx, _sComm *dataTx) {
 8000fe6:	4605      	mov	r5, r0
	switch (dataRx->buff[dataRx->indexData]) {
 8000fe8:	f1a1 03f0 	sub.w	r3, r1, #240	@ 0xf0
void decodeCommand(_sComm *dataRx, _sComm *dataTx) {
 8000fec:	b08d      	sub	sp, #52	@ 0x34
	switch (dataRx->buff[dataRx->indexData]) {
 8000fee:	2b09      	cmp	r3, #9
 8000ff0:	f200 8229 	bhi.w	8001446 <decodeCommand+0x46a>
 8000ff4:	e8df f013 	tbh	[pc, r3, lsl #1]
 8000ff8:	0014000a 	.word	0x0014000a
 8000ffc:	00700024 	.word	0x00700024
 8001000:	00ef00bf 	.word	0x00ef00bf
 8001004:	0149012b 	.word	0x0149012b
 8001008:	01c20227 	.word	0x01c20227
		unerPrtcl_PutHeaderOnTx(dataTx, ALIVE, 2);
 800100c:	21f0      	movs	r1, #240	@ 0xf0
 800100e:	2202      	movs	r2, #2
 8001010:	4620      	mov	r0, r4
 8001012:	f001 ffda 	bl	8002fca <unerPrtcl_PutHeaderOnTx>
		unerPrtcl_PutByteOnTx(dataTx, ACK);
 8001016:	210d      	movs	r1, #13
		unerPrtcl_PutByteOnTx(dataTx, UNKNOWN);
 8001018:	4620      	mov	r0, r4
 800101a:	f002 f81e 	bl	800305a <unerPrtcl_PutByteOnTx>
 800101e:	e008      	b.n	8001032 <decodeCommand+0x56>
		unerPrtcl_PutHeaderOnTx(dataTx, FIRMWARE, 13);
 8001020:	21f1      	movs	r1, #241	@ 0xf1
 8001022:	220d      	movs	r2, #13
 8001024:	4620      	mov	r0, r4
 8001026:	f001 ffd0 	bl	8002fca <unerPrtcl_PutHeaderOnTx>
		unerPrtcl_PutStrOntx(dataTx, firmware);
 800102a:	4620      	mov	r0, r4
 800102c:	49bd      	ldr	r1, [pc, #756]	@ (8001324 <decodeCommand+0x348>)
 800102e:	f002 f827 	bl	8003080 <unerPrtcl_PutStrOntx>
		unerPrtcl_PutByteOnTx(dataTx, dataTx->chk);
 8001032:	4620      	mov	r0, r4
 8001034:	7a21      	ldrb	r1, [r4, #8]
}
 8001036:	b00d      	add	sp, #52	@ 0x34
 8001038:	e8bd 40f0 	ldmia.w	sp!, {r4, r5, r6, r7, lr}
		unerPrtcl_PutByteOnTx(dataTx, dataTx->chk);
 800103c:	f002 b80d 	b.w	800305a <unerPrtcl_PutByteOnTx>
		unerPrtcl_PutHeaderOnTx(dataTx, GETMPU, 13);
 8001040:	220d      	movs	r2, #13
 8001042:	21f2      	movs	r1, #242	@ 0xf2
 8001044:	4620      	mov	r0, r4
 8001046:	f001 ffc0 	bl	8002fca <unerPrtcl_PutHeaderOnTx>
		myWord.i16[0] = ax;
 800104a:	4bb7      	ldr	r3, [pc, #732]	@ (8001328 <decodeCommand+0x34c>)
 800104c:	4db7      	ldr	r5, [pc, #732]	@ (800132c <decodeCommand+0x350>)
 800104e:	f9b3 1000 	ldrsh.w	r1, [r3]
		unerPrtcl_PutByteOnTx(dataTx, myWord.ui8[0]);
 8001052:	4620      	mov	r0, r4
		myWord.i16[0] = ax;
 8001054:	8029      	strh	r1, [r5, #0]
		unerPrtcl_PutByteOnTx(dataTx, myWord.ui8[0]);
 8001056:	b2c9      	uxtb	r1, r1
 8001058:	f001 ffff 	bl	800305a <unerPrtcl_PutByteOnTx>
		unerPrtcl_PutByteOnTx(dataTx, myWord.ui8[1]);
 800105c:	7869      	ldrb	r1, [r5, #1]
 800105e:	4620      	mov	r0, r4
 8001060:	f001 fffb 	bl	800305a <unerPrtcl_PutByteOnTx>
		myWord.i16[0] = ay;
 8001064:	4bb2      	ldr	r3, [pc, #712]	@ (8001330 <decodeCommand+0x354>)
		unerPrtcl_PutByteOnTx(dataTx, myWord.ui8[0]);
 8001066:	4620      	mov	r0, r4
		myWord.i16[0] = ay;
 8001068:	f9b3 1000 	ldrsh.w	r1, [r3]
 800106c:	8029      	strh	r1, [r5, #0]
		unerPrtcl_PutByteOnTx(dataTx, myWord.ui8[0]);
 800106e:	b2c9      	uxtb	r1, r1
 8001070:	f001 fff3 	bl	800305a <unerPrtcl_PutByteOnTx>
		unerPrtcl_PutByteOnTx(dataTx, myWord.ui8[1]);
 8001074:	7869      	ldrb	r1, [r5, #1]
 8001076:	4620      	mov	r0, r4
 8001078:	f001 ffef 	bl	800305a <unerPrtcl_PutByteOnTx>
		myWord.i16[0] = az;
 800107c:	4bad      	ldr	r3, [pc, #692]	@ (8001334 <decodeCommand+0x358>)
		unerPrtcl_PutByteOnTx(dataTx, myWord.ui8[0]);
 800107e:	4620      	mov	r0, r4
		myWord.i16[0] = az;
 8001080:	f9b3 1000 	ldrsh.w	r1, [r3]
 8001084:	8029      	strh	r1, [r5, #0]
		unerPrtcl_PutByteOnTx(dataTx, myWord.ui8[0]);
 8001086:	b2c9      	uxtb	r1, r1
 8001088:	f001 ffe7 	bl	800305a <unerPrtcl_PutByteOnTx>
		unerPrtcl_PutByteOnTx(dataTx, myWord.ui8[1]);
 800108c:	7869      	ldrb	r1, [r5, #1]
 800108e:	4620      	mov	r0, r4
 8001090:	f001 ffe3 	bl	800305a <unerPrtcl_PutByteOnTx>
		myWord.i16[0] = gx;
 8001094:	4ba8      	ldr	r3, [pc, #672]	@ (8001338 <decodeCommand+0x35c>)
		unerPrtcl_PutByteOnTx(dataTx, myWord.ui8[0]);
 8001096:	4620      	mov	r0, r4
		myWord.i16[0] = gx;
 8001098:	f9b3 1000 	ldrsh.w	r1, [r3]
 800109c:	8029      	strh	r1, [r5, #0]
		unerPrtcl_PutByteOnTx(dataTx, myWord.ui8[0]);
 800109e:	b2c9      	uxtb	r1, r1
 80010a0:	f001 ffdb 	bl	800305a <unerPrtcl_PutByteOnTx>
		unerPrtcl_PutByteOnTx(dataTx, myWord.ui8[1]);
 80010a4:	7869      	ldrb	r1, [r5, #1]
 80010a6:	4620      	mov	r0, r4
 80010a8:	f001 ffd7 	bl	800305a <unerPrtcl_PutByteOnTx>
		myWord.i16[0] = gy;
 80010ac:	4ba3      	ldr	r3, [pc, #652]	@ (800133c <decodeCommand+0x360>)
		unerPrtcl_PutByteOnTx(dataTx, myWord.ui8[0]);
 80010ae:	4620      	mov	r0, r4
		myWord.i16[0] = gy;
 80010b0:	f9b3 1000 	ldrsh.w	r1, [r3]
 80010b4:	8029      	strh	r1, [r5, #0]
		unerPrtcl_PutByteOnTx(dataTx, myWord.ui8[0]);
 80010b6:	b2c9      	uxtb	r1, r1
 80010b8:	f001 ffcf 	bl	800305a <unerPrtcl_PutByteOnTx>
		unerPrtcl_PutByteOnTx(dataTx, myWord.ui8[1]);
 80010bc:	7869      	ldrb	r1, [r5, #1]
 80010be:	4620      	mov	r0, r4
 80010c0:	f001 ffcb 	bl	800305a <unerPrtcl_PutByteOnTx>
		myWord.i16[0] = gz;
 80010c4:	4b9e      	ldr	r3, [pc, #632]	@ (8001340 <decodeCommand+0x364>)
 80010c6:	f9b3 1000 	ldrsh.w	r1, [r3]
		myWord.ui16[0] = adcDataTx[7];
 80010ca:	8029      	strh	r1, [r5, #0]
		unerPrtcl_PutByteOnTx(dataTx, myWord.ui8[0]);
 80010cc:	4620      	mov	r0, r4
 80010ce:	b2c9      	uxtb	r1, r1
 80010d0:	f001 ffc3 	bl	800305a <unerPrtcl_PutByteOnTx>
		unerPrtcl_PutByteOnTx(dataTx, myWord.ui8[1]);
 80010d4:	7869      	ldrb	r1, [r5, #1]
 80010d6:	e79f      	b.n	8001018 <decodeCommand+0x3c>
		myWord.ui16[0] = adcDataTx[0];
 80010d8:	4e9a      	ldr	r6, [pc, #616]	@ (8001344 <decodeCommand+0x368>)
		unerPrtcl_PutHeaderOnTx(dataTx, GETADC, 17);
 80010da:	2211      	movs	r2, #17
 80010dc:	21f3      	movs	r1, #243	@ 0xf3
 80010de:	4620      	mov	r0, r4
 80010e0:	f001 ff73 	bl	8002fca <unerPrtcl_PutHeaderOnTx>
		myWord.ui16[0] = adcDataTx[0];
 80010e4:	4d91      	ldr	r5, [pc, #580]	@ (800132c <decodeCommand+0x350>)
 80010e6:	8831      	ldrh	r1, [r6, #0]
		unerPrtcl_PutByteOnTx(dataTx, myWord.ui8[0]);
 80010e8:	4620      	mov	r0, r4
		myWord.ui16[0] = adcDataTx[0];
 80010ea:	8029      	strh	r1, [r5, #0]
		unerPrtcl_PutByteOnTx(dataTx, myWord.ui8[0]);
 80010ec:	b2c9      	uxtb	r1, r1
 80010ee:	f001 ffb4 	bl	800305a <unerPrtcl_PutByteOnTx>
		unerPrtcl_PutByteOnTx(dataTx, myWord.ui8[1]);
 80010f2:	7869      	ldrb	r1, [r5, #1]
 80010f4:	4620      	mov	r0, r4
 80010f6:	f001 ffb0 	bl	800305a <unerPrtcl_PutByteOnTx>
		myWord.ui16[0] = adcDataTx[1];
 80010fa:	8871      	ldrh	r1, [r6, #2]
		unerPrtcl_PutByteOnTx(dataTx, myWord.ui8[0]);
 80010fc:	4620      	mov	r0, r4
		myWord.ui16[0] = adcDataTx[1];
 80010fe:	8029      	strh	r1, [r5, #0]
		unerPrtcl_PutByteOnTx(dataTx, myWord.ui8[0]);
 8001100:	b2c9      	uxtb	r1, r1
 8001102:	f001 ffaa 	bl	800305a <unerPrtcl_PutByteOnTx>
		unerPrtcl_PutByteOnTx(dataTx, myWord.ui8[1]);
 8001106:	7869      	ldrb	r1, [r5, #1]
 8001108:	4620      	mov	r0, r4
 800110a:	f001 ffa6 	bl	800305a <unerPrtcl_PutByteOnTx>
		myWord.ui16[0] = adcDataTx[2];
 800110e:	88b1      	ldrh	r1, [r6, #4]
		unerPrtcl_PutByteOnTx(dataTx, myWord.ui8[0]);
 8001110:	4620      	mov	r0, r4
		myWord.ui16[0] = adcDataTx[2];
 8001112:	8029      	strh	r1, [r5, #0]
		unerPrtcl_PutByteOnTx(dataTx, myWord.ui8[0]);
 8001114:	b2c9      	uxtb	r1, r1
 8001116:	f001 ffa0 	bl	800305a <unerPrtcl_PutByteOnTx>
		unerPrtcl_PutByteOnTx(dataTx, myWord.ui8[1]);
 800111a:	7869      	ldrb	r1, [r5, #1]
 800111c:	4620      	mov	r0, r4
 800111e:	f001 ff9c 	bl	800305a <unerPrtcl_PutByteOnTx>
		myWord.ui16[0] = adcDataTx[3];
 8001122:	88f1      	ldrh	r1, [r6, #6]
		unerPrtcl_PutByteOnTx(dataTx, myWord.ui8[0]);
 8001124:	4620      	mov	r0, r4
		myWord.ui16[0] = adcDataTx[3];
 8001126:	8029      	strh	r1, [r5, #0]
		unerPrtcl_PutByteOnTx(dataTx, myWord.ui8[0]);
 8001128:	b2c9      	uxtb	r1, r1
 800112a:	f001 ff96 	bl	800305a <unerPrtcl_PutByteOnTx>
		unerPrtcl_PutByteOnTx(dataTx, myWord.ui8[1]);
 800112e:	7869      	ldrb	r1, [r5, #1]
 8001130:	4620      	mov	r0, r4
 8001132:	f001 ff92 	bl	800305a <unerPrtcl_PutByteOnTx>
		myWord.ui16[0] = adcDataTx[4];
 8001136:	8931      	ldrh	r1, [r6, #8]
		unerPrtcl_PutByteOnTx(dataTx, myWord.ui8[0]);
 8001138:	4620      	mov	r0, r4
		myWord.ui16[0] = adcDataTx[4];
 800113a:	8029      	strh	r1, [r5, #0]
		unerPrtcl_PutByteOnTx(dataTx, myWord.ui8[0]);
 800113c:	b2c9      	uxtb	r1, r1
 800113e:	f001 ff8c 	bl	800305a <unerPrtcl_PutByteOnTx>
		unerPrtcl_PutByteOnTx(dataTx, myWord.ui8[1]);
 8001142:	7869      	ldrb	r1, [r5, #1]
 8001144:	4620      	mov	r0, r4
 8001146:	f001 ff88 	bl	800305a <unerPrtcl_PutByteOnTx>
		myWord.ui16[0] = adcDataTx[5];
 800114a:	8971      	ldrh	r1, [r6, #10]
		unerPrtcl_PutByteOnTx(dataTx, myWord.ui8[0]);
 800114c:	4620      	mov	r0, r4
		myWord.ui16[0] = adcDataTx[5];
 800114e:	8029      	strh	r1, [r5, #0]
		unerPrtcl_PutByteOnTx(dataTx, myWord.ui8[0]);
 8001150:	b2c9      	uxtb	r1, r1
 8001152:	f001 ff82 	bl	800305a <unerPrtcl_PutByteOnTx>
		unerPrtcl_PutByteOnTx(dataTx, myWord.ui8[1]);
 8001156:	7869      	ldrb	r1, [r5, #1]
 8001158:	4620      	mov	r0, r4
 800115a:	f001 ff7e 	bl	800305a <unerPrtcl_PutByteOnTx>
		myWord.ui16[0] = adcDataTx[6];
 800115e:	89b1      	ldrh	r1, [r6, #12]
		unerPrtcl_PutByteOnTx(dataTx, myWord.ui8[0]);
 8001160:	4620      	mov	r0, r4
		myWord.ui16[0] = adcDataTx[6];
 8001162:	8029      	strh	r1, [r5, #0]
		unerPrtcl_PutByteOnTx(dataTx, myWord.ui8[0]);
 8001164:	b2c9      	uxtb	r1, r1
 8001166:	f001 ff78 	bl	800305a <unerPrtcl_PutByteOnTx>
		unerPrtcl_PutByteOnTx(dataTx, myWord.ui8[1]);
 800116a:	7869      	ldrb	r1, [r5, #1]
 800116c:	4620      	mov	r0, r4
 800116e:	f001 ff74 	bl	800305a <unerPrtcl_PutByteOnTx>
		myWord.ui16[0] = adcDataTx[7];
 8001172:	89f1      	ldrh	r1, [r6, #14]
 8001174:	e7a9      	b.n	80010ca <decodeCommand+0xee>
        unerPrtcl_PutHeaderOnTx(dataTx, SETPWM, 2);
 8001176:	2202      	movs	r2, #2
 8001178:	21f4      	movs	r1, #244	@ 0xf4
 800117a:	4620      	mov	r0, r4
 800117c:	f001 ff25 	bl	8002fca <unerPrtcl_PutHeaderOnTx>
        unerPrtcl_PutByteOnTx(dataTx, ACK );
 8001180:	210d      	movs	r1, #13
 8001182:	4620      	mov	r0, r4
 8001184:	f001 ff69 	bl	800305a <unerPrtcl_PutByteOnTx>
        unerPrtcl_PutByteOnTx(dataTx, dataTx->chk);
 8001188:	7a21      	ldrb	r1, [r4, #8]
 800118a:	4620      	mov	r0, r4
 800118c:	f001 ff65 	bl	800305a <unerPrtcl_PutByteOnTx>
        myWord.ui8[0]=unerPrtcl_GetByteFromRx(dataRx,1,0);
 8001190:	2200      	movs	r2, #0
 8001192:	2101      	movs	r1, #1
 8001194:	4628      	mov	r0, r5
 8001196:	f001 ff98 	bl	80030ca <unerPrtcl_GetByteFromRx>
 800119a:	4c64      	ldr	r4, [pc, #400]	@ (800132c <decodeCommand+0x350>)
        chnl_1 = myWord.ui8[0];
 800119c:	4b6a      	ldr	r3, [pc, #424]	@ (8001348 <decodeCommand+0x36c>)
        myWord.ui8[0]=unerPrtcl_GetByteFromRx(dataRx,1,0);
 800119e:	2200      	movs	r2, #0
        chnl_1 = myWord.ui8[0];
 80011a0:	7018      	strb	r0, [r3, #0]
        myWord.ui8[0]=unerPrtcl_GetByteFromRx(dataRx,1,0);
 80011a2:	2101      	movs	r1, #1
        myWord.ui8[0]=unerPrtcl_GetByteFromRx(dataRx,1,0);
 80011a4:	7020      	strb	r0, [r4, #0]
        myWord.ui8[0]=unerPrtcl_GetByteFromRx(dataRx,1,0);
 80011a6:	4628      	mov	r0, r5
 80011a8:	f001 ff8f 	bl	80030ca <unerPrtcl_GetByteFromRx>
        chnl_2 = myWord.ui8[0];
 80011ac:	4b67      	ldr	r3, [pc, #412]	@ (800134c <decodeCommand+0x370>)
        myWord.ui8[0]=unerPrtcl_GetByteFromRx(dataRx,1,0);
 80011ae:	2200      	movs	r2, #0
        chnl_2 = myWord.ui8[0];
 80011b0:	7018      	strb	r0, [r3, #0]
        myWord.ui8[0]=unerPrtcl_GetByteFromRx(dataRx,1,0);
 80011b2:	2101      	movs	r1, #1
        myWord.ui8[0]=unerPrtcl_GetByteFromRx(dataRx,1,0);
 80011b4:	7020      	strb	r0, [r4, #0]
        myWord.ui8[0]=unerPrtcl_GetByteFromRx(dataRx,1,0);
 80011b6:	4628      	mov	r0, r5
 80011b8:	f001 ff87 	bl	80030ca <unerPrtcl_GetByteFromRx>
        chnl_3 = myWord.ui8[0];
 80011bc:	4b64      	ldr	r3, [pc, #400]	@ (8001350 <decodeCommand+0x374>)
        myWord.ui8[0]=unerPrtcl_GetByteFromRx(dataRx,1,0);
 80011be:	7020      	strb	r0, [r4, #0]
        chnl_3 = myWord.ui8[0];
 80011c0:	7018      	strb	r0, [r3, #0]
        myWord.ui8[0]=unerPrtcl_GetByteFromRx(dataRx,1,0);
 80011c2:	2200      	movs	r2, #0
 80011c4:	2101      	movs	r1, #1
 80011c6:	4628      	mov	r0, r5
 80011c8:	f001 ff7f 	bl	80030ca <unerPrtcl_GetByteFromRx>
        chnl_4 = myWord.ui8[0];
 80011cc:	4b61      	ldr	r3, [pc, #388]	@ (8001354 <decodeCommand+0x378>)
        myWord.ui8[0]=unerPrtcl_GetByteFromRx(dataRx,1,0);
 80011ce:	7020      	strb	r0, [r4, #0]
        minPWM = myWord.ui8[0];
 80011d0:	7018      	strb	r0, [r3, #0]
}
 80011d2:	b00d      	add	sp, #52	@ 0x34
 80011d4:	bdf0      	pop	{r4, r5, r6, r7, pc}
        unerPrtcl_PutHeaderOnTx(dataTx, SETPID, 2);
 80011d6:	2202      	movs	r2, #2
 80011d8:	21f5      	movs	r1, #245	@ 0xf5
 80011da:	4620      	mov	r0, r4
 80011dc:	f001 fef5 	bl	8002fca <unerPrtcl_PutHeaderOnTx>
        unerPrtcl_PutByteOnTx(dataTx, ACK );
 80011e0:	210d      	movs	r1, #13
 80011e2:	4620      	mov	r0, r4
 80011e4:	f001 ff39 	bl	800305a <unerPrtcl_PutByteOnTx>
        unerPrtcl_PutByteOnTx(dataTx, dataTx->chk);
 80011e8:	7a21      	ldrb	r1, [r4, #8]
 80011ea:	4620      	mov	r0, r4
 80011ec:	f001 ff35 	bl	800305a <unerPrtcl_PutByteOnTx>
        myWord.ui8[0]=unerPrtcl_GetByteFromRx(dataRx,1,0);
 80011f0:	2200      	movs	r2, #0
 80011f2:	2101      	movs	r1, #1
 80011f4:	4628      	mov	r0, r5
 80011f6:	f001 ff68 	bl	80030ca <unerPrtcl_GetByteFromRx>
 80011fa:	4c4c      	ldr	r4, [pc, #304]	@ (800132c <decodeCommand+0x350>)
        myWord.ui8[1]=unerPrtcl_GetByteFromRx(dataRx,1,0);
 80011fc:	2200      	movs	r2, #0
 80011fe:	2101      	movs	r1, #1
        myWord.ui8[0]=unerPrtcl_GetByteFromRx(dataRx,1,0);
 8001200:	7020      	strb	r0, [r4, #0]
        myWord.ui8[1]=unerPrtcl_GetByteFromRx(dataRx,1,0);
 8001202:	4628      	mov	r0, r5
 8001204:	f001 ff61 	bl	80030ca <unerPrtcl_GetByteFromRx>
 8001208:	7060      	strb	r0, [r4, #1]
        Kp_stable = myWord.ui16[0];
 800120a:	4b53      	ldr	r3, [pc, #332]	@ (8001358 <decodeCommand+0x37c>)
 800120c:	8822      	ldrh	r2, [r4, #0]
        myWord.ui8[0]=unerPrtcl_GetByteFromRx(dataRx,1,0);
 800120e:	2101      	movs	r1, #1
        Kp_stable = myWord.ui16[0];
 8001210:	801a      	strh	r2, [r3, #0]
        myWord.ui8[0]=unerPrtcl_GetByteFromRx(dataRx,1,0);
 8001212:	4628      	mov	r0, r5
 8001214:	2200      	movs	r2, #0
 8001216:	f001 ff58 	bl	80030ca <unerPrtcl_GetByteFromRx>
        myWord.ui8[1]=unerPrtcl_GetByteFromRx(dataRx,1,0);
 800121a:	2200      	movs	r2, #0
 800121c:	2101      	movs	r1, #1
        myWord.ui8[0]=unerPrtcl_GetByteFromRx(dataRx,1,0);
 800121e:	7020      	strb	r0, [r4, #0]
        myWord.ui8[1]=unerPrtcl_GetByteFromRx(dataRx,1,0);
 8001220:	4628      	mov	r0, r5
 8001222:	f001 ff52 	bl	80030ca <unerPrtcl_GetByteFromRx>
 8001226:	7060      	strb	r0, [r4, #1]
        Kd_stable = myWord.ui16[0];
 8001228:	4b4c      	ldr	r3, [pc, #304]	@ (800135c <decodeCommand+0x380>)
 800122a:	8822      	ldrh	r2, [r4, #0]
        myWord.ui8[0]=unerPrtcl_GetByteFromRx(dataRx,1,0);
 800122c:	2101      	movs	r1, #1
        Kd_stable = myWord.ui16[0];
 800122e:	801a      	strh	r2, [r3, #0]
        myWord.ui8[0]=unerPrtcl_GetByteFromRx(dataRx,1,0);
 8001230:	4628      	mov	r0, r5
 8001232:	2200      	movs	r2, #0
 8001234:	f001 ff49 	bl	80030ca <unerPrtcl_GetByteFromRx>
        myWord.ui8[1]=unerPrtcl_GetByteFromRx(dataRx,1,0);
 8001238:	2200      	movs	r2, #0
        myWord.ui8[0]=unerPrtcl_GetByteFromRx(dataRx,1,0);
 800123a:	7020      	strb	r0, [r4, #0]
        myWord.ui8[1]=unerPrtcl_GetByteFromRx(dataRx,1,0);
 800123c:	2101      	movs	r1, #1
 800123e:	4628      	mov	r0, r5
 8001240:	f001 ff43 	bl	80030ca <unerPrtcl_GetByteFromRx>
 8001244:	7060      	strb	r0, [r4, #1]
        Ki_stable = myWord.ui16[0];
 8001246:	8822      	ldrh	r2, [r4, #0]
 8001248:	4b45      	ldr	r3, [pc, #276]	@ (8001360 <decodeCommand+0x384>)
		customSpeed = myWord.i16[0];
 800124a:	801a      	strh	r2, [r3, #0]
		break;
 800124c:	e7c1      	b.n	80011d2 <decodeCommand+0x1f6>
        unerPrtcl_PutHeaderOnTx(dataTx, SETPWMLIMIT, 2);
 800124e:	2202      	movs	r2, #2
 8001250:	21f6      	movs	r1, #246	@ 0xf6
 8001252:	4620      	mov	r0, r4
 8001254:	f001 feb9 	bl	8002fca <unerPrtcl_PutHeaderOnTx>
        unerPrtcl_PutByteOnTx(dataTx, ACK );
 8001258:	210d      	movs	r1, #13
 800125a:	4620      	mov	r0, r4
 800125c:	f001 fefd 	bl	800305a <unerPrtcl_PutByteOnTx>
        unerPrtcl_PutByteOnTx(dataTx, dataTx->chk);
 8001260:	7a21      	ldrb	r1, [r4, #8]
 8001262:	4620      	mov	r0, r4
 8001264:	f001 fef9 	bl	800305a <unerPrtcl_PutByteOnTx>
        myWord.ui8[0]=unerPrtcl_GetByteFromRx(dataRx,1,0);
 8001268:	2200      	movs	r2, #0
 800126a:	2101      	movs	r1, #1
 800126c:	4628      	mov	r0, r5
 800126e:	f001 ff2c 	bl	80030ca <unerPrtcl_GetByteFromRx>
 8001272:	4c2e      	ldr	r4, [pc, #184]	@ (800132c <decodeCommand+0x350>)
        maxPWM = myWord.ui8[0];
 8001274:	4b3b      	ldr	r3, [pc, #236]	@ (8001364 <decodeCommand+0x388>)
        myWord.ui8[0]=unerPrtcl_GetByteFromRx(dataRx,1,0);
 8001276:	7020      	strb	r0, [r4, #0]
        maxPWM = myWord.ui8[0];
 8001278:	7018      	strb	r0, [r3, #0]
        myWord.ui8[0]=unerPrtcl_GetByteFromRx(dataRx,1,0);
 800127a:	2200      	movs	r2, #0
 800127c:	2101      	movs	r1, #1
 800127e:	4628      	mov	r0, r5
 8001280:	f001 ff23 	bl	80030ca <unerPrtcl_GetByteFromRx>
        minPWM = myWord.ui8[0];
 8001284:	4b38      	ldr	r3, [pc, #224]	@ (8001368 <decodeCommand+0x38c>)
        myWord.ui8[0]=unerPrtcl_GetByteFromRx(dataRx,1,0);
 8001286:	7020      	strb	r0, [r4, #0]
        minPWM = myWord.ui8[0];
 8001288:	e7a2      	b.n	80011d0 <decodeCommand+0x1f4>
		unerPrtcl_PutHeaderOnTx(dataTx, SETSPEED, 2);
 800128a:	2202      	movs	r2, #2
 800128c:	21f7      	movs	r1, #247	@ 0xf7
 800128e:	4620      	mov	r0, r4
 8001290:	f001 fe9b 	bl	8002fca <unerPrtcl_PutHeaderOnTx>
		unerPrtcl_PutByteOnTx(dataTx, ACK);
 8001294:	210d      	movs	r1, #13
 8001296:	4620      	mov	r0, r4
 8001298:	f001 fedf 	bl	800305a <unerPrtcl_PutByteOnTx>
		unerPrtcl_PutByteOnTx(dataTx, dataTx->chk);
 800129c:	7a21      	ldrb	r1, [r4, #8]
 800129e:	4620      	mov	r0, r4
 80012a0:	f001 fedb 	bl	800305a <unerPrtcl_PutByteOnTx>
		myWord.i8[0] = unerPrtcl_GetByteFromRx(dataRx, 1, 0);
 80012a4:	2200      	movs	r2, #0
 80012a6:	2101      	movs	r1, #1
 80012a8:	4628      	mov	r0, r5
 80012aa:	f001 ff0e 	bl	80030ca <unerPrtcl_GetByteFromRx>
 80012ae:	4c1f      	ldr	r4, [pc, #124]	@ (800132c <decodeCommand+0x350>)
		myWord.i8[1] = unerPrtcl_GetByteFromRx(dataRx, 1, 0);
 80012b0:	2200      	movs	r2, #0
 80012b2:	2101      	movs	r1, #1
		myWord.i8[0] = unerPrtcl_GetByteFromRx(dataRx, 1, 0);
 80012b4:	7020      	strb	r0, [r4, #0]
		myWord.i8[1] = unerPrtcl_GetByteFromRx(dataRx, 1, 0);
 80012b6:	4628      	mov	r0, r5
 80012b8:	f001 ff07 	bl	80030ca <unerPrtcl_GetByteFromRx>
 80012bc:	7060      	strb	r0, [r4, #1]
		ramp_step = myWord.i16[0];
 80012be:	4b2b      	ldr	r3, [pc, #172]	@ (800136c <decodeCommand+0x390>)
 80012c0:	f9b4 2000 	ldrsh.w	r2, [r4]
		myWord.i8[0] = unerPrtcl_GetByteFromRx(dataRx, 1, 0);
 80012c4:	2101      	movs	r1, #1
		ramp_step = myWord.i16[0];
 80012c6:	601a      	str	r2, [r3, #0]
		myWord.i8[0] = unerPrtcl_GetByteFromRx(dataRx, 1, 0);
 80012c8:	4628      	mov	r0, r5
 80012ca:	2200      	movs	r2, #0
 80012cc:	f001 fefd 	bl	80030ca <unerPrtcl_GetByteFromRx>
		myWord.i8[1] = unerPrtcl_GetByteFromRx(dataRx, 1, 0);
 80012d0:	2200      	movs	r2, #0
 80012d2:	2101      	movs	r1, #1
		myWord.i8[0] = unerPrtcl_GetByteFromRx(dataRx, 1, 0);
 80012d4:	7020      	strb	r0, [r4, #0]
		myWord.i8[1] = unerPrtcl_GetByteFromRx(dataRx, 1, 0);
 80012d6:	4628      	mov	r0, r5
 80012d8:	f001 fef7 	bl	80030ca <unerPrtcl_GetByteFromRx>
 80012dc:	7060      	strb	r0, [r4, #1]
		max_offset = myWord.i16[0];
 80012de:	4b24      	ldr	r3, [pc, #144]	@ (8001370 <decodeCommand+0x394>)
 80012e0:	f9b4 2000 	ldrsh.w	r2, [r4]
		myWord.i8[0] = unerPrtcl_GetByteFromRx(dataRx, 1, 0);
 80012e4:	2101      	movs	r1, #1
		max_offset = myWord.i16[0];
 80012e6:	601a      	str	r2, [r3, #0]
		myWord.i8[0] = unerPrtcl_GetByteFromRx(dataRx, 1, 0);
 80012e8:	4628      	mov	r0, r5
 80012ea:	2200      	movs	r2, #0
 80012ec:	f001 feed 	bl	80030ca <unerPrtcl_GetByteFromRx>
		myWord.i8[1] = unerPrtcl_GetByteFromRx(dataRx, 1, 0);
 80012f0:	2200      	movs	r2, #0
 80012f2:	2101      	movs	r1, #1
		myWord.i8[0] = unerPrtcl_GetByteFromRx(dataRx, 1, 0);
 80012f4:	7020      	strb	r0, [r4, #0]
		myWord.i8[1] = unerPrtcl_GetByteFromRx(dataRx, 1, 0);
 80012f6:	4628      	mov	r0, r5
 80012f8:	f001 fee7 	bl	80030ca <unerPrtcl_GetByteFromRx>
 80012fc:	7060      	strb	r0, [r4, #1]
		setpoint = (int32_t) myWord.i16[0];
 80012fe:	4b1d      	ldr	r3, [pc, #116]	@ (8001374 <decodeCommand+0x398>)
 8001300:	f9b4 2000 	ldrsh.w	r2, [r4]
		myWord.i8[0] = unerPrtcl_GetByteFromRx(dataRx, 1, 0);
 8001304:	2101      	movs	r1, #1
		setpoint = (int32_t) myWord.i16[0];
 8001306:	601a      	str	r2, [r3, #0]
		myWord.i8[0] = unerPrtcl_GetByteFromRx(dataRx, 1, 0);
 8001308:	4628      	mov	r0, r5
 800130a:	2200      	movs	r2, #0
 800130c:	f001 fedd 	bl	80030ca <unerPrtcl_GetByteFromRx>
		myWord.i8[1] = unerPrtcl_GetByteFromRx(dataRx, 1, 0);
 8001310:	2200      	movs	r2, #0
		myWord.i8[0] = unerPrtcl_GetByteFromRx(dataRx, 1, 0);
 8001312:	7020      	strb	r0, [r4, #0]
		myWord.i8[1] = unerPrtcl_GetByteFromRx(dataRx, 1, 0);
 8001314:	2101      	movs	r1, #1
 8001316:	4628      	mov	r0, r5
 8001318:	f001 fed7 	bl	80030ca <unerPrtcl_GetByteFromRx>
 800131c:	7060      	strb	r0, [r4, #1]
		customSpeed = myWord.i16[0];
 800131e:	8822      	ldrh	r2, [r4, #0]
 8001320:	4b15      	ldr	r3, [pc, #84]	@ (8001378 <decodeCommand+0x39c>)
 8001322:	e792      	b.n	800124a <decodeCommand+0x26e>
 8001324:	0800b330 	.word	0x0800b330
 8001328:	20000826 	.word	0x20000826
 800132c:	2000082c 	.word	0x2000082c
 8001330:	20000824 	.word	0x20000824
 8001334:	20000822 	.word	0x20000822
 8001338:	20000820 	.word	0x20000820
 800133c:	2000081e 	.word	0x2000081e
 8001340:	2000081c 	.word	0x2000081c
 8001344:	20000c60 	.word	0x20000c60
 8001348:	2000080a 	.word	0x2000080a
 800134c:	20000809 	.word	0x20000809
 8001350:	20000808 	.word	0x20000808
 8001354:	20000807 	.word	0x20000807
 8001358:	20000020 	.word	0x20000020
 800135c:	2000001e 	.word	0x2000001e
 8001360:	200005e8 	.word	0x200005e8
 8001364:	2000001d 	.word	0x2000001d
 8001368:	2000001c 	.word	0x2000001c
 800136c:	20000018 	.word	0x20000018
 8001370:	20000014 	.word	0x20000014
 8001374:	200005e4 	.word	0x200005e4
 8001378:	200005e2 	.word	0x200005e2
		unerPrtcl_PutHeaderOnTx(dataTx, GETPIDDATA, 49);
 800137c:	2231      	movs	r2, #49	@ 0x31
 800137e:	21f9      	movs	r1, #249	@ 0xf9
 8001380:	4620      	mov	r0, r4
 8001382:	f001 fe22 	bl	8002fca <unerPrtcl_PutHeaderOnTx>
		int32_t pid_data32[9] =
 8001386:	4b33      	ldr	r3, [pc, #204]	@ (8001454 <decodeCommand+0x478>)
		for (int i = 0; i < 9; i++) {
 8001388:	2600      	movs	r6, #0
		int32_t pid_data32[9] =
 800138a:	681b      	ldr	r3, [r3, #0]
 800138c:	af03      	add	r7, sp, #12
 800138e:	9303      	str	r3, [sp, #12]
 8001390:	4b31      	ldr	r3, [pc, #196]	@ (8001458 <decodeCommand+0x47c>)
 8001392:	681b      	ldr	r3, [r3, #0]
 8001394:	9304      	str	r3, [sp, #16]
 8001396:	4b31      	ldr	r3, [pc, #196]	@ (800145c <decodeCommand+0x480>)
 8001398:	681b      	ldr	r3, [r3, #0]
 800139a:	9305      	str	r3, [sp, #20]
 800139c:	4b30      	ldr	r3, [pc, #192]	@ (8001460 <decodeCommand+0x484>)
 800139e:	681b      	ldr	r3, [r3, #0]
 80013a0:	9306      	str	r3, [sp, #24]
 80013a2:	4b30      	ldr	r3, [pc, #192]	@ (8001464 <decodeCommand+0x488>)
 80013a4:	681b      	ldr	r3, [r3, #0]
 80013a6:	9307      	str	r3, [sp, #28]
 80013a8:	4b2f      	ldr	r3, [pc, #188]	@ (8001468 <decodeCommand+0x48c>)
 80013aa:	681b      	ldr	r3, [r3, #0]
 80013ac:	9308      	str	r3, [sp, #32]
 80013ae:	4b2f      	ldr	r3, [pc, #188]	@ (800146c <decodeCommand+0x490>)
 80013b0:	681b      	ldr	r3, [r3, #0]
 80013b2:	9309      	str	r3, [sp, #36]	@ 0x24
 80013b4:	4b2e      	ldr	r3, [pc, #184]	@ (8001470 <decodeCommand+0x494>)
 80013b6:	681b      	ldr	r3, [r3, #0]
 80013b8:	930a      	str	r3, [sp, #40]	@ 0x28
 80013ba:	4b2e      	ldr	r3, [pc, #184]	@ (8001474 <decodeCommand+0x498>)
 80013bc:	681b      	ldr	r3, [r3, #0]
 80013be:	930b      	str	r3, [sp, #44]	@ 0x2c
			unerPrtcl_PutByteOnTx(dataTx, (uint8_t) (pid_data32[i] & 0xFF));
 80013c0:	f857 5b04 	ldr.w	r5, [r7], #4
 80013c4:	4620      	mov	r0, r4
 80013c6:	b2e9      	uxtb	r1, r5
 80013c8:	f001 fe47 	bl	800305a <unerPrtcl_PutByteOnTx>
			unerPrtcl_PutByteOnTx(dataTx,
 80013cc:	f3c5 2107 	ubfx	r1, r5, #8, #8
 80013d0:	4620      	mov	r0, r4
 80013d2:	f001 fe42 	bl	800305a <unerPrtcl_PutByteOnTx>
			unerPrtcl_PutByteOnTx(dataTx,
 80013d6:	f3c5 4107 	ubfx	r1, r5, #16, #8
 80013da:	4620      	mov	r0, r4
 80013dc:	f001 fe3d 	bl	800305a <unerPrtcl_PutByteOnTx>
		for (int i = 0; i < 9; i++) {
 80013e0:	3601      	adds	r6, #1
			unerPrtcl_PutByteOnTx(dataTx,
 80013e2:	4620      	mov	r0, r4
 80013e4:	0e29      	lsrs	r1, r5, #24
 80013e6:	f001 fe38 	bl	800305a <unerPrtcl_PutByteOnTx>
		for (int i = 0; i < 9; i++) {
 80013ea:	2e09      	cmp	r6, #9
 80013ec:	d1e8      	bne.n	80013c0 <decodeCommand+0x3e4>
		int16_t pid_data16[5] = { Kp_stable, Ki_stable, Kd_stable, ramp_step,
 80013ee:	466f      	mov	r7, sp
		for (int i = 0; i < 5; i++) {
 80013f0:	2500      	movs	r5, #0
		int16_t pid_data16[5] = { Kp_stable, Ki_stable, Kd_stable, ramp_step,
 80013f2:	4b21      	ldr	r3, [pc, #132]	@ (8001478 <decodeCommand+0x49c>)
 80013f4:	881b      	ldrh	r3, [r3, #0]
 80013f6:	f8ad 3000 	strh.w	r3, [sp]
 80013fa:	4b20      	ldr	r3, [pc, #128]	@ (800147c <decodeCommand+0x4a0>)
 80013fc:	881b      	ldrh	r3, [r3, #0]
 80013fe:	f8ad 3002 	strh.w	r3, [sp, #2]
 8001402:	4b1f      	ldr	r3, [pc, #124]	@ (8001480 <decodeCommand+0x4a4>)
 8001404:	881b      	ldrh	r3, [r3, #0]
 8001406:	f8ad 3004 	strh.w	r3, [sp, #4]
 800140a:	4b1e      	ldr	r3, [pc, #120]	@ (8001484 <decodeCommand+0x4a8>)
 800140c:	681b      	ldr	r3, [r3, #0]
 800140e:	f8ad 3006 	strh.w	r3, [sp, #6]
 8001412:	4b1d      	ldr	r3, [pc, #116]	@ (8001488 <decodeCommand+0x4ac>)
 8001414:	681b      	ldr	r3, [r3, #0]
 8001416:	f8ad 3008 	strh.w	r3, [sp, #8]
			unerPrtcl_PutByteOnTx(dataTx, (uint8_t) (pid_data16[i] & 0xFF));
 800141a:	f937 6b02 	ldrsh.w	r6, [r7], #2
 800141e:	4620      	mov	r0, r4
 8001420:	b2f1      	uxtb	r1, r6
 8001422:	f001 fe1a 	bl	800305a <unerPrtcl_PutByteOnTx>
		for (int i = 0; i < 5; i++) {
 8001426:	3501      	adds	r5, #1
			unerPrtcl_PutByteOnTx(dataTx,
 8001428:	4620      	mov	r0, r4
 800142a:	f3c6 2107 	ubfx	r1, r6, #8, #8
 800142e:	f001 fe14 	bl	800305a <unerPrtcl_PutByteOnTx>
		for (int i = 0; i < 5; i++) {
 8001432:	2d05      	cmp	r5, #5
 8001434:	d1f1      	bne.n	800141a <decodeCommand+0x43e>
		unerPrtcl_PutByteOnTx(dataTx, maxPWM);
 8001436:	4b15      	ldr	r3, [pc, #84]	@ (800148c <decodeCommand+0x4b0>)
 8001438:	4620      	mov	r0, r4
 800143a:	7819      	ldrb	r1, [r3, #0]
 800143c:	f001 fe0d 	bl	800305a <unerPrtcl_PutByteOnTx>
		unerPrtcl_PutByteOnTx(dataTx, minPWM);
 8001440:	4b13      	ldr	r3, [pc, #76]	@ (8001490 <decodeCommand+0x4b4>)
 8001442:	7819      	ldrb	r1, [r3, #0]
 8001444:	e5e8      	b.n	8001018 <decodeCommand+0x3c>
		unerPrtcl_PutHeaderOnTx(dataTx, (_eCmd) dataRx->buff[dataRx->indexData],
 8001446:	2202      	movs	r2, #2
 8001448:	4620      	mov	r0, r4
 800144a:	f001 fdbe 	bl	8002fca <unerPrtcl_PutHeaderOnTx>
		unerPrtcl_PutByteOnTx(dataTx, UNKNOWN);
 800144e:	21ff      	movs	r1, #255	@ 0xff
 8001450:	e5e2      	b.n	8001018 <decodeCommand+0x3c>
 8001452:	bf00      	nop
 8001454:	20000614 	.word	0x20000614
 8001458:	20000610 	.word	0x20000610
 800145c:	2000060c 	.word	0x2000060c
 8001460:	20000608 	.word	0x20000608
 8001464:	20000604 	.word	0x20000604
 8001468:	200005f8 	.word	0x200005f8
 800146c:	20000600 	.word	0x20000600
 8001470:	200005fc 	.word	0x200005fc
 8001474:	200005e4 	.word	0x200005e4
 8001478:	20000020 	.word	0x20000020
 800147c:	200005e8 	.word	0x200005e8
 8001480:	2000001e 	.word	0x2000001e
 8001484:	20000018 	.word	0x20000018
 8001488:	20000014 	.word	0x20000014
 800148c:	2000001d 	.word	0x2000001d
 8001490:	2000001c 	.word	0x2000001c

08001494 <COMMTask>:
void COMMTask(_sComm *dataRx, _sComm *dataTx, uint8_t source) {
 8001494:	b5f0      	push	{r4, r5, r6, r7, lr}
 8001496:	4616      	mov	r6, r2
	if (dataRx->indexR != dataRx->indexW) {
 8001498:	7943      	ldrb	r3, [r0, #5]
 800149a:	7902      	ldrb	r2, [r0, #4]
void COMMTask(_sComm *dataRx, _sComm *dataTx, uint8_t source) {
 800149c:	4605      	mov	r5, r0
	if (dataRx->indexR != dataRx->indexW) {
 800149e:	429a      	cmp	r2, r3
void COMMTask(_sComm *dataRx, _sComm *dataTx, uint8_t source) {
 80014a0:	460c      	mov	r4, r1
 80014a2:	b0c3      	sub	sp, #268	@ 0x10c
	if (dataRx->indexR != dataRx->indexW) {
 80014a4:	d017      	beq.n	80014d6 <COMMTask+0x42>
		if (unerPrtcl_DecodeHeader(dataRx)) {
 80014a6:	f001 fe1d 	bl	80030e4 <unerPrtcl_DecodeHeader>
 80014aa:	b1a0      	cbz	r0, 80014d6 <COMMTask+0x42>
			decodeCommand(dataRx, dataTx);
 80014ac:	4621      	mov	r1, r4
 80014ae:	4628      	mov	r0, r5
 80014b0:	f7ff fd94 	bl	8000fdc <decodeCommand>
			for (uint8_t i = 0; i < dataTx->nBytes; i++) { //Paso limpio, error ultima posición
 80014b4:	2200      	movs	r2, #0
 80014b6:	7a61      	ldrb	r1, [r4, #9]
 80014b8:	a802      	add	r0, sp, #8
 80014ba:	b2d3      	uxtb	r3, r2
 80014bc:	4299      	cmp	r1, r3
 80014be:	d80c      	bhi.n	80014da <COMMTask+0x46>
			if(source)
 80014c0:	b1c6      	cbz	r6, 80014f4 <COMMTask+0x60>
				ESP01_Send(ESP01_GetLastConnID(), sendBuffer, 0, dataTx->nBytes, TXBUFSIZE);
 80014c2:	f7fe fea7 	bl	8000214 <ESP01_GetLastConnID>
 80014c6:	f44f 7380 	mov.w	r3, #256	@ 0x100
 80014ca:	9300      	str	r3, [sp, #0]
 80014cc:	2200      	movs	r2, #0
 80014ce:	7a63      	ldrb	r3, [r4, #9]
 80014d0:	a902      	add	r1, sp, #8
 80014d2:	f7fe ff0f 	bl	80002f4 <ESP01_Send>
}
 80014d6:	b043      	add	sp, #268	@ 0x10c
 80014d8:	bdf0      	pop	{r4, r5, r6, r7, pc}
				sendBuffer[i] = dataTx->buff[dataTx->indexData++];
 80014da:	79a7      	ldrb	r7, [r4, #6]
 80014dc:	6825      	ldr	r5, [r4, #0]
 80014de:	1c7b      	adds	r3, r7, #1
 80014e0:	b2db      	uxtb	r3, r3
 80014e2:	71a3      	strb	r3, [r4, #6]
 80014e4:	5ded      	ldrb	r5, [r5, r7]
 80014e6:	3201      	adds	r2, #1
 80014e8:	f800 5b01 	strb.w	r5, [r0], #1
				dataTx->indexData &= dataTx->mask;
 80014ec:	79e5      	ldrb	r5, [r4, #7]
 80014ee:	402b      	ands	r3, r5
 80014f0:	71a3      	strb	r3, [r4, #6]
			for (uint8_t i = 0; i < dataTx->nBytes; i++) { //Paso limpio, error ultima posición
 80014f2:	e7e2      	b.n	80014ba <COMMTask+0x26>
				CDC_Transmit_FS(sendBuffer, dataTx->nBytes);
 80014f4:	a802      	add	r0, sp, #8
 80014f6:	f007 faa9 	bl	8008a4c <CDC_Transmit_FS>
}
 80014fa:	e7ec      	b.n	80014d6 <COMMTask+0x42>

080014fc <heartBeatTask>:
void heartBeatTask() {
 80014fc:	b510      	push	{r4, lr}
	if (~heartBeatMask[hbIndex] & (1 << times)) {
 80014fe:	4b0c      	ldr	r3, [pc, #48]	@ (8001530 <heartBeatTask+0x34>)
 8001500:	4c0c      	ldr	r4, [pc, #48]	@ (8001534 <heartBeatTask+0x38>)
 8001502:	781a      	ldrb	r2, [r3, #0]
 8001504:	4b0c      	ldr	r3, [pc, #48]	@ (8001538 <heartBeatTask+0x3c>)
		HAL_GPIO_WritePin(LED_GPIO_Port, LED_Pin, GPIO_PIN_RESET);
 8001506:	480d      	ldr	r0, [pc, #52]	@ (800153c <heartBeatTask+0x40>)
	if (~heartBeatMask[hbIndex] & (1 << times)) {
 8001508:	f853 1022 	ldr.w	r1, [r3, r2, lsl #2]
 800150c:	2201      	movs	r2, #1
 800150e:	7823      	ldrb	r3, [r4, #0]
 8001510:	fa02 f303 	lsl.w	r3, r2, r3
 8001514:	438b      	bics	r3, r1
		HAL_GPIO_WritePin(LED_GPIO_Port, LED_Pin, GPIO_PIN_RESET);
 8001516:	bf08      	it	eq
 8001518:	461a      	moveq	r2, r3
 800151a:	f44f 5100 	mov.w	r1, #8192	@ 0x2000
 800151e:	f002 fc0f 	bl	8003d40 <HAL_GPIO_WritePin>
	times++;
 8001522:	7823      	ldrb	r3, [r4, #0]
 8001524:	3301      	adds	r3, #1
	times &= 31;
 8001526:	f003 031f 	and.w	r3, r3, #31
 800152a:	7023      	strb	r3, [r4, #0]
}
 800152c:	bd10      	pop	{r4, pc}
 800152e:	bf00      	nop
 8001530:	20000806 	.word	0x20000806
 8001534:	200005e1 	.word	0x200005e1
 8001538:	20000038 	.word	0x20000038
 800153c:	40011000 	.word	0x40011000

08001540 <ssd1306Data>:
void ssd1306Data() {
 8001540:	b5f0      	push	{r4, r5, r6, r7, lr}
	ssd1306_FillRectangle(30, 0, 32, 64, Black);
 8001542:	2400      	movs	r4, #0
void ssd1306Data() {
 8001544:	b085      	sub	sp, #20
	ssd1306_Fill(White);
 8001546:	2001      	movs	r0, #1
 8001548:	f001 f90c 	bl	8002764 <ssd1306_Fill>
	ssd1306_FillRectangle(30, 0, 32, 64, Black);
 800154c:	4621      	mov	r1, r4
 800154e:	2340      	movs	r3, #64	@ 0x40
 8001550:	2220      	movs	r2, #32
 8001552:	201e      	movs	r0, #30
 8001554:	9400      	str	r4, [sp, #0]
 8001556:	f001 fa43 	bl	80029e0 <ssd1306_FillRectangle>
	ssd1306_FillRectangle(0, 20, 128, 22, Black);
 800155a:	4620      	mov	r0, r4
 800155c:	2316      	movs	r3, #22
 800155e:	2280      	movs	r2, #128	@ 0x80
 8001560:	2114      	movs	r1, #20
 8001562:	9400      	str	r4, [sp, #0]
 8001564:	f001 fa3c 	bl	80029e0 <ssd1306_FillRectangle>
	ssd1306_FillRectangle(80, 0, 82, 64, Black);
 8001568:	2340      	movs	r3, #64	@ 0x40
 800156a:	2252      	movs	r2, #82	@ 0x52
 800156c:	4621      	mov	r1, r4
 800156e:	2050      	movs	r0, #80	@ 0x50
 8001570:	9400      	str	r4, [sp, #0]
 8001572:	f001 fa35 	bl	80029e0 <ssd1306_FillRectangle>
	ssd1306_WriteString(data, Font_11x18, Black);
 8001576:	4d7f      	ldr	r5, [pc, #508]	@ (8001774 <ssd1306Data+0x234>)
	ssd1306_SetCursor(x, y);
 8001578:	4621      	mov	r1, r4
 800157a:	2028      	movs	r0, #40	@ 0x28
 800157c:	f001 f9e4 	bl	8002948 <ssd1306_SetCursor>
	snprintf(data, sizeof(data), "ACC");
 8001580:	497d      	ldr	r1, [pc, #500]	@ (8001778 <ssd1306Data+0x238>)
 8001582:	a802      	add	r0, sp, #8
 8001584:	f007 fcf4 	bl	8008f70 <strcpy>
	ssd1306_WriteString(data, Font_11x18, Black);
 8001588:	e895 000e 	ldmia.w	r5, {r1, r2, r3}
 800158c:	9400      	str	r4, [sp, #0]
 800158e:	a802      	add	r0, sp, #8
 8001590:	f001 f9c4 	bl	800291c <ssd1306_WriteString>
	ssd1306_SetCursor(x, y);
 8001594:	4621      	mov	r1, r4
 8001596:	2055      	movs	r0, #85	@ 0x55
 8001598:	f001 f9d6 	bl	8002948 <ssd1306_SetCursor>
	snprintf(data, sizeof(data), "GYR");
 800159c:	4977      	ldr	r1, [pc, #476]	@ (800177c <ssd1306Data+0x23c>)
 800159e:	a802      	add	r0, sp, #8
 80015a0:	f007 fce6 	bl	8008f70 <strcpy>
	ssd1306_WriteString(data, Font_11x18, Black);
 80015a4:	e895 000e 	ldmia.w	r5, {r1, r2, r3}
 80015a8:	9400      	str	r4, [sp, #0]
 80015aa:	a802      	add	r0, sp, #8
 80015ac:	f001 f9b6 	bl	800291c <ssd1306_WriteString>
	ssd1306_SetCursor(x, y);
 80015b0:	2119      	movs	r1, #25
 80015b2:	2028      	movs	r0, #40	@ 0x28
 80015b4:	f001 f9c8 	bl	8002948 <ssd1306_SetCursor>
	snprintf(data, sizeof(data), "%d", ax);
 80015b8:	2108      	movs	r1, #8
 80015ba:	4b71      	ldr	r3, [pc, #452]	@ (8001780 <ssd1306Data+0x240>)
	ssd1306_WriteString(data, Font_7x10, Black);
 80015bc:	4d71      	ldr	r5, [pc, #452]	@ (8001784 <ssd1306Data+0x244>)
	snprintf(data, sizeof(data), "%d", ax);
 80015be:	eb0d 0001 	add.w	r0, sp, r1
 80015c2:	f9b3 3000 	ldrsh.w	r3, [r3]
 80015c6:	4a70      	ldr	r2, [pc, #448]	@ (8001788 <ssd1306Data+0x248>)
 80015c8:	f007 fc3e 	bl	8008e48 <sniprintf>
	ssd1306_WriteString(data, Font_7x10, Black);
 80015cc:	e895 000e 	ldmia.w	r5, {r1, r2, r3}
 80015d0:	9400      	str	r4, [sp, #0]
 80015d2:	a802      	add	r0, sp, #8
 80015d4:	f001 f9a2 	bl	800291c <ssd1306_WriteString>
	ssd1306_SetCursor(x, y);
 80015d8:	2119      	movs	r1, #25
 80015da:	2055      	movs	r0, #85	@ 0x55
 80015dc:	f001 f9b4 	bl	8002948 <ssd1306_SetCursor>
	snprintf(data, sizeof(data), "%d", gx);
 80015e0:	2108      	movs	r1, #8
 80015e2:	4b6a      	ldr	r3, [pc, #424]	@ (800178c <ssd1306Data+0x24c>)
 80015e4:	eb0d 0001 	add.w	r0, sp, r1
 80015e8:	f9b3 3000 	ldrsh.w	r3, [r3]
 80015ec:	4a66      	ldr	r2, [pc, #408]	@ (8001788 <ssd1306Data+0x248>)
 80015ee:	f007 fc2b 	bl	8008e48 <sniprintf>
	ssd1306_WriteString(data, Font_7x10, Black);
 80015f2:	e895 000e 	ldmia.w	r5, {r1, r2, r3}
 80015f6:	9400      	str	r4, [sp, #0]
 80015f8:	a802      	add	r0, sp, #8
 80015fa:	f001 f98f 	bl	800291c <ssd1306_WriteString>
	ssd1306_SetCursor(x, y);
 80015fe:	2125      	movs	r1, #37	@ 0x25
 8001600:	2028      	movs	r0, #40	@ 0x28
 8001602:	f001 f9a1 	bl	8002948 <ssd1306_SetCursor>
	snprintf(data, sizeof(data), "%d", ay);
 8001606:	2108      	movs	r1, #8
 8001608:	4b61      	ldr	r3, [pc, #388]	@ (8001790 <ssd1306Data+0x250>)
 800160a:	eb0d 0001 	add.w	r0, sp, r1
 800160e:	f9b3 3000 	ldrsh.w	r3, [r3]
 8001612:	4a5d      	ldr	r2, [pc, #372]	@ (8001788 <ssd1306Data+0x248>)
 8001614:	f007 fc18 	bl	8008e48 <sniprintf>
	ssd1306_WriteString(data, Font_7x10, Black);
 8001618:	e895 000e 	ldmia.w	r5, {r1, r2, r3}
 800161c:	9400      	str	r4, [sp, #0]
 800161e:	a802      	add	r0, sp, #8
 8001620:	f001 f97c 	bl	800291c <ssd1306_WriteString>
	ssd1306_SetCursor(x, y);
 8001624:	2125      	movs	r1, #37	@ 0x25
 8001626:	2055      	movs	r0, #85	@ 0x55
 8001628:	f001 f98e 	bl	8002948 <ssd1306_SetCursor>
	snprintf(data, sizeof(data), "%d", gy);
 800162c:	2108      	movs	r1, #8
 800162e:	4b59      	ldr	r3, [pc, #356]	@ (8001794 <ssd1306Data+0x254>)
 8001630:	eb0d 0001 	add.w	r0, sp, r1
 8001634:	f9b3 3000 	ldrsh.w	r3, [r3]
 8001638:	4a53      	ldr	r2, [pc, #332]	@ (8001788 <ssd1306Data+0x248>)
 800163a:	f007 fc05 	bl	8008e48 <sniprintf>
	ssd1306_WriteString(data, Font_7x10, Black);
 800163e:	e895 000e 	ldmia.w	r5, {r1, r2, r3}
 8001642:	9400      	str	r4, [sp, #0]
 8001644:	a802      	add	r0, sp, #8
 8001646:	f001 f969 	bl	800291c <ssd1306_WriteString>
	ssd1306_SetCursor(x, y);
 800164a:	2131      	movs	r1, #49	@ 0x31
 800164c:	2028      	movs	r0, #40	@ 0x28
 800164e:	f001 f97b 	bl	8002948 <ssd1306_SetCursor>
	snprintf(data, sizeof(data), "%d", az);
 8001652:	2108      	movs	r1, #8
 8001654:	4b50      	ldr	r3, [pc, #320]	@ (8001798 <ssd1306Data+0x258>)
 8001656:	eb0d 0001 	add.w	r0, sp, r1
 800165a:	f9b3 3000 	ldrsh.w	r3, [r3]
 800165e:	4a4a      	ldr	r2, [pc, #296]	@ (8001788 <ssd1306Data+0x248>)
 8001660:	f007 fbf2 	bl	8008e48 <sniprintf>
	ssd1306_WriteString(data, Font_7x10, Black);
 8001664:	e895 000e 	ldmia.w	r5, {r1, r2, r3}
 8001668:	9400      	str	r4, [sp, #0]
 800166a:	a802      	add	r0, sp, #8
 800166c:	f001 f956 	bl	800291c <ssd1306_WriteString>
	ssd1306_SetCursor(x, y);
 8001670:	2131      	movs	r1, #49	@ 0x31
 8001672:	2055      	movs	r0, #85	@ 0x55
 8001674:	f001 f968 	bl	8002948 <ssd1306_SetCursor>
	snprintf(data, sizeof(data), "%d", gz);
 8001678:	2108      	movs	r1, #8
			(SSD1306_MINADC - ((uint32_t)adcDataTx[0] * SSD1306_MAXADC) / 4090), Black);
 800167a:	261e      	movs	r6, #30
	snprintf(data, sizeof(data), "%d", gz);
 800167c:	4b47      	ldr	r3, [pc, #284]	@ (800179c <ssd1306Data+0x25c>)
 800167e:	eb0d 0001 	add.w	r0, sp, r1
 8001682:	f9b3 3000 	ldrsh.w	r3, [r3]
 8001686:	4a40      	ldr	r2, [pc, #256]	@ (8001788 <ssd1306Data+0x248>)
 8001688:	f007 fbde 	bl	8008e48 <sniprintf>
	ssd1306_WriteString(data, Font_7x10, Black);
 800168c:	e895 000e 	ldmia.w	r5, {r1, r2, r3}
			(SSD1306_MINADC - ((uint32_t)adcDataTx[0] * SSD1306_MAXADC) / 4090), Black);
 8001690:	f640 75fa 	movw	r5, #4090	@ 0xffa
 8001694:	4f42      	ldr	r7, [pc, #264]	@ (80017a0 <ssd1306Data+0x260>)
	ssd1306_WriteString(data, Font_7x10, Black);
 8001696:	9400      	str	r4, [sp, #0]
 8001698:	a802      	add	r0, sp, #8
 800169a:	f001 f93f 	bl	800291c <ssd1306_WriteString>
			(SSD1306_MINADC - ((uint32_t)adcDataTx[0] * SSD1306_MAXADC) / 4090), Black);
 800169e:	883b      	ldrh	r3, [r7, #0]
	ssd1306_Line(3, 60, 3,
 80016a0:	2203      	movs	r2, #3
			(SSD1306_MINADC - ((uint32_t)adcDataTx[0] * SSD1306_MAXADC) / 4090), Black);
 80016a2:	4373      	muls	r3, r6
 80016a4:	fbb3 f3f5 	udiv	r3, r3, r5
	ssd1306_Line(3, 60, 3,
 80016a8:	f1c3 033c 	rsb	r3, r3, #60	@ 0x3c
 80016ac:	4610      	mov	r0, r2
 80016ae:	213c      	movs	r1, #60	@ 0x3c
 80016b0:	9400      	str	r4, [sp, #0]
 80016b2:	b2db      	uxtb	r3, r3
 80016b4:	f001 f94e 	bl	8002954 <ssd1306_Line>
			(SSD1306_MINADC - ((uint32_t)adcDataTx[1] * SSD1306_MAXADC) / 4090), Black);
 80016b8:	887b      	ldrh	r3, [r7, #2]
	ssd1306_Line(6, 60, 6,
 80016ba:	2206      	movs	r2, #6
			(SSD1306_MINADC - ((uint32_t)adcDataTx[1] * SSD1306_MAXADC) / 4090), Black);
 80016bc:	4373      	muls	r3, r6
 80016be:	fbb3 f3f5 	udiv	r3, r3, r5
	ssd1306_Line(6, 60, 6,
 80016c2:	f1c3 033c 	rsb	r3, r3, #60	@ 0x3c
 80016c6:	4610      	mov	r0, r2
 80016c8:	213c      	movs	r1, #60	@ 0x3c
 80016ca:	9400      	str	r4, [sp, #0]
 80016cc:	b2db      	uxtb	r3, r3
 80016ce:	f001 f941 	bl	8002954 <ssd1306_Line>
			(SSD1306_MINADC - ((uint32_t)adcDataTx[2] * SSD1306_MAXADC) / 4090), Black);
 80016d2:	88bb      	ldrh	r3, [r7, #4]
	ssd1306_Line(9, 60, 9,
 80016d4:	2209      	movs	r2, #9
			(SSD1306_MINADC - ((uint32_t)adcDataTx[2] * SSD1306_MAXADC) / 4090), Black);
 80016d6:	4373      	muls	r3, r6
 80016d8:	fbb3 f3f5 	udiv	r3, r3, r5
	ssd1306_Line(9, 60, 9,
 80016dc:	f1c3 033c 	rsb	r3, r3, #60	@ 0x3c
 80016e0:	4610      	mov	r0, r2
 80016e2:	213c      	movs	r1, #60	@ 0x3c
 80016e4:	9400      	str	r4, [sp, #0]
 80016e6:	b2db      	uxtb	r3, r3
 80016e8:	f001 f934 	bl	8002954 <ssd1306_Line>
			(SSD1306_MINADC - ((uint32_t)adcDataTx[3] * SSD1306_MAXADC) / 4090), Black);
 80016ec:	88fb      	ldrh	r3, [r7, #6]
	ssd1306_Line(12, 60, 12,
 80016ee:	220c      	movs	r2, #12
			(SSD1306_MINADC - ((uint32_t)adcDataTx[3] * SSD1306_MAXADC) / 4090), Black);
 80016f0:	4373      	muls	r3, r6
 80016f2:	fbb3 f3f5 	udiv	r3, r3, r5
	ssd1306_Line(12, 60, 12,
 80016f6:	f1c3 033c 	rsb	r3, r3, #60	@ 0x3c
 80016fa:	4610      	mov	r0, r2
 80016fc:	213c      	movs	r1, #60	@ 0x3c
 80016fe:	9400      	str	r4, [sp, #0]
 8001700:	b2db      	uxtb	r3, r3
 8001702:	f001 f927 	bl	8002954 <ssd1306_Line>
			(SSD1306_MINADC - ((uint32_t)adcDataTx[4] * SSD1306_MAXADC) / 4090), Black);
 8001706:	893b      	ldrh	r3, [r7, #8]
	ssd1306_Line(15, 60, 15,
 8001708:	220f      	movs	r2, #15
			(SSD1306_MINADC - ((uint32_t)adcDataTx[4] * SSD1306_MAXADC) / 4090), Black);
 800170a:	4373      	muls	r3, r6
 800170c:	fbb3 f3f5 	udiv	r3, r3, r5
	ssd1306_Line(15, 60, 15,
 8001710:	f1c3 033c 	rsb	r3, r3, #60	@ 0x3c
 8001714:	4610      	mov	r0, r2
 8001716:	213c      	movs	r1, #60	@ 0x3c
 8001718:	9400      	str	r4, [sp, #0]
 800171a:	b2db      	uxtb	r3, r3
 800171c:	f001 f91a 	bl	8002954 <ssd1306_Line>
			(SSD1306_MINADC - ((uint32_t)adcDataTx[5] * SSD1306_MAXADC) / 4090), Black);
 8001720:	897b      	ldrh	r3, [r7, #10]
	ssd1306_Line(18, 60, 18,
 8001722:	2212      	movs	r2, #18
			(SSD1306_MINADC - ((uint32_t)adcDataTx[5] * SSD1306_MAXADC) / 4090), Black);
 8001724:	4373      	muls	r3, r6
 8001726:	fbb3 f3f5 	udiv	r3, r3, r5
	ssd1306_Line(18, 60, 18,
 800172a:	f1c3 033c 	rsb	r3, r3, #60	@ 0x3c
 800172e:	4610      	mov	r0, r2
 8001730:	213c      	movs	r1, #60	@ 0x3c
 8001732:	9400      	str	r4, [sp, #0]
 8001734:	b2db      	uxtb	r3, r3
 8001736:	f001 f90d 	bl	8002954 <ssd1306_Line>
			(SSD1306_MINADC - ((uint32_t)adcDataTx[6] * SSD1306_MAXADC) / 4090), Black);
 800173a:	89bb      	ldrh	r3, [r7, #12]
	ssd1306_Line(21, 60, 21,
 800173c:	2215      	movs	r2, #21
			(SSD1306_MINADC - ((uint32_t)adcDataTx[6] * SSD1306_MAXADC) / 4090), Black);
 800173e:	4373      	muls	r3, r6
 8001740:	fbb3 f3f5 	udiv	r3, r3, r5
	ssd1306_Line(21, 60, 21,
 8001744:	f1c3 033c 	rsb	r3, r3, #60	@ 0x3c
 8001748:	4610      	mov	r0, r2
 800174a:	213c      	movs	r1, #60	@ 0x3c
 800174c:	9400      	str	r4, [sp, #0]
 800174e:	b2db      	uxtb	r3, r3
 8001750:	f001 f900 	bl	8002954 <ssd1306_Line>
			(SSD1306_MINADC - ((uint32_t)adcDataTx[7] * SSD1306_MAXADC) / 4090), Black);
 8001754:	89fb      	ldrh	r3, [r7, #14]
	ssd1306_Line(24, 60, 24,
 8001756:	2218      	movs	r2, #24
			(SSD1306_MINADC - ((uint32_t)adcDataTx[7] * SSD1306_MAXADC) / 4090), Black);
 8001758:	4373      	muls	r3, r6
 800175a:	fbb3 f3f5 	udiv	r3, r3, r5
	ssd1306_Line(24, 60, 24,
 800175e:	f1c3 033c 	rsb	r3, r3, #60	@ 0x3c
 8001762:	213c      	movs	r1, #60	@ 0x3c
 8001764:	4610      	mov	r0, r2
 8001766:	9400      	str	r4, [sp, #0]
 8001768:	b2db      	uxtb	r3, r3
 800176a:	f001 f8f3 	bl	8002954 <ssd1306_Line>
}
 800176e:	b005      	add	sp, #20
 8001770:	bdf0      	pop	{r4, r5, r6, r7, pc}
 8001772:	bf00      	nop
 8001774:	08009e50 	.word	0x08009e50
 8001778:	080099d6 	.word	0x080099d6
 800177c:	080099da 	.word	0x080099da
 8001780:	20000826 	.word	0x20000826
 8001784:	08009e5c 	.word	0x08009e5c
 8001788:	080099de 	.word	0x080099de
 800178c:	20000820 	.word	0x20000820
 8001790:	20000824 	.word	0x20000824
 8001794:	2000081e 	.word	0x2000081e
 8001798:	20000822 	.word	0x20000822
 800179c:	2000081c 	.word	0x2000081c
 80017a0:	20000c60 	.word	0x20000c60

080017a4 <i2cTask>:
void i2cTask() {
 80017a4:	b513      	push	{r0, r1, r4, lr}
	switch (i) {
 80017a6:	4c26      	ldr	r4, [pc, #152]	@ (8001840 <i2cTask+0x9c>)
 80017a8:	7823      	ldrb	r3, [r4, #0]
 80017aa:	2b03      	cmp	r3, #3
 80017ac:	d845      	bhi.n	800183a <i2cTask+0x96>
 80017ae:	e8df f003 	tbb	[pc, r3]
 80017b2:	1502      	.short	0x1502
 80017b4:	271a      	.short	0x271a
		if (j == i2cIndex) { //Sale por que no hay nuevos elementos
 80017b6:	4a23      	ldr	r2, [pc, #140]	@ (8001844 <i2cTask+0xa0>)
 80017b8:	4b23      	ldr	r3, [pc, #140]	@ (8001848 <i2cTask+0xa4>)
 80017ba:	7811      	ldrb	r1, [r2, #0]
 80017bc:	781b      	ldrb	r3, [r3, #0]
 80017be:	428b      	cmp	r3, r1
 80017c0:	d008      	beq.n	80017d4 <i2cTask+0x30>
		if (Pila[j]) { //mpu6050
 80017c2:	4822      	ldr	r0, [pc, #136]	@ (800184c <i2cTask+0xa8>)
			j++;
 80017c4:	1c4b      	adds	r3, r1, #1
		if (Pila[j]) { //mpu6050
 80017c6:	5c41      	ldrb	r1, [r0, r1]
			j &= (I2CSIZE - 1);
 80017c8:	f003 030f 	and.w	r3, r3, #15
		if (Pila[j]) { //mpu6050
 80017cc:	b121      	cbz	r1, 80017d8 <i2cTask+0x34>
			i = ONMPU;
 80017ce:	2103      	movs	r1, #3
			i = DATA_DISPLAY;
 80017d0:	7021      	strb	r1, [r4, #0]
			j &= (I2CSIZE - 1);
 80017d2:	7013      	strb	r3, [r2, #0]
}
 80017d4:	b002      	add	sp, #8
 80017d6:	bd10      	pop	{r4, pc}
			i = DATA_DISPLAY;
 80017d8:	2101      	movs	r1, #1
 80017da:	e7f9      	b.n	80017d0 <i2cTask+0x2c>
		ssd1306Data();
 80017dc:	f7ff feb0 	bl	8001540 <ssd1306Data>
		i = UPD_DISPLAY;
 80017e0:	2302      	movs	r3, #2
		i = IDLE;
 80017e2:	7023      	strb	r3, [r4, #0]
}
 80017e4:	e7f6      	b.n	80017d4 <i2cTask+0x30>
		if (HAL_I2C_GetState(&hi2c2) == HAL_I2C_STATE_READY) {
 80017e6:	481a      	ldr	r0, [pc, #104]	@ (8001850 <i2cTask+0xac>)
 80017e8:	f003 fe7a 	bl	80054e0 <HAL_I2C_GetState>
 80017ec:	2820      	cmp	r0, #32
 80017ee:	d1f1      	bne.n	80017d4 <i2cTask+0x30>
			if (ssd1306_UpdateScreenDMA()) {
 80017f0:	f000 ffde 	bl	80027b0 <ssd1306_UpdateScreenDMA>
 80017f4:	2800      	cmp	r0, #0
 80017f6:	d0ed      	beq.n	80017d4 <i2cTask+0x30>
				ssd1306_TxCplt = FALSE;
 80017f8:	2300      	movs	r3, #0
 80017fa:	4a16      	ldr	r2, [pc, #88]	@ (8001854 <i2cTask+0xb0>)
 80017fc:	7013      	strb	r3, [r2, #0]
				i = IDLE;
 80017fe:	e7f0      	b.n	80017e2 <i2cTask+0x3e>
		if (HAL_I2C_GetState(&hi2c2) == HAL_I2C_STATE_READY) {
 8001800:	4813      	ldr	r0, [pc, #76]	@ (8001850 <i2cTask+0xac>)
 8001802:	f003 fe6d 	bl	80054e0 <HAL_I2C_GetState>
 8001806:	2820      	cmp	r0, #32
 8001808:	d1e4      	bne.n	80017d4 <i2cTask+0x30>
			if (mpu6050_Read()) {
 800180a:	f000 fef1 	bl	80025f0 <mpu6050_Read>
 800180e:	2800      	cmp	r0, #0
 8001810:	d0e0      	beq.n	80017d4 <i2cTask+0x30>
				mpu6050_GetData(&ax, &ay, &az, &gx, &gy, &gz);
 8001812:	4b11      	ldr	r3, [pc, #68]	@ (8001858 <i2cTask+0xb4>)
 8001814:	4a11      	ldr	r2, [pc, #68]	@ (800185c <i2cTask+0xb8>)
 8001816:	9301      	str	r3, [sp, #4]
 8001818:	4b11      	ldr	r3, [pc, #68]	@ (8001860 <i2cTask+0xbc>)
 800181a:	4912      	ldr	r1, [pc, #72]	@ (8001864 <i2cTask+0xc0>)
 800181c:	9300      	str	r3, [sp, #0]
 800181e:	4812      	ldr	r0, [pc, #72]	@ (8001868 <i2cTask+0xc4>)
 8001820:	4b12      	ldr	r3, [pc, #72]	@ (800186c <i2cTask+0xc8>)
 8001822:	f000 ff2d 	bl	8002680 <mpu6050_GetData>
				mpu6050_RxCplt = FALSE;
 8001826:	2200      	movs	r2, #0
 8001828:	4b11      	ldr	r3, [pc, #68]	@ (8001870 <i2cTask+0xcc>)
				RUN_PID = TRUE;
 800182a:	4912      	ldr	r1, [pc, #72]	@ (8001874 <i2cTask+0xd0>)
				mpu6050_RxCplt = FALSE;
 800182c:	701a      	strb	r2, [r3, #0]
				RUN_PID = TRUE;
 800182e:	780b      	ldrb	r3, [r1, #0]
				i = IDLE;
 8001830:	7022      	strb	r2, [r4, #0]
				RUN_PID = TRUE;
 8001832:	f043 0308 	orr.w	r3, r3, #8
 8001836:	700b      	strb	r3, [r1, #0]
				i = IDLE;
 8001838:	e7cc      	b.n	80017d4 <i2cTask+0x30>
		i = IDLE;
 800183a:	2300      	movs	r3, #0
 800183c:	e7d1      	b.n	80017e2 <i2cTask+0x3e>
 800183e:	bf00      	nop
 8001840:	200005e0 	.word	0x200005e0
 8001844:	200005df 	.word	0x200005df
 8001848:	2000080b 	.word	0x2000080b
 800184c:	2000080c 	.word	0x2000080c
 8001850:	20000e74 	.word	0x20000e74
 8001854:	20000829 	.word	0x20000829
 8001858:	2000081c 	.word	0x2000081c
 800185c:	20000822 	.word	0x20000822
 8001860:	2000081e 	.word	0x2000081e
 8001864:	20000824 	.word	0x20000824
 8001868:	20000826 	.word	0x20000826
 800186c:	20000820 	.word	0x20000820
 8001870:	20000828 	.word	0x20000828
 8001874:	2000082a 	.word	0x2000082a

08001878 <PWM_Control>:
void PWM_Control(){
 8001878:	b530      	push	{r4, r5, lr}
	  uint16_t lPulse1  = TIM3CP * chnl_1 / 100UL;
 800187a:	f640 15c4 	movw	r5, #2500	@ 0x9c4
 800187e:	2464      	movs	r4, #100	@ 0x64
 8001880:	4b0d      	ldr	r3, [pc, #52]	@ (80018b8 <PWM_Control+0x40>)
 8001882:	7818      	ldrb	r0, [r3, #0]
	  uint16_t lPulse3 = TIM3CP * chnl_3 / 100UL;
 8001884:	4b0d      	ldr	r3, [pc, #52]	@ (80018bc <PWM_Control+0x44>)
	  uint16_t lPulse1  = TIM3CP * chnl_1 / 100UL;
 8001886:	4368      	muls	r0, r5
	  uint16_t lPulse3 = TIM3CP * chnl_3 / 100UL;
 8001888:	7819      	ldrb	r1, [r3, #0]
	  uint16_t rPulse2 = TIM3CP * chnl_2 / 100UL;
 800188a:	4b0d      	ldr	r3, [pc, #52]	@ (80018c0 <PWM_Control+0x48>)
	  uint16_t lPulse3 = TIM3CP * chnl_3 / 100UL;
 800188c:	4369      	muls	r1, r5
	  uint16_t rPulse2 = TIM3CP * chnl_2 / 100UL;
 800188e:	781a      	ldrb	r2, [r3, #0]
	  uint16_t rPulse4 = TIM3CP * chnl_4 / 100UL;
 8001890:	4b0c      	ldr	r3, [pc, #48]	@ (80018c4 <PWM_Control+0x4c>)
	  uint16_t rPulse2 = TIM3CP * chnl_2 / 100UL;
 8001892:	436a      	muls	r2, r5
	  uint16_t rPulse4 = TIM3CP * chnl_4 / 100UL;
 8001894:	781b      	ldrb	r3, [r3, #0]
	  uint16_t lPulse1  = TIM3CP * chnl_1 / 100UL;
 8001896:	fbb0 f0f4 	udiv	r0, r0, r4
	  uint16_t rPulse4 = TIM3CP * chnl_4 / 100UL;
 800189a:	436b      	muls	r3, r5
	  uint16_t lPulse3 = TIM3CP * chnl_3 / 100UL;
 800189c:	fbb1 f1f4 	udiv	r1, r1, r4
	  uint16_t rPulse2 = TIM3CP * chnl_2 / 100UL;
 80018a0:	fbb2 f2f4 	udiv	r2, r2, r4
	  uint16_t rPulse4 = TIM3CP * chnl_4 / 100UL;
 80018a4:	fbb3 f3f4 	udiv	r3, r3, r4
	__HAL_TIM_SET_COMPARE(&htim3,TIM_CHANNEL_1,lPulse1);
 80018a8:	4c07      	ldr	r4, [pc, #28]	@ (80018c8 <PWM_Control+0x50>)
 80018aa:	6824      	ldr	r4, [r4, #0]
 80018ac:	6360      	str	r0, [r4, #52]	@ 0x34
	__HAL_TIM_SET_COMPARE(&htim3,TIM_CHANNEL_3,lPulse3);
 80018ae:	63e1      	str	r1, [r4, #60]	@ 0x3c
	__HAL_TIM_SET_COMPARE(&htim3,TIM_CHANNEL_2,rPulse2);
 80018b0:	63a2      	str	r2, [r4, #56]	@ 0x38
	__HAL_TIM_SET_COMPARE(&htim3,TIM_CHANNEL_4,rPulse4);
 80018b2:	6423      	str	r3, [r4, #64]	@ 0x40
}
 80018b4:	bd30      	pop	{r4, r5, pc}
 80018b6:	bf00      	nop
 80018b8:	2000080a 	.word	0x2000080a
 80018bc:	20000808 	.word	0x20000808
 80018c0:	20000809 	.word	0x20000809
 80018c4:	20000807 	.word	0x20000807
 80018c8:	20000d14 	.word	0x20000d14

080018cc <sendHTMLForm>:
{
 80018cc:	b513      	push	{r0, r1, r4, lr}
    uint16_t len = (uint16_t)snprintf((char*)httpTxBuf, sizeof(httpTxBuf), "%s%s", header, body);
 80018ce:	4b0b      	ldr	r3, [pc, #44]	@ (80018fc <sendHTMLForm+0x30>)
{
 80018d0:	4604      	mov	r4, r0
    uint16_t len = (uint16_t)snprintf((char*)httpTxBuf, sizeof(httpTxBuf), "%s%s", header, body);
 80018d2:	9300      	str	r3, [sp, #0]
 80018d4:	f44f 71aa 	mov.w	r1, #340	@ 0x154
 80018d8:	4b09      	ldr	r3, [pc, #36]	@ (8001900 <sendHTMLForm+0x34>)
 80018da:	4a0a      	ldr	r2, [pc, #40]	@ (8001904 <sendHTMLForm+0x38>)
 80018dc:	480a      	ldr	r0, [pc, #40]	@ (8001908 <sendHTMLForm+0x3c>)
 80018de:	f007 fab3 	bl	8008e48 <sniprintf>
    ESP01_Send(connID, httpTxBuf, 0, len, sizeof(httpTxBuf));
 80018e2:	f44f 73aa 	mov.w	r3, #340	@ 0x154
 80018e6:	2200      	movs	r2, #0
 80018e8:	9300      	str	r3, [sp, #0]
 80018ea:	4620      	mov	r0, r4
 80018ec:	f240 1343 	movw	r3, #323	@ 0x143
 80018f0:	4905      	ldr	r1, [pc, #20]	@ (8001908 <sendHTMLForm+0x3c>)
 80018f2:	f7fe fcff 	bl	80002f4 <ESP01_Send>
}
 80018f6:	b002      	add	sp, #8
 80018f8:	bd10      	pop	{r4, pc}
 80018fa:	bf00      	nop
 80018fc:	08009a26 	.word	0x08009a26
 8001900:	080099e1 	.word	0x080099e1
 8001904:	08009a21 	.word	0x08009a21
 8001908:	20000619 	.word	0x20000619

0800190c <sendHTTPOKPage>:
{
 800190c:	b513      	push	{r0, r1, r4, lr}
    uint16_t len = (uint16_t)snprintf((char*)httpTxBuf, sizeof(httpTxBuf), "%s%s", header, body);
 800190e:	4b0a      	ldr	r3, [pc, #40]	@ (8001938 <sendHTTPOKPage+0x2c>)
{
 8001910:	4604      	mov	r4, r0
    uint16_t len = (uint16_t)snprintf((char*)httpTxBuf, sizeof(httpTxBuf), "%s%s", header, body);
 8001912:	9300      	str	r3, [sp, #0]
 8001914:	f44f 71aa 	mov.w	r1, #340	@ 0x154
 8001918:	4b08      	ldr	r3, [pc, #32]	@ (800193c <sendHTTPOKPage+0x30>)
 800191a:	4a09      	ldr	r2, [pc, #36]	@ (8001940 <sendHTTPOKPage+0x34>)
 800191c:	4809      	ldr	r0, [pc, #36]	@ (8001944 <sendHTTPOKPage+0x38>)
 800191e:	f007 fa93 	bl	8008e48 <sniprintf>
    ESP01_Send(connID, httpTxBuf, 0, len, sizeof(httpTxBuf));
 8001922:	f44f 73aa 	mov.w	r3, #340	@ 0x154
 8001926:	2200      	movs	r2, #0
 8001928:	9300      	str	r3, [sp, #0]
 800192a:	4620      	mov	r0, r4
 800192c:	23b3      	movs	r3, #179	@ 0xb3
 800192e:	4905      	ldr	r1, [pc, #20]	@ (8001944 <sendHTTPOKPage+0x38>)
 8001930:	f7fe fce0 	bl	80002f4 <ESP01_Send>
}
 8001934:	b002      	add	sp, #8
 8001936:	bd10      	pop	{r4, pc}
 8001938:	08009b2b 	.word	0x08009b2b
 800193c:	080099e1 	.word	0x080099e1
 8001940:	08009a21 	.word	0x08009a21
 8001944:	20000619 	.word	0x20000619

08001948 <parseHTTPGetParams>:
{
 8001948:	e92d 43f8 	stmdb	sp!, {r3, r4, r5, r6, r7, r8, r9, lr}
    ssid[0] = '\0';
 800194c:	2400      	movs	r4, #0
{
 800194e:	461f      	mov	r7, r3
    ssid[0] = '\0';
 8001950:	700c      	strb	r4, [r1, #0]
    pass[0] = '\0';
 8001952:	7014      	strb	r4, [r2, #0]
    ip[0]   = '\0';
 8001954:	701c      	strb	r4, [r3, #0]
    *port   = 30010; /* valor por defecto */
 8001956:	f247 533a 	movw	r3, #30010	@ 0x753a
{
 800195a:	9d08      	ldr	r5, [sp, #32]
 800195c:	4689      	mov	r9, r1
    *port   = 30010; /* valor por defecto */
 800195e:	802b      	strh	r3, [r5, #0]
    p = strstr(httpReq, "ssid=");
 8001960:	4932      	ldr	r1, [pc, #200]	@ (8001a2c <parseHTTPGetParams+0xe4>)
{
 8001962:	4606      	mov	r6, r0
 8001964:	4690      	mov	r8, r2
    p = strstr(httpReq, "ssid=");
 8001966:	f007 fac0 	bl	8008eea <strstr>
    if(p){ p += 5;
 800196a:	b158      	cbz	r0, 8001984 <parseHTTPGetParams+0x3c>
        for(i=0; i<63 && *p && *p!='&' && *p!=' '; i++,p++)
 800196c:	3004      	adds	r0, #4
 800196e:	f810 3f01 	ldrb.w	r3, [r0, #1]!
 8001972:	b2e2      	uxtb	r2, r4
 8001974:	f013 0fdf 	tst.w	r3, #223	@ 0xdf
 8001978:	d001      	beq.n	800197e <parseHTTPGetParams+0x36>
 800197a:	2b26      	cmp	r3, #38	@ 0x26
 800197c:	d136      	bne.n	80019ec <parseHTTPGetParams+0xa4>
        ssid[i] = '\0';
 800197e:	2300      	movs	r3, #0
 8001980:	f809 3002 	strb.w	r3, [r9, r2]
    p = strstr(httpReq, "pass=");
 8001984:	4630      	mov	r0, r6
 8001986:	492a      	ldr	r1, [pc, #168]	@ (8001a30 <parseHTTPGetParams+0xe8>)
 8001988:	f007 faaf 	bl	8008eea <strstr>
    if(p){ p += 5;
 800198c:	b160      	cbz	r0, 80019a8 <parseHTTPGetParams+0x60>
 800198e:	2300      	movs	r3, #0
 8001990:	3004      	adds	r0, #4
        for(i=0; i<63 && *p && *p!='&' && *p!=' '; i++,p++)
 8001992:	f810 2f01 	ldrb.w	r2, [r0, #1]!
 8001996:	b2d9      	uxtb	r1, r3
 8001998:	f012 0fdf 	tst.w	r2, #223	@ 0xdf
 800199c:	d001      	beq.n	80019a2 <parseHTTPGetParams+0x5a>
 800199e:	2a26      	cmp	r2, #38	@ 0x26
 80019a0:	d12e      	bne.n	8001a00 <parseHTTPGetParams+0xb8>
        pass[i] = '\0';
 80019a2:	2300      	movs	r3, #0
 80019a4:	f808 3001 	strb.w	r3, [r8, r1]
    p = strstr(httpReq, "&ip=");
 80019a8:	4630      	mov	r0, r6
 80019aa:	4922      	ldr	r1, [pc, #136]	@ (8001a34 <parseHTTPGetParams+0xec>)
 80019ac:	f007 fa9d 	bl	8008eea <strstr>
    if(p){ p += 4;
 80019b0:	b158      	cbz	r0, 80019ca <parseHTTPGetParams+0x82>
 80019b2:	2300      	movs	r3, #0
 80019b4:	1cc2      	adds	r2, r0, #3
        for(i=0; i<15 && *p && *p!='&' && *p!=' '; i++,p++)
 80019b6:	f812 1f01 	ldrb.w	r1, [r2, #1]!
 80019ba:	b2d8      	uxtb	r0, r3
 80019bc:	f011 0fdf 	tst.w	r1, #223	@ 0xdf
 80019c0:	d001      	beq.n	80019c6 <parseHTTPGetParams+0x7e>
 80019c2:	2926      	cmp	r1, #38	@ 0x26
 80019c4:	d126      	bne.n	8001a14 <parseHTTPGetParams+0xcc>
        ip[i] = '\0';
 80019c6:	2300      	movs	r3, #0
 80019c8:	543b      	strb	r3, [r7, r0]
    p = strstr(httpReq, "&port=");
 80019ca:	4630      	mov	r0, r6
 80019cc:	491a      	ldr	r1, [pc, #104]	@ (8001a38 <parseHTTPGetParams+0xf0>)
 80019ce:	f007 fa8c 	bl	8008eea <strstr>
    if(p){ p += 6;
 80019d2:	b148      	cbz	r0, 80019e8 <parseHTTPGetParams+0xa0>
        uint16_t val = 0;
 80019d4:	2300      	movs	r3, #0
 80019d6:	3005      	adds	r0, #5
        while(*p >= '0' && *p <= '9')
 80019d8:	f810 2f01 	ldrb.w	r2, [r0, #1]!
 80019dc:	3a30      	subs	r2, #48	@ 0x30
 80019de:	b2d1      	uxtb	r1, r2
 80019e0:	2909      	cmp	r1, #9
 80019e2:	d91d      	bls.n	8001a20 <parseHTTPGetParams+0xd8>
        if(val > 0) *port = val;
 80019e4:	b103      	cbz	r3, 80019e8 <parseHTTPGetParams+0xa0>
 80019e6:	802b      	strh	r3, [r5, #0]
}
 80019e8:	e8bd 83f8 	ldmia.w	sp!, {r3, r4, r5, r6, r7, r8, r9, pc}
            ssid[i] = (*p=='+') ? ' ' : *p;
 80019ec:	2b2b      	cmp	r3, #43	@ 0x2b
 80019ee:	bf08      	it	eq
 80019f0:	2320      	moveq	r3, #32
 80019f2:	f809 3004 	strb.w	r3, [r9, r4]
        for(i=0; i<63 && *p && *p!='&' && *p!=' '; i++,p++)
 80019f6:	3401      	adds	r4, #1
 80019f8:	2c3f      	cmp	r4, #63	@ 0x3f
 80019fa:	d1b8      	bne.n	800196e <parseHTTPGetParams+0x26>
 80019fc:	4622      	mov	r2, r4
 80019fe:	e7be      	b.n	800197e <parseHTTPGetParams+0x36>
            pass[i] = (*p=='+') ? ' ' : *p;
 8001a00:	2a2b      	cmp	r2, #43	@ 0x2b
 8001a02:	bf08      	it	eq
 8001a04:	2220      	moveq	r2, #32
 8001a06:	f808 2003 	strb.w	r2, [r8, r3]
        for(i=0; i<63 && *p && *p!='&' && *p!=' '; i++,p++)
 8001a0a:	3301      	adds	r3, #1
 8001a0c:	2b3f      	cmp	r3, #63	@ 0x3f
 8001a0e:	d1c0      	bne.n	8001992 <parseHTTPGetParams+0x4a>
 8001a10:	4619      	mov	r1, r3
 8001a12:	e7c6      	b.n	80019a2 <parseHTTPGetParams+0x5a>
            ip[i] = *p;
 8001a14:	54f9      	strb	r1, [r7, r3]
        for(i=0; i<15 && *p && *p!='&' && *p!=' '; i++,p++)
 8001a16:	3301      	adds	r3, #1
 8001a18:	2b0f      	cmp	r3, #15
 8001a1a:	d1cc      	bne.n	80019b6 <parseHTTPGetParams+0x6e>
 8001a1c:	4618      	mov	r0, r3
 8001a1e:	e7d2      	b.n	80019c6 <parseHTTPGetParams+0x7e>
            val = (uint16_t)(val * 10 + (*p++ - '0'));
 8001a20:	eb03 0383 	add.w	r3, r3, r3, lsl #2
 8001a24:	eb02 0243 	add.w	r2, r2, r3, lsl #1
 8001a28:	b293      	uxth	r3, r2
 8001a2a:	e7d5      	b.n	80019d8 <parseHTTPGetParams+0x90>
 8001a2c:	08009ba0 	.word	0x08009ba0
 8001a30:	08009ba6 	.word	0x08009ba6
 8001a34:	08009bac 	.word	0x08009bac
 8001a38:	08009bb1 	.word	0x08009bb1

08001a3c <httpTask>:

/* Macro de seguridad: centraliza el reset del buffer HTTP */
#define HTTP_BUF_RESET()  do { httpBufIdx = 0; httpBuf[0] = '\0'; } while(0)

void httpTask(void)
{
 8001a3c:	e92d 43f0 	stmdb	sp!, {r4, r5, r6, r7, r8, r9, lr}
    /* Iniciar UDP en cuanto el WiFi este listo (viene del callback) */
    if(udpReadyToStart){
 8001a40:	4b34      	ldr	r3, [pc, #208]	@ (8001b14 <httpTask+0xd8>)
{
 8001a42:	b0a9      	sub	sp, #164	@ 0xa4
    if(udpReadyToStart){
 8001a44:	781e      	ldrb	r6, [r3, #0]
 8001a46:	b15e      	cbz	r6, 8001a60 <httpTask+0x24>
        udpReadyToStart = 0;
 8001a48:	2200      	movs	r2, #0
 8001a4a:	701a      	strb	r2, [r3, #0]
        ESP01_StartUDP(udpTargetIP, udpTargetPort, 30001);
 8001a4c:	f247 5231 	movw	r2, #30001	@ 0x7531
 8001a50:	4b31      	ldr	r3, [pc, #196]	@ (8001b18 <httpTask+0xdc>)
 8001a52:	4832      	ldr	r0, [pc, #200]	@ (8001b1c <httpTask+0xe0>)
 8001a54:	8819      	ldrh	r1, [r3, #0]

    } else {
        /* favicon.ico u otras peticiones: descartar */
        HTTP_BUF_RESET();
    }
}
 8001a56:	b029      	add	sp, #164	@ 0xa4
 8001a58:	e8bd 43f0 	ldmia.w	sp!, {r4, r5, r6, r7, r8, r9, lr}
        ESP01_StartUDP(udpTargetIP, udpTargetPort, 30001);
 8001a5c:	f7fe bbe0 	b.w	8000220 <ESP01_StartUDP>
    if(!isWebserverMode)
 8001a60:	f8df 90bc 	ldr.w	r9, [pc, #188]	@ 8001b20 <httpTask+0xe4>
 8001a64:	f899 3000 	ldrb.w	r3, [r9]
 8001a68:	2b00      	cmp	r3, #0
 8001a6a:	d042      	beq.n	8001af2 <httpTask+0xb6>
    if(httpBufIdx != 0xFF)
 8001a6c:	4f2d      	ldr	r7, [pc, #180]	@ (8001b24 <httpTask+0xe8>)
 8001a6e:	783b      	ldrb	r3, [r7, #0]
 8001a70:	2bff      	cmp	r3, #255	@ 0xff
 8001a72:	d13e      	bne.n	8001af2 <httpTask+0xb6>
    uint8_t connID = ESP01_GetLastConnID();
 8001a74:	f7fe fbce 	bl	8000214 <ESP01_GetLastConnID>
    if(strstr(httpBuf, "GET /set?") != NULL){
 8001a78:	4c2b      	ldr	r4, [pc, #172]	@ (8001b28 <httpTask+0xec>)
    uint8_t connID = ESP01_GetLastConnID();
 8001a7a:	4680      	mov	r8, r0
    if(strstr(httpBuf, "GET /set?") != NULL){
 8001a7c:	492b      	ldr	r1, [pc, #172]	@ (8001b2c <httpTask+0xf0>)
 8001a7e:	4620      	mov	r0, r4
 8001a80:	f007 fa33 	bl	8008eea <strstr>
 8001a84:	4605      	mov	r5, r0
 8001a86:	2800      	cmp	r0, #0
 8001a88:	d036      	beq.n	8001af8 <httpTask+0xbc>
        char newSSID[64]  = {0};
 8001a8a:	2240      	movs	r2, #64	@ 0x40
 8001a8c:	4631      	mov	r1, r6
 8001a8e:	a808      	add	r0, sp, #32
 8001a90:	f007 fa10 	bl	8008eb4 <memset>
        char newPASS[64]  = {0};
 8001a94:	2240      	movs	r2, #64	@ 0x40
 8001a96:	4631      	mov	r1, r6
 8001a98:	a818      	add	r0, sp, #96	@ 0x60
 8001a9a:	f007 fa0b 	bl	8008eb4 <memset>
        char newIP[16]    = {0};
 8001a9e:	2210      	movs	r2, #16
 8001aa0:	4631      	mov	r1, r6
 8001aa2:	eb0d 0002 	add.w	r0, sp, r2
 8001aa6:	f007 fa05 	bl	8008eb4 <memset>
        parseHTTPGetParams(httpBuf, newSSID, newPASS, newIP, &newPort);
 8001aaa:	f10d 030e 	add.w	r3, sp, #14
 8001aae:	9300      	str	r3, [sp, #0]
 8001ab0:	4620      	mov	r0, r4
 8001ab2:	ab04      	add	r3, sp, #16
 8001ab4:	aa18      	add	r2, sp, #96	@ 0x60
 8001ab6:	a908      	add	r1, sp, #32
 8001ab8:	f7ff ff46 	bl	8001948 <parseHTTPGetParams>
        if(newIP[0] != '\0'){
 8001abc:	f89d 3010 	ldrb.w	r3, [sp, #16]
 8001ac0:	b133      	cbz	r3, 8001ad0 <httpTask+0x94>
            strncpy(udpTargetIP, newIP, 15);
 8001ac2:	4b16      	ldr	r3, [pc, #88]	@ (8001b1c <httpTask+0xe0>)
 8001ac4:	220f      	movs	r2, #15
 8001ac6:	4618      	mov	r0, r3
 8001ac8:	a904      	add	r1, sp, #16
 8001aca:	f007 f9fb 	bl	8008ec4 <strncpy>
            udpTargetIP[15] = '\0';
 8001ace:	73c6      	strb	r6, [r0, #15]
        if(newPort > 0)
 8001ad0:	f8bd 300e 	ldrh.w	r3, [sp, #14]
 8001ad4:	b10b      	cbz	r3, 8001ada <httpTask+0x9e>
            udpTargetPort = newPort;
 8001ad6:	4a10      	ldr	r2, [pc, #64]	@ (8001b18 <httpTask+0xdc>)
 8001ad8:	8013      	strh	r3, [r2, #0]
        sendHTTPOKPage(connID);
 8001ada:	4640      	mov	r0, r8
 8001adc:	f7ff ff16 	bl	800190c <sendHTTPOKPage>
        isWebserverMode = 0;
 8001ae0:	2300      	movs	r3, #0
        ESP01_SetWIFI(newSSID, newPASS);
 8001ae2:	a918      	add	r1, sp, #96	@ 0x60
 8001ae4:	a808      	add	r0, sp, #32
        isWebserverMode = 0;
 8001ae6:	f889 3000 	strb.w	r3, [r9]
        HTTP_BUF_RESET();
 8001aea:	703b      	strb	r3, [r7, #0]
 8001aec:	7023      	strb	r3, [r4, #0]
        ESP01_SetWIFI(newSSID, newPASS);
 8001aee:	f7fe fb63 	bl	80001b8 <ESP01_SetWIFI>
}
 8001af2:	b029      	add	sp, #164	@ 0xa4
 8001af4:	e8bd 83f0 	ldmia.w	sp!, {r4, r5, r6, r7, r8, r9, pc}
    } else if(strstr(httpBuf, "GET /") != NULL){
 8001af8:	4620      	mov	r0, r4
 8001afa:	490d      	ldr	r1, [pc, #52]	@ (8001b30 <httpTask+0xf4>)
 8001afc:	f007 f9f5 	bl	8008eea <strstr>
 8001b00:	b128      	cbz	r0, 8001b0e <httpTask+0xd2>
        sendHTMLForm(connID);
 8001b02:	4640      	mov	r0, r8
 8001b04:	f7ff fee2 	bl	80018cc <sendHTMLForm>
        HTTP_BUF_RESET();
 8001b08:	703d      	strb	r5, [r7, #0]
 8001b0a:	7025      	strb	r5, [r4, #0]
 8001b0c:	e7f1      	b.n	8001af2 <httpTask+0xb6>
        HTTP_BUF_RESET();
 8001b0e:	7038      	strb	r0, [r7, #0]
 8001b10:	7020      	strb	r0, [r4, #0]
 8001b12:	e7ee      	b.n	8001af2 <httpTask+0xb6>
 8001b14:	20000618 	.word	0x20000618
 8001b18:	20000022 	.word	0x20000022
 8001b1c:	20000024 	.word	0x20000024
 8001b20:	2000076d 	.word	0x2000076d
 8001b24:	2000076e 	.word	0x2000076e
 8001b28:	2000076f 	.word	0x2000076f
 8001b2c:	08009bb8 	.word	0x08009bb8
 8001b30:	08009bc2 	.word	0x08009bc2

08001b34 <updateMefTask>:
}

uint8_t updateMefTask(_sButton *button){
    uint8_t action=FALSE;

    switch (button->currentState){
 8001b34:	7802      	ldrb	r2, [r0, #0]
uint8_t updateMefTask(_sButton *button){
 8001b36:	4603      	mov	r3, r0
    switch (button->currentState){
 8001b38:	2a03      	cmp	r2, #3
 8001b3a:	d81c      	bhi.n	8001b76 <updateMefTask+0x42>
 8001b3c:	e8df f002 	tbb	[pc, r2]
 8001b40:	0714020f 	.word	0x0714020f
        case BUTTON_UP:
            if(button->stateInput==PRESSED)
 8001b44:	7842      	ldrb	r2, [r0, #1]
 8001b46:	b942      	cbnz	r2, 8001b5a <updateMefTask+0x26>
                button->currentState=BUTTON_FALLING;
 8001b48:	2203      	movs	r2, #3
        case BUTTON_FALLING:
            if(button->stateInput==PRESSED){
                button->currentState=BUTTON_DOWN;
                button->isPressed=TRUE;
            }else{
                button->currentState=BUTTON_UP;
 8001b4a:	701a      	strb	r2, [r3, #0]
 8001b4c:	e005      	b.n	8001b5a <updateMefTask+0x26>
            if(button->stateInput==PRESSED){
 8001b4e:	7841      	ldrb	r1, [r0, #1]
 8001b50:	2201      	movs	r2, #1
 8001b52:	2900      	cmp	r1, #0
 8001b54:	d1f9      	bne.n	8001b4a <updateMefTask+0x16>
                button->currentState=BUTTON_DOWN;
 8001b56:	7001      	strb	r1, [r0, #0]
                button->isPressed=TRUE;
 8001b58:	7082      	strb	r2, [r0, #2]
    uint8_t action=FALSE;
 8001b5a:	2000      	movs	r0, #0
 8001b5c:	4770      	bx	lr
            }
        break;
        case BUTTON_DOWN:
            if(button->stateInput==NOT_PRESSED)
 8001b5e:	7842      	ldrb	r2, [r0, #1]
 8001b60:	2a01      	cmp	r2, #1
 8001b62:	d1fa      	bne.n	8001b5a <updateMefTask+0x26>
                button->currentState=BUTTON_RISING;
 8001b64:	2202      	movs	r2, #2
 8001b66:	e7f0      	b.n	8001b4a <updateMefTask+0x16>
        break;
        case BUTTON_RISING:
            if(button->stateInput==NOT_PRESSED){
 8001b68:	7840      	ldrb	r0, [r0, #1]
 8001b6a:	2200      	movs	r2, #0
 8001b6c:	2801      	cmp	r0, #1
 8001b6e:	d1ec      	bne.n	8001b4a <updateMefTask+0x16>
                button->currentState=BUTTON_UP;
 8001b70:	7018      	strb	r0, [r3, #0]
                button->isPressed = FALSE;
 8001b72:	709a      	strb	r2, [r3, #2]
        default:
            button->currentState=BUTTON_UP;
        break;
    }
    return action;
}
 8001b74:	4770      	bx	lr
            button->currentState=BUTTON_UP;
 8001b76:	2201      	movs	r2, #1
 8001b78:	e7e7      	b.n	8001b4a <updateMefTask+0x16>
	...

08001b7c <buttonTimeout10ms>:

void buttonTimeout10ms(_sButton *button){
 8001b7c:	b508      	push	{r3, lr}
    static uint8_t timeToDebounce= 0;

    if(button->isPressed){
 8001b7e:	7883      	ldrb	r3, [r0, #2]
 8001b80:	b113      	cbz	r3, 8001b88 <buttonTimeout10ms+0xc>
        button->time += 10;
 8001b82:	8883      	ldrh	r3, [r0, #4]
 8001b84:	330a      	adds	r3, #10
 8001b86:	b29b      	uxth	r3, r3
    } else{
    	button->time = 0;
    }

    // ACTUALIZAMOS EL ESTADO DE LOS PULSADORES
    if(timeToDebounce > DEBOUNCE){
 8001b88:	4a0a      	ldr	r2, [pc, #40]	@ (8001bb4 <buttonTimeout10ms+0x38>)
 8001b8a:	8083      	strh	r3, [r0, #4]
 8001b8c:	7813      	ldrb	r3, [r2, #0]
 8001b8e:	2b04      	cmp	r3, #4
 8001b90:	d90d      	bls.n	8001bae <buttonTimeout10ms+0x32>
        timeToDebounce = 0;
 8001b92:	2300      	movs	r3, #0

		if(HAL_GPIO_ReadPin(SW0_GPIO_Port, SW0_Pin) == GPIO_PIN_RESET) {
 8001b94:	f44f 4100 	mov.w	r1, #32768	@ 0x8000
 8001b98:	4807      	ldr	r0, [pc, #28]	@ (8001bb8 <buttonTimeout10ms+0x3c>)
        timeToDebounce = 0;
 8001b9a:	7013      	strb	r3, [r2, #0]
		if(HAL_GPIO_ReadPin(SW0_GPIO_Port, SW0_Pin) == GPIO_PIN_RESET) {
 8001b9c:	f002 f8ca 	bl	8003d34 <HAL_GPIO_ReadPin>
 8001ba0:	4b06      	ldr	r3, [pc, #24]	@ (8001bbc <buttonTimeout10ms+0x40>)
 8001ba2:	b908      	cbnz	r0, 8001ba8 <buttonTimeout10ms+0x2c>
			myButton.stateInput = PRESSED;
 8001ba4:	7058      	strb	r0, [r3, #1]
		}

    } else {
        timeToDebounce++;
    }
}
 8001ba6:	bd08      	pop	{r3, pc}
			myButton.stateInput = NOT_PRESSED;
 8001ba8:	2201      	movs	r2, #1
 8001baa:	705a      	strb	r2, [r3, #1]
 8001bac:	e7fb      	b.n	8001ba6 <buttonTimeout10ms+0x2a>
        timeToDebounce++;
 8001bae:	3301      	adds	r3, #1
 8001bb0:	7013      	strb	r3, [r2, #0]
}
 8001bb2:	e7f8      	b.n	8001ba6 <buttonTimeout10ms+0x2a>
 8001bb4:	200005de 	.word	0x200005de
 8001bb8:	40010c00 	.word	0x40010c00
 8001bbc:	200007f0 	.word	0x200007f0

08001bc0 <do10ms>:
void do10ms() {
 8001bc0:	b573      	push	{r0, r1, r4, r5, r6, lr}
	if (IS10MS) {
 8001bc2:	4c21      	ldr	r4, [pc, #132]	@ (8001c48 <do10ms+0x88>)
 8001bc4:	7823      	ldrb	r3, [r4, #0]
 8001bc6:	09db      	lsrs	r3, r3, #7
 8001bc8:	d029      	beq.n	8001c1e <do10ms+0x5e>
		IS10MS = FALSE;
 8001bca:	7823      	ldrb	r3, [r4, #0]
		tmo100ms--;
 8001bcc:	4d1f      	ldr	r5, [pc, #124]	@ (8001c4c <do10ms+0x8c>)
		IS10MS = FALSE;
 8001bce:	f023 0380 	bic.w	r3, r3, #128	@ 0x80
 8001bd2:	7023      	strb	r3, [r4, #0]
		tmo100ms--;
 8001bd4:	782b      	ldrb	r3, [r5, #0]
		tmo20ms--;
 8001bd6:	4e1e      	ldr	r6, [pc, #120]	@ (8001c50 <do10ms+0x90>)
		tmo100ms--;
 8001bd8:	3b01      	subs	r3, #1
 8001bda:	702b      	strb	r3, [r5, #0]
		tmo20ms--;
 8001bdc:	7833      	ldrb	r3, [r6, #0]
 8001bde:	3b01      	subs	r3, #1
 8001be0:	7033      	strb	r3, [r6, #0]
		ESP01_Timeout10ms();
 8001be2:	f7fe fc53 	bl	800048c <ESP01_Timeout10ms>
		buttonTimeout10ms(&myButton);
 8001be6:	481b      	ldr	r0, [pc, #108]	@ (8001c54 <do10ms+0x94>)
 8001be8:	f7ff ffc8 	bl	8001b7c <buttonTimeout10ms>
		if (!tmo20ms) {
 8001bec:	7833      	ldrb	r3, [r6, #0]
 8001bee:	b92b      	cbnz	r3, 8001bfc <do10ms+0x3c>
			tmo20ms = 2;
 8001bf0:	2302      	movs	r3, #2
 8001bf2:	7033      	strb	r3, [r6, #0]
			IS20MS = TRUE;
 8001bf4:	7823      	ldrb	r3, [r4, #0]
 8001bf6:	f043 0340 	orr.w	r3, r3, #64	@ 0x40
 8001bfa:	7023      	strb	r3, [r4, #0]
		if (!tmo100ms) {
 8001bfc:	782e      	ldrb	r6, [r5, #0]
 8001bfe:	b976      	cbnz	r6, 8001c1e <do10ms+0x5e>
			tmo100ms = 10;
 8001c00:	230a      	movs	r3, #10
 8001c02:	702b      	strb	r3, [r5, #0]
			IS100MS = TRUE;
 8001c04:	7823      	ldrb	r3, [r4, #0]
 8001c06:	f043 0320 	orr.w	r3, r3, #32
 8001c0a:	7023      	strb	r3, [r4, #0]
			heartBeatTask();
 8001c0c:	f7ff fc76 	bl	80014fc <heartBeatTask>
			timerUDP++;
 8001c10:	4a11      	ldr	r2, [pc, #68]	@ (8001c58 <do10ms+0x98>)
 8001c12:	7813      	ldrb	r3, [r2, #0]
 8001c14:	3301      	adds	r3, #1
 8001c16:	b2db      	uxtb	r3, r3
			if (timerUDP >= 10) { //Entrar cada 1000ms o 1s
 8001c18:	2b09      	cmp	r3, #9
 8001c1a:	d802      	bhi.n	8001c22 <do10ms+0x62>
			timerUDP++;
 8001c1c:	7013      	strb	r3, [r2, #0]
}
 8001c1e:	b002      	add	sp, #8
 8001c20:	bd70      	pop	{r4, r5, r6, pc}
				if(!isWebserverMode && ESP01_StateUDPTCP() == ESP01_UDPTCP_CONNECTED){
 8001c22:	4b0e      	ldr	r3, [pc, #56]	@ (8001c5c <do10ms+0x9c>)
				timerUDP = 0;
 8001c24:	7016      	strb	r6, [r2, #0]
				if(!isWebserverMode && ESP01_StateUDPTCP() == ESP01_UDPTCP_CONNECTED){
 8001c26:	781c      	ldrb	r4, [r3, #0]
 8001c28:	2c00      	cmp	r4, #0
 8001c2a:	d1f8      	bne.n	8001c1e <do10ms+0x5e>
 8001c2c:	f7fe fb3e 	bl	80002ac <ESP01_StateUDPTCP>
 8001c30:	2807      	cmp	r0, #7
 8001c32:	d1f4      	bne.n	8001c1e <do10ms+0x5e>
					ESP01_Send(0, bufferTx, 0, 9, TXBUFSIZE);
 8001c34:	f44f 7380 	mov.w	r3, #256	@ 0x100
 8001c38:	4622      	mov	r2, r4
 8001c3a:	9300      	str	r3, [sp, #0]
 8001c3c:	4620      	mov	r0, r4
 8001c3e:	2309      	movs	r3, #9
 8001c40:	4907      	ldr	r1, [pc, #28]	@ (8001c60 <do10ms+0xa0>)
 8001c42:	f7fe fb57 	bl	80002f4 <ESP01_Send>
}
 8001c46:	e7ea      	b.n	8001c1e <do10ms+0x5e>
 8001c48:	2000082a 	.word	0x2000082a
 8001c4c:	20000036 	.word	0x20000036
 8001c50:	20000035 	.word	0x20000035
 8001c54:	200007f0 	.word	0x200007f0
 8001c58:	20000805 	.word	0x20000805
 8001c5c:	2000076d 	.word	0x2000076d
 8001c60:	20000009 	.word	0x20000009

08001c64 <buttonTask>:

void buttonTask(_sButton *button){
	if((!button->isPressed) && (button->time > T100MS) && (button->time<T1000MS)){
 8001c64:	7883      	ldrb	r3, [r0, #2]
 8001c66:	b94b      	cbnz	r3, 8001c7c <buttonTask+0x18>
 8001c68:	8882      	ldrh	r2, [r0, #4]
 8001c6a:	2a64      	cmp	r2, #100	@ 0x64
 8001c6c:	d906      	bls.n	8001c7c <buttonTask+0x18>
 8001c6e:	f5b2 7f7a 	cmp.w	r2, #1000	@ 0x3e8
 8001c72:	d204      	bcs.n	8001c7e <buttonTask+0x1a>
		hbIndex = 1;
 8001c74:	2101      	movs	r1, #1
 8001c76:	4a04      	ldr	r2, [pc, #16]	@ (8001c88 <buttonTask+0x24>)
 8001c78:	7011      	strb	r1, [r2, #0]
		button->time = 0; //limpiamos el valor para que no pueda volver a entrar en esta parte
	}
	if((!button->isPressed) && (button->time > T1000MS)){
		hbIndex = 0;
		button->time = 0;
 8001c7a:	8083      	strh	r3, [r0, #4]
	}
}
 8001c7c:	4770      	bx	lr
	if((!button->isPressed) && (button->time > T1000MS)){
 8001c7e:	d0fd      	beq.n	8001c7c <buttonTask+0x18>
		hbIndex = 0;
 8001c80:	4a01      	ldr	r2, [pc, #4]	@ (8001c88 <buttonTask+0x24>)
 8001c82:	7013      	strb	r3, [r2, #0]
 8001c84:	e7f9      	b.n	8001c7a <buttonTask+0x16>
 8001c86:	bf00      	nop
 8001c88:	20000806 	.word	0x20000806

08001c8c <PID_ControlTask>:
// ... tus otras funciones ...
void PID_ControlTask(void) {
    int32_t final_pwm;
    int32_t output;

    if (RUN_PID == FALSE) return;
 8001c8c:	4a66      	ldr	r2, [pc, #408]	@ (8001e28 <PID_ControlTask+0x19c>)
void PID_ControlTask(void) {
 8001c8e:	b5f0      	push	{r4, r5, r6, r7, lr}
    if (RUN_PID == FALSE) return;
 8001c90:	7813      	ldrb	r3, [r2, #0]
 8001c92:	071b      	lsls	r3, r3, #28
 8001c94:	f140 80c4 	bpl.w	8001e20 <PID_ControlTask+0x194>
    RUN_PID = FALSE;
 8001c98:	7813      	ldrb	r3, [r2, #0]
    int32_t gy_corregido = gy;

    // =========================================================
    // --- 2. FILTRO PASA-BAJOS ACELERÓMETRO ---
    // =========================================================
    if (ax_filt == 0 && az_filt == 0) {
 8001c9a:	4864      	ldr	r0, [pc, #400]	@ (8001e2c <PID_ControlTask+0x1a0>)
    RUN_PID = FALSE;
 8001c9c:	f023 0308 	bic.w	r3, r3, #8
    if (ax_filt == 0 && az_filt == 0) {
 8001ca0:	4963      	ldr	r1, [pc, #396]	@ (8001e30 <PID_ControlTask+0x1a4>)
    RUN_PID = FALSE;
 8001ca2:	7013      	strb	r3, [r2, #0]
    int32_t gy_corregido = gy;
 8001ca4:	4b63      	ldr	r3, [pc, #396]	@ (8001e34 <PID_ControlTask+0x1a8>)
    if (ax_filt == 0 && az_filt == 0) {
 8001ca6:	6805      	ldr	r5, [r0, #0]
 8001ca8:	680e      	ldr	r6, [r1, #0]
    int32_t gy_corregido = gy;
 8001caa:	f9b3 4000 	ldrsh.w	r4, [r3]
        ax_filt = ax;
        az_filt = az;
 8001cae:	4a62      	ldr	r2, [pc, #392]	@ (8001e38 <PID_ControlTask+0x1ac>)
        ax_filt = ax;
 8001cb0:	4b62      	ldr	r3, [pc, #392]	@ (8001e3c <PID_ControlTask+0x1b0>)
    if (ax_filt == 0 && az_filt == 0) {
 8001cb2:	ea55 0706 	orrs.w	r7, r5, r6
        ax_filt = ax;
 8001cb6:	f9b3 3000 	ldrsh.w	r3, [r3]
        az_filt = az;
 8001cba:	f9b2 2000 	ldrsh.w	r2, [r2]
    if (ax_filt == 0 && az_filt == 0) {
 8001cbe:	d00d      	beq.n	8001cdc <PID_ControlTask+0x50>
    } else {
        ax_filt = (ax * 5 + ax_filt * 95) / 100;
 8001cc0:	275f      	movs	r7, #95	@ 0x5f
 8001cc2:	eb03 0383 	add.w	r3, r3, r3, lsl #2
 8001cc6:	fb07 3305 	mla	r3, r7, r5, r3
 8001cca:	2564      	movs	r5, #100	@ 0x64
        az_filt = (az * 5 + az_filt * 95) / 100;
 8001ccc:	eb02 0282 	add.w	r2, r2, r2, lsl #2
 8001cd0:	fb07 2206 	mla	r2, r7, r6, r2
        ax_filt = (ax * 5 + ax_filt * 95) / 100;
 8001cd4:	fb93 f3f5 	sdiv	r3, r3, r5
        az_filt = (az * 5 + az_filt * 95) / 100;
 8001cd8:	fb92 f2f5 	sdiv	r2, r2, r5
        az_filt = az;
 8001cdc:	600a      	str	r2, [r1, #0]
    }

    // =========================================================
    // --- 3. CÁLCULO DE IMU (Filtro Complementario) ---
    // =========================================================
    if (az_filt > AZ_MIN_VALID || az_filt < -AZ_MIN_VALID) {
 8001cde:	f502 617a 	add.w	r1, r2, #4000	@ 0xfa0
 8001ce2:	f5b1 5ffa 	cmp.w	r1, #8000	@ 0x1f40
        ax_filt = ax;
 8001ce6:	6003      	str	r3, [r0, #0]
 8001ce8:	4955      	ldr	r1, [pc, #340]	@ (8001e40 <PID_ControlTask+0x1b4>)
    if (az_filt > AZ_MIN_VALID || az_filt < -AZ_MIN_VALID) {
 8001cea:	d908      	bls.n	8001cfe <PID_ControlTask+0x72>
        int32_t ratio = (ax_filt * 1000) / az_filt;
 8001cec:	f44f 707a 	mov.w	r0, #1000	@ 0x3e8
 8001cf0:	4343      	muls	r3, r0
 8001cf2:	fb93 f3f2 	sdiv	r3, r3, r2
        acc_angle_hr = (ratio * (int32_t)RADTOGRAD) / 10;
 8001cf6:	f240 223d 	movw	r2, #573	@ 0x23d
 8001cfa:	4353      	muls	r3, r2
 8001cfc:	600b      	str	r3, [r1, #0]
    }

    gyro_delta_hr = (-(int32_t)gy_corregido * 200) / 131;
 8001cfe:	f06f 03c7 	mvn.w	r3, #199	@ 0xc7
 8001d02:	2283      	movs	r2, #131	@ 0x83
 8001d04:	4363      	muls	r3, r4
 8001d06:	fb93 f3f2 	sdiv	r3, r3, r2
 8001d0a:	4a4e      	ldr	r2, [pc, #312]	@ (8001e44 <PID_ControlTask+0x1b8>)
    current_angle_hr = (ALPHA_GYRO * (current_angle_hr + gyro_delta_hr) + ALPHA_ACC * acc_angle_hr) / 100;
 8001d0c:	6809      	ldr	r1, [r1, #0]
    gyro_delta_hr = (-(int32_t)gy_corregido * 200) / 131;
 8001d0e:	6013      	str	r3, [r2, #0]
    current_angle_hr = (ALPHA_GYRO * (current_angle_hr + gyro_delta_hr) + ALPHA_ACC * acc_angle_hr) / 100;
 8001d10:	4a4d      	ldr	r2, [pc, #308]	@ (8001e48 <PID_ControlTask+0x1bc>)
    // El error se calcula directamente contra el setpoint base
    error = setpoint - current_angle;

    integral += error;
    if (integral > ANG50) integral = ANG50;
    if (integral < -ANG50) integral = -ANG50;
 8001d12:	4e4e      	ldr	r6, [pc, #312]	@ (8001e4c <PID_ControlTask+0x1c0>)
    current_angle_hr = (ALPHA_GYRO * (current_angle_hr + gyro_delta_hr) + ALPHA_ACC * acc_angle_hr) / 100;
 8001d14:	6810      	ldr	r0, [r2, #0]
 8001d16:	4403      	add	r3, r0
 8001d18:	2031      	movs	r0, #49	@ 0x31
 8001d1a:	fb00 1103 	mla	r1, r0, r3, r1
 8001d1e:	2332      	movs	r3, #50	@ 0x32
 8001d20:	fb91 f3f3 	sdiv	r3, r1, r3
 8001d24:	6013      	str	r3, [r2, #0]
    current_angle = current_angle_hr / 100;
 8001d26:	f241 3288 	movw	r2, #5000	@ 0x1388
 8001d2a:	fb91 f1f2 	sdiv	r1, r1, r2
 8001d2e:	4b48      	ldr	r3, [pc, #288]	@ (8001e50 <PID_ControlTask+0x1c4>)
    integral += error;
 8001d30:	4848      	ldr	r0, [pc, #288]	@ (8001e54 <PID_ControlTask+0x1c8>)
    current_angle = current_angle_hr / 100;
 8001d32:	6019      	str	r1, [r3, #0]
    error = setpoint - current_angle;
 8001d34:	4b48      	ldr	r3, [pc, #288]	@ (8001e58 <PID_ControlTask+0x1cc>)
 8001d36:	681d      	ldr	r5, [r3, #0]
 8001d38:	4b48      	ldr	r3, [pc, #288]	@ (8001e5c <PID_ControlTask+0x1d0>)
 8001d3a:	1a6d      	subs	r5, r5, r1
 8001d3c:	601d      	str	r5, [r3, #0]
    integral += error;
 8001d3e:	6803      	ldr	r3, [r0, #0]
 8001d40:	442b      	add	r3, r5
    if (integral < -ANG50) integral = -ANG50;
 8001d42:	42b3      	cmp	r3, r6
 8001d44:	bfb8      	it	lt
 8001d46:	4633      	movlt	r3, r6
    if (integral > ANG50) integral = ANG50;
 8001d48:	4293      	cmp	r3, r2
 8001d4a:	bfa8      	it	ge
 8001d4c:	4613      	movge	r3, r2

    output = (Kp_stable * error + Ki_stable * integral + Kd_stable * gy_corregido) / 1000;
 8001d4e:	4a44      	ldr	r2, [pc, #272]	@ (8001e60 <PID_ControlTask+0x1d4>)
    integral += error;
 8001d50:	6003      	str	r3, [r0, #0]
    output = (Kp_stable * error + Ki_stable * integral + Kd_stable * gy_corregido) / 1000;
 8001d52:	f9b2 6000 	ldrsh.w	r6, [r2]
 8001d56:	4a43      	ldr	r2, [pc, #268]	@ (8001e64 <PID_ControlTask+0x1d8>)
 8001d58:	f9b2 2000 	ldrsh.w	r2, [r2]
 8001d5c:	436a      	muls	r2, r5
 8001d5e:	fb03 2206 	mla	r2, r3, r6, r2
 8001d62:	4b41      	ldr	r3, [pc, #260]	@ (8001e68 <PID_ControlTask+0x1dc>)
 8001d64:	f9b3 3000 	ldrsh.w	r3, [r3]
 8001d68:	fb04 2203 	mla	r2, r4, r3, r2
 8001d6c:	f44f 737a 	mov.w	r3, #1000	@ 0x3e8

    // =========================================================
    // --- 5. SUAVIZADO Y ZONA MUERTA ---
    // =========================================================
    if (output > 0) {
 8001d70:	f5b2 7f7a 	cmp.w	r2, #1000	@ 0x3e8
    output = (Kp_stable * error + Ki_stable * integral + Kd_stable * gy_corregido) / 1000;
 8001d74:	fb92 f3f3 	sdiv	r3, r2, r3
    if (output > 0) {
 8001d78:	db15      	blt.n	8001da6 <PID_ControlTask+0x11a>
        final_pwm = (output <= OUTPUT_DEADBAND) ? (output * minPWM) / OUTPUT_DEADBAND : output + minPWM;
 8001d7a:	f5b2 6f7a 	cmp.w	r2, #4000	@ 0xfa0
 8001d7e:	bfb8      	it	lt
 8001d80:	2203      	movlt	r2, #3
 8001d82:	4c3a      	ldr	r4, [pc, #232]	@ (8001e6c <PID_ControlTask+0x1e0>)
 8001d84:	7824      	ldrb	r4, [r4, #0]
 8001d86:	bfba      	itte	lt
 8001d88:	4363      	mullt	r3, r4
 8001d8a:	fbb3 f3f2 	udivlt	r3, r3, r2
 8001d8e:	191b      	addge	r3, r3, r4
    else {
        final_pwm = 0;
    }

    // Apagado de seguridad por caída (> 45 grados)
    if (current_angle > ANG45 || current_angle < -ANG45) {
 8001d90:	f242 3228 	movw	r2, #9000	@ 0x2328
 8001d94:	f501 518c 	add.w	r1, r1, #4480	@ 0x1180
 8001d98:	3114      	adds	r1, #20
 8001d9a:	4291      	cmp	r1, r2
 8001d9c:	d914      	bls.n	8001dc8 <PID_ControlTask+0x13c>
        final_pwm = 0;
        integral = 0;
 8001d9e:	2300      	movs	r3, #0
 8001da0:	6003      	str	r3, [r0, #0]

    // =========================================================
	// --- 6. ASIGNACIÓN A MOTORES (Con compensación de hardware) ---
	// =========================================================

	int32_t pwm_left = final_pwm;
 8001da2:	461a      	mov	r2, r3
 8001da4:	e013      	b.n	8001dce <PID_ControlTask+0x142>
    else if (output < 0) {
 8001da6:	f512 7f7a 	cmn.w	r2, #1000	@ 0x3e8
 8001daa:	dc0b      	bgt.n	8001dc4 <PID_ControlTask+0x138>
        final_pwm = (output >= -OUTPUT_DEADBAND) ? (output * minPWM) / OUTPUT_DEADBAND : output - minPWM;
 8001dac:	f512 6f7a 	cmn.w	r2, #4000	@ 0xfa0
 8001db0:	bfc8      	it	gt
 8001db2:	2203      	movgt	r2, #3
        final_pwm = (output <= OUTPUT_DEADBAND) ? (output * minPWM) / OUTPUT_DEADBAND : output + minPWM;
 8001db4:	4c2d      	ldr	r4, [pc, #180]	@ (8001e6c <PID_ControlTask+0x1e0>)
        final_pwm = (output >= -OUTPUT_DEADBAND) ? (output * minPWM) / OUTPUT_DEADBAND : output - minPWM;
 8001db6:	7824      	ldrb	r4, [r4, #0]
 8001db8:	bfca      	itet	gt
 8001dba:	4363      	mulgt	r3, r4
 8001dbc:	1b1b      	suble	r3, r3, r4
 8001dbe:	fb93 f3f2 	sdivgt	r3, r3, r2
 8001dc2:	e7e5      	b.n	8001d90 <PID_ControlTask+0x104>
        final_pwm = 0;
 8001dc4:	2300      	movs	r3, #0
 8001dc6:	e7e3      	b.n	8001d90 <PID_ControlTask+0x104>
	int32_t pwm_right = final_pwm;

	// Solo aplicamos el offset si el motor debe estar encendido
	if (final_pwm > 0) {
 8001dc8:	2b00      	cmp	r3, #0
 8001dca:	dd2a      	ble.n	8001e22 <PID_ControlTask+0x196>
		// Hacia adelante
		//pwm_left  += MOTOR_OFFSET;  // Le damos un "empujoncito" extra de 5 a la izquierda
		pwm_left -= MOTOR_OFFSET; // Opcional: podrías restarle a la derecha en su lugar
 8001dcc:	1f5a      	subs	r2, r3, #5
		//pwm_left  -= MOTOR_OFFSET;  // Ej: si final_pwm es -25, pasa a -30
		pwm_left += MOTOR_OFFSET; // Ej: si final_pwm es -30, pasa a -25
	}

	// Saturación independiente (para evitar que el offset sobrepase el maxPWM)
	if (pwm_left > (int32_t)maxPWM) pwm_left = (int32_t)maxPWM;
 8001dce:	4928      	ldr	r1, [pc, #160]	@ (8001e70 <PID_ControlTask+0x1e4>)
 8001dd0:	7809      	ldrb	r1, [r1, #0]
 8001dd2:	428a      	cmp	r2, r1
 8001dd4:	bfa8      	it	ge
 8001dd6:	460a      	movge	r2, r1
	if (pwm_left < -(int32_t)maxPWM) pwm_left = -(int32_t)maxPWM;
 8001dd8:	4248      	negs	r0, r1
 8001dda:	4282      	cmp	r2, r0
 8001ddc:	bfb8      	it	lt
 8001dde:	4602      	movlt	r2, r0

	if (pwm_right > (int32_t)maxPWM) pwm_right = (int32_t)maxPWM;
 8001de0:	4299      	cmp	r1, r3
 8001de2:	bfa8      	it	ge
 8001de4:	4619      	movge	r1, r3
	if (pwm_right < -(int32_t)maxPWM) pwm_right = -(int32_t)maxPWM;
 8001de6:	4281      	cmp	r1, r0

	// Asignación Canal 1 y 2 (Rueda Izquierda)
	if (pwm_left > 0) {
		chnl_2 = (uint8_t) pwm_left;
 8001de8:	b2d3      	uxtb	r3, r2
	if (pwm_right < -(int32_t)maxPWM) pwm_right = -(int32_t)maxPWM;
 8001dea:	bfb8      	it	lt
 8001dec:	4601      	movlt	r1, r0
	if (pwm_left > 0) {
 8001dee:	2a00      	cmp	r2, #0
 8001df0:	4820      	ldr	r0, [pc, #128]	@ (8001e74 <PID_ControlTask+0x1e8>)
		chnl_2 = (uint8_t) pwm_left;
 8001df2:	4a21      	ldr	r2, [pc, #132]	@ (8001e78 <PID_ControlTask+0x1ec>)
		chnl_1 = 0;
	} else {
		chnl_1 = (uint8_t) (-pwm_left);
 8001df4:	bfd5      	itete	le
 8001df6:	425b      	negle	r3, r3
		chnl_2 = (uint8_t) pwm_left;
 8001df8:	7013      	strbgt	r3, [r2, #0]
		chnl_1 = (uint8_t) (-pwm_left);
 8001dfa:	7003      	strble	r3, [r0, #0]
		chnl_1 = 0;
 8001dfc:	2300      	movgt	r3, #0
		chnl_2 = 0;
 8001dfe:	bfd6      	itet	le
 8001e00:	2300      	movle	r3, #0
		chnl_1 = 0;
 8001e02:	7003      	strbgt	r3, [r0, #0]
		chnl_2 = 0;
 8001e04:	7013      	strble	r3, [r2, #0]
	}

	// Asignación Canal 3 y 4 (Rueda Derecha)
	if (pwm_right > 0) {
		chnl_4 = (uint8_t) pwm_right;
 8001e06:	b2cb      	uxtb	r3, r1
	if (pwm_right > 0) {
 8001e08:	2900      	cmp	r1, #0
 8001e0a:	4a1c      	ldr	r2, [pc, #112]	@ (8001e7c <PID_ControlTask+0x1f0>)
 8001e0c:	491c      	ldr	r1, [pc, #112]	@ (8001e80 <PID_ControlTask+0x1f4>)
		chnl_3 = 0;
	} else {
		chnl_3 = (uint8_t) (-pwm_right);
 8001e0e:	bfd5      	itete	le
 8001e10:	425b      	negle	r3, r3
		chnl_4 = (uint8_t) pwm_right;
 8001e12:	7013      	strbgt	r3, [r2, #0]
		chnl_3 = (uint8_t) (-pwm_right);
 8001e14:	700b      	strble	r3, [r1, #0]
		chnl_3 = 0;
 8001e16:	2300      	movgt	r3, #0
		chnl_4 = 0;
 8001e18:	bfd6      	itet	le
 8001e1a:	2300      	movle	r3, #0
		chnl_3 = 0;
 8001e1c:	700b      	strbgt	r3, [r1, #0]
		chnl_4 = 0;
 8001e1e:	7013      	strble	r3, [r2, #0]
	}
}
 8001e20:	bdf0      	pop	{r4, r5, r6, r7, pc}
	else if (final_pwm < 0) {
 8001e22:	d0be      	beq.n	8001da2 <PID_ControlTask+0x116>
		pwm_left += MOTOR_OFFSET; // Ej: si final_pwm es -30, pasa a -25
 8001e24:	1d5a      	adds	r2, r3, #5
 8001e26:	e7d2      	b.n	8001dce <PID_ControlTask+0x142>
 8001e28:	2000082a 	.word	0x2000082a
 8001e2c:	200005f0 	.word	0x200005f0
 8001e30:	200005ec 	.word	0x200005ec
 8001e34:	2000081e 	.word	0x2000081e
 8001e38:	20000822 	.word	0x20000822
 8001e3c:	20000826 	.word	0x20000826
 8001e40:	20000614 	.word	0x20000614
 8001e44:	20000610 	.word	0x20000610
 8001e48:	2000060c 	.word	0x2000060c
 8001e4c:	ffffec78 	.word	0xffffec78
 8001e50:	200005f4 	.word	0x200005f4
 8001e54:	200005f8 	.word	0x200005f8
 8001e58:	200005e4 	.word	0x200005e4
 8001e5c:	20000604 	.word	0x20000604
 8001e60:	200005e8 	.word	0x200005e8
 8001e64:	20000020 	.word	0x20000020
 8001e68:	2000001e 	.word	0x2000001e
 8001e6c:	2000001c 	.word	0x2000001c
 8001e70:	2000001d 	.word	0x2000001d
 8001e74:	2000080a 	.word	0x2000080a
 8001e78:	20000809 	.word	0x20000809
 8001e7c:	20000807 	.word	0x20000807
 8001e80:	20000808 	.word	0x20000808

08001e84 <SystemClock_Config>:
/**
  * @brief System Clock Configuration
  * @retval None
  */
void SystemClock_Config(void)
{
 8001e84:	b510      	push	{r4, lr}
 8001e86:	b094      	sub	sp, #80	@ 0x50
  RCC_OscInitTypeDef RCC_OscInitStruct = {0};
 8001e88:	2214      	movs	r2, #20
 8001e8a:	2100      	movs	r1, #0
 8001e8c:	a80c      	add	r0, sp, #48	@ 0x30
 8001e8e:	f007 f811 	bl	8008eb4 <memset>
  RCC_ClkInitTypeDef RCC_ClkInitStruct = {0};
 8001e92:	2214      	movs	r2, #20
 8001e94:	2100      	movs	r1, #0
 8001e96:	eb0d 0002 	add.w	r0, sp, r2
 8001e9a:	f007 f80b 	bl	8008eb4 <memset>
  RCC_PeriphCLKInitTypeDef PeriphClkInit = {0};
 8001e9e:	2210      	movs	r2, #16
 8001ea0:	2100      	movs	r1, #0
 8001ea2:	a801      	add	r0, sp, #4
 8001ea4:	f007 f806 	bl	8008eb4 <memset>
  */
  RCC_OscInitStruct.OscillatorType = RCC_OSCILLATORTYPE_HSE;
  RCC_OscInitStruct.HSEState = RCC_HSE_ON;
  RCC_OscInitStruct.HSEPredivValue = RCC_HSE_PREDIV_DIV1;
  RCC_OscInitStruct.HSIState = RCC_HSI_ON;
  RCC_OscInitStruct.PLL.PLLState = RCC_PLL_ON;
 8001ea8:	2402      	movs	r4, #2
  RCC_OscInitStruct.HSEState = RCC_HSE_ON;
 8001eaa:	f44f 3380 	mov.w	r3, #65536	@ 0x10000
 8001eae:	2201      	movs	r2, #1
  RCC_OscInitStruct.PLL.PLLSource = RCC_PLLSOURCE_HSE;
 8001eb0:	e9cd 4311 	strd	r4, r3, [sp, #68]	@ 0x44
  RCC_OscInitStruct.HSEState = RCC_HSE_ON;
 8001eb4:	e9cd 230a 	strd	r2, r3, [sp, #40]	@ 0x28
  RCC_OscInitStruct.PLL.PLLMUL = RCC_PLL_MUL9;
 8001eb8:	f44f 13e0 	mov.w	r3, #1835008	@ 0x1c0000
  if (HAL_RCC_OscConfig(&RCC_OscInitStruct) != HAL_OK)
 8001ebc:	a80a      	add	r0, sp, #40	@ 0x28
  RCC_OscInitStruct.HSIState = RCC_HSI_ON;
 8001ebe:	920e      	str	r2, [sp, #56]	@ 0x38
  RCC_OscInitStruct.PLL.PLLMUL = RCC_PLL_MUL9;
 8001ec0:	9313      	str	r3, [sp, #76]	@ 0x4c
  if (HAL_RCC_OscConfig(&RCC_OscInitStruct) != HAL_OK)
 8001ec2:	f004 f989 	bl	80061d8 <HAL_RCC_OscConfig>
 8001ec6:	b108      	cbz	r0, 8001ecc <SystemClock_Config+0x48>
  \details Disables IRQ interrupts by setting the I-bit in the CPSR.
           Can only be executed in Privileged modes.
 */
__STATIC_FORCEINLINE void __disable_irq(void)
{
  __ASM volatile ("cpsid i" : : : "memory");
 8001ec8:	b672      	cpsid	i
void Error_Handler(void)
{
  /* USER CODE BEGIN Error_Handler_Debug */
  /* User can add his own implementation to report the HAL error return state */
  __disable_irq();
  while (1)
 8001eca:	e7fe      	b.n	8001eca <SystemClock_Config+0x46>
  RCC_ClkInitStruct.ClockType = RCC_CLOCKTYPE_HCLK|RCC_CLOCKTYPE_SYSCLK
 8001ecc:	230f      	movs	r3, #15
  RCC_ClkInitStruct.SYSCLKSource = RCC_SYSCLKSOURCE_PLLCLK;
 8001ece:	e9cd 3405 	strd	r3, r4, [sp, #20]
  RCC_ClkInitStruct.APB1CLKDivider = RCC_HCLK_DIV2;
 8001ed2:	f44f 6380 	mov.w	r3, #1024	@ 0x400
  RCC_ClkInitStruct.AHBCLKDivider = RCC_SYSCLK_DIV1;
 8001ed6:	9007      	str	r0, [sp, #28]
  RCC_ClkInitStruct.APB2CLKDivider = RCC_HCLK_DIV1;
 8001ed8:	e9cd 3008 	strd	r3, r0, [sp, #32]
  if (HAL_RCC_ClockConfig(&RCC_ClkInitStruct, FLASH_LATENCY_2) != HAL_OK)
 8001edc:	4621      	mov	r1, r4
 8001ede:	a805      	add	r0, sp, #20
 8001ee0:	f004 fb3c 	bl	800655c <HAL_RCC_ClockConfig>
 8001ee4:	b108      	cbz	r0, 8001eea <SystemClock_Config+0x66>
 8001ee6:	b672      	cpsid	i
  while (1)
 8001ee8:	e7fe      	b.n	8001ee8 <SystemClock_Config+0x64>
  PeriphClkInit.PeriphClockSelection = RCC_PERIPHCLK_ADC|RCC_PERIPHCLK_USB;
 8001eea:	2312      	movs	r3, #18
 8001eec:	9301      	str	r3, [sp, #4]
  PeriphClkInit.AdcClockSelection = RCC_ADCPCLK2_DIV6;
 8001eee:	f44f 4300 	mov.w	r3, #32768	@ 0x8000
  PeriphClkInit.UsbClockSelection = RCC_USBCLKSOURCE_PLL_DIV1_5;
 8001ef2:	e9cd 3003 	strd	r3, r0, [sp, #12]
  if (HAL_RCCEx_PeriphCLKConfig(&PeriphClkInit) != HAL_OK)
 8001ef6:	a801      	add	r0, sp, #4
 8001ef8:	f004 fbec 	bl	80066d4 <HAL_RCCEx_PeriphCLKConfig>
 8001efc:	b108      	cbz	r0, 8001f02 <SystemClock_Config+0x7e>
 8001efe:	b672      	cpsid	i
  while (1)
 8001f00:	e7fe      	b.n	8001f00 <SystemClock_Config+0x7c>
}
 8001f02:	b014      	add	sp, #80	@ 0x50
 8001f04:	bd10      	pop	{r4, pc}
	...

08001f08 <main>:
{
 8001f08:	b580      	push	{r7, lr}
  __HAL_RCC_GPIOC_CLK_ENABLE();
 8001f0a:	4da7      	ldr	r5, [pc, #668]	@ (80021a8 <main+0x2a0>)
{
 8001f0c:	b098      	sub	sp, #96	@ 0x60
  HAL_Init();
 8001f0e:	f001 f99f 	bl	8003250 <HAL_Init>
  SystemClock_Config();
 8001f12:	f7ff ffb7 	bl	8001e84 <SystemClock_Config>
  GPIO_InitTypeDef GPIO_InitStruct = {0};
 8001f16:	2210      	movs	r2, #16
 8001f18:	2100      	movs	r1, #0
 8001f1a:	a811      	add	r0, sp, #68	@ 0x44
 8001f1c:	f006 ffca 	bl	8008eb4 <memset>
  __HAL_RCC_GPIOC_CLK_ENABLE();
 8001f20:	69ab      	ldr	r3, [r5, #24]
  HAL_GPIO_WritePin(LED_GPIO_Port, LED_Pin, GPIO_PIN_RESET);
 8001f22:	2200      	movs	r2, #0
  __HAL_RCC_GPIOC_CLK_ENABLE();
 8001f24:	f043 0310 	orr.w	r3, r3, #16
 8001f28:	61ab      	str	r3, [r5, #24]
 8001f2a:	69ab      	ldr	r3, [r5, #24]
  HAL_GPIO_WritePin(LED_GPIO_Port, LED_Pin, GPIO_PIN_RESET);
 8001f2c:	f44f 5100 	mov.w	r1, #8192	@ 0x2000
  __HAL_RCC_GPIOC_CLK_ENABLE();
 8001f30:	f003 0310 	and.w	r3, r3, #16
 8001f34:	9302      	str	r3, [sp, #8]
 8001f36:	9b02      	ldr	r3, [sp, #8]
  __HAL_RCC_GPIOD_CLK_ENABLE();
 8001f38:	69ab      	ldr	r3, [r5, #24]
  HAL_GPIO_WritePin(LED_GPIO_Port, LED_Pin, GPIO_PIN_RESET);
 8001f3a:	489c      	ldr	r0, [pc, #624]	@ (80021ac <main+0x2a4>)
  __HAL_RCC_GPIOD_CLK_ENABLE();
 8001f3c:	f043 0320 	orr.w	r3, r3, #32
 8001f40:	61ab      	str	r3, [r5, #24]
 8001f42:	69ab      	ldr	r3, [r5, #24]
  GPIO_InitStruct.Speed = GPIO_SPEED_FREQ_LOW;
 8001f44:	2400      	movs	r4, #0
  __HAL_RCC_GPIOD_CLK_ENABLE();
 8001f46:	f003 0320 	and.w	r3, r3, #32
 8001f4a:	9303      	str	r3, [sp, #12]
 8001f4c:	9b03      	ldr	r3, [sp, #12]
  __HAL_RCC_GPIOA_CLK_ENABLE();
 8001f4e:	69ab      	ldr	r3, [r5, #24]
  GPIO_InitStruct.Mode = GPIO_MODE_OUTPUT_PP;
 8001f50:	2701      	movs	r7, #1
  __HAL_RCC_GPIOA_CLK_ENABLE();
 8001f52:	f043 0304 	orr.w	r3, r3, #4
 8001f56:	61ab      	str	r3, [r5, #24]
 8001f58:	69ab      	ldr	r3, [r5, #24]
  GPIO_InitStruct.Speed = GPIO_SPEED_FREQ_LOW;
 8001f5a:	2602      	movs	r6, #2
  __HAL_RCC_GPIOA_CLK_ENABLE();
 8001f5c:	f003 0304 	and.w	r3, r3, #4
 8001f60:	9304      	str	r3, [sp, #16]
 8001f62:	9b04      	ldr	r3, [sp, #16]
  __HAL_RCC_GPIOB_CLK_ENABLE();
 8001f64:	69ab      	ldr	r3, [r5, #24]
 8001f66:	f043 0308 	orr.w	r3, r3, #8
 8001f6a:	61ab      	str	r3, [r5, #24]
 8001f6c:	69ab      	ldr	r3, [r5, #24]
 8001f6e:	f003 0308 	and.w	r3, r3, #8
 8001f72:	9305      	str	r3, [sp, #20]
 8001f74:	9b05      	ldr	r3, [sp, #20]
  HAL_GPIO_WritePin(LED_GPIO_Port, LED_Pin, GPIO_PIN_RESET);
 8001f76:	f001 fee3 	bl	8003d40 <HAL_GPIO_WritePin>
  HAL_GPIO_WritePin(ESP01_EN_GPIO_Port, ESP01_EN_Pin, GPIO_PIN_RESET);
 8001f7a:	2200      	movs	r2, #0
 8001f7c:	f44f 7100 	mov.w	r1, #512	@ 0x200
 8001f80:	488b      	ldr	r0, [pc, #556]	@ (80021b0 <main+0x2a8>)
 8001f82:	f001 fedd 	bl	8003d40 <HAL_GPIO_WritePin>
  GPIO_InitStruct.Mode = GPIO_MODE_OUTPUT_PP;
 8001f86:	f44f 5300 	mov.w	r3, #8192	@ 0x2000
  HAL_GPIO_Init(LED_GPIO_Port, &GPIO_InitStruct);
 8001f8a:	4888      	ldr	r0, [pc, #544]	@ (80021ac <main+0x2a4>)
 8001f8c:	a911      	add	r1, sp, #68	@ 0x44
  GPIO_InitStruct.Mode = GPIO_MODE_OUTPUT_PP;
 8001f8e:	e9cd 3711 	strd	r3, r7, [sp, #68]	@ 0x44
  GPIO_InitStruct.Speed = GPIO_SPEED_FREQ_LOW;
 8001f92:	e9cd 4613 	strd	r4, r6, [sp, #76]	@ 0x4c
  HAL_GPIO_Init(LED_GPIO_Port, &GPIO_InitStruct);
 8001f96:	f001 fdf9 	bl	8003b8c <HAL_GPIO_Init>
  GPIO_InitStruct.Pin = SW0_Pin;
 8001f9a:	f44f 4300 	mov.w	r3, #32768	@ 0x8000
  HAL_GPIO_Init(SW0_GPIO_Port, &GPIO_InitStruct);
 8001f9e:	4884      	ldr	r0, [pc, #528]	@ (80021b0 <main+0x2a8>)
 8001fa0:	a911      	add	r1, sp, #68	@ 0x44
  GPIO_InitStruct.Mode = GPIO_MODE_INPUT;
 8001fa2:	e9cd 3411 	strd	r3, r4, [sp, #68]	@ 0x44
  GPIO_InitStruct.Pull = GPIO_NOPULL;
 8001fa6:	9413      	str	r4, [sp, #76]	@ 0x4c
  HAL_GPIO_Init(SW0_GPIO_Port, &GPIO_InitStruct);
 8001fa8:	f001 fdf0 	bl	8003b8c <HAL_GPIO_Init>
  GPIO_InitStruct.Pin = ESP01_EN_Pin;
 8001fac:	f44f 7300 	mov.w	r3, #512	@ 0x200
  HAL_GPIO_Init(ESP01_EN_GPIO_Port, &GPIO_InitStruct);
 8001fb0:	487f      	ldr	r0, [pc, #508]	@ (80021b0 <main+0x2a8>)
 8001fb2:	a911      	add	r1, sp, #68	@ 0x44
  GPIO_InitStruct.Mode = GPIO_MODE_OUTPUT_PP;
 8001fb4:	e9cd 3711 	strd	r3, r7, [sp, #68]	@ 0x44
  GPIO_InitStruct.Speed = GPIO_SPEED_FREQ_LOW;
 8001fb8:	e9cd 4613 	strd	r4, r6, [sp, #76]	@ 0x4c
  HAL_GPIO_Init(ESP01_EN_GPIO_Port, &GPIO_InitStruct);
 8001fbc:	f001 fde6 	bl	8003b8c <HAL_GPIO_Init>
  __HAL_RCC_DMA1_CLK_ENABLE();
 8001fc0:	696b      	ldr	r3, [r5, #20]
  HAL_NVIC_SetPriority(DMA1_Channel1_IRQn, 0, 0);
 8001fc2:	4622      	mov	r2, r4
  __HAL_RCC_DMA1_CLK_ENABLE();
 8001fc4:	433b      	orrs	r3, r7
 8001fc6:	616b      	str	r3, [r5, #20]
 8001fc8:	696b      	ldr	r3, [r5, #20]
  HAL_NVIC_SetPriority(DMA1_Channel1_IRQn, 0, 0);
 8001fca:	4621      	mov	r1, r4
  __HAL_RCC_DMA1_CLK_ENABLE();
 8001fcc:	403b      	ands	r3, r7
  HAL_NVIC_SetPriority(DMA1_Channel1_IRQn, 0, 0);
 8001fce:	200b      	movs	r0, #11
  __HAL_RCC_DMA1_CLK_ENABLE();
 8001fd0:	9301      	str	r3, [sp, #4]
 8001fd2:	9b01      	ldr	r3, [sp, #4]
  HAL_NVIC_SetPriority(DMA1_Channel1_IRQn, 0, 0);
 8001fd4:	f001 fc1e 	bl	8003814 <HAL_NVIC_SetPriority>
  HAL_NVIC_EnableIRQ(DMA1_Channel1_IRQn);
 8001fd8:	200b      	movs	r0, #11
 8001fda:	f001 fc4b 	bl	8003874 <HAL_NVIC_EnableIRQ>
  HAL_NVIC_SetPriority(DMA1_Channel4_IRQn, 0, 0);
 8001fde:	4622      	mov	r2, r4
 8001fe0:	4621      	mov	r1, r4
 8001fe2:	200e      	movs	r0, #14
 8001fe4:	f001 fc16 	bl	8003814 <HAL_NVIC_SetPriority>
  HAL_NVIC_EnableIRQ(DMA1_Channel4_IRQn);
 8001fe8:	200e      	movs	r0, #14
 8001fea:	f001 fc43 	bl	8003874 <HAL_NVIC_EnableIRQ>
  HAL_NVIC_SetPriority(DMA1_Channel5_IRQn, 0, 0);
 8001fee:	4622      	mov	r2, r4
 8001ff0:	4621      	mov	r1, r4
 8001ff2:	200f      	movs	r0, #15
 8001ff4:	f001 fc0e 	bl	8003814 <HAL_NVIC_SetPriority>
  HAL_NVIC_EnableIRQ(DMA1_Channel5_IRQn);
 8001ff8:	200f      	movs	r0, #15
 8001ffa:	f001 fc3b 	bl	8003874 <HAL_NVIC_EnableIRQ>
  hadc1.Instance = ADC1;
 8001ffe:	4a6d      	ldr	r2, [pc, #436]	@ (80021b4 <main+0x2ac>)
 8002000:	4b6d      	ldr	r3, [pc, #436]	@ (80021b8 <main+0x2b0>)
  ADC_ChannelConfTypeDef sConfig = {0};
 8002002:	e9cd 4411 	strd	r4, r4, [sp, #68]	@ 0x44
  hadc1.Instance = ADC1;
 8002006:	6013      	str	r3, [r2, #0]
  hadc1.Init.ScanConvMode = ADC_SCAN_ENABLE;
 8002008:	f44f 7380 	mov.w	r3, #256	@ 0x100
  ADC_ChannelConfTypeDef sConfig = {0};
 800200c:	9413      	str	r4, [sp, #76]	@ 0x4c
  hadc1.Init.ScanConvMode = ADC_SCAN_ENABLE;
 800200e:	6093      	str	r3, [r2, #8]
  hadc1.Init.ContinuousConvMode = DISABLE;
 8002010:	7314      	strb	r4, [r2, #12]
  hadc1.Init.ExternalTrigConv = ADC_SOFTWARE_START;
 8002012:	f44f 2360 	mov.w	r3, #917504	@ 0xe0000
  hadc1.Init.DiscontinuousConvMode = DISABLE;
 8002016:	7514      	strb	r4, [r2, #20]
  hadc1.Init.DataAlign = ADC_DATAALIGN_RIGHT;
 8002018:	6054      	str	r4, [r2, #4]
  hadc1.Init.NbrOfConversion = 8;
 800201a:	2408      	movs	r4, #8
  if (HAL_ADC_Init(&hadc1) != HAL_OK)
 800201c:	4610      	mov	r0, r2
  hadc1.Init.ExternalTrigConv = ADC_SOFTWARE_START;
 800201e:	61d3      	str	r3, [r2, #28]
  hadc1.Init.NbrOfConversion = 8;
 8002020:	6114      	str	r4, [r2, #16]
  if (HAL_ADC_Init(&hadc1) != HAL_OK)
 8002022:	f001 fb65 	bl	80036f0 <HAL_ADC_Init>
 8002026:	b108      	cbz	r0, 800202c <main+0x124>
 8002028:	b672      	cpsid	i
  while (1)
 800202a:	e7fe      	b.n	800202a <main+0x122>
  sConfig.Rank = ADC_REGULAR_RANK_1;
 800202c:	e9cd 0711 	strd	r0, r7, [sp, #68]	@ 0x44
  sConfig.SamplingTime = ADC_SAMPLETIME_1CYCLE_5;
 8002030:	9013      	str	r0, [sp, #76]	@ 0x4c
  if (HAL_ADC_ConfigChannel(&hadc1, &sConfig) != HAL_OK)
 8002032:	a911      	add	r1, sp, #68	@ 0x44
 8002034:	485f      	ldr	r0, [pc, #380]	@ (80021b4 <main+0x2ac>)
 8002036:	f001 f9ef 	bl	8003418 <HAL_ADC_ConfigChannel>
 800203a:	b108      	cbz	r0, 8002040 <main+0x138>
 800203c:	b672      	cpsid	i
  while (1)
 800203e:	e7fe      	b.n	800203e <main+0x136>
  if (HAL_ADC_ConfigChannel(&hadc1, &sConfig) != HAL_OK)
 8002040:	485c      	ldr	r0, [pc, #368]	@ (80021b4 <main+0x2ac>)
 8002042:	a911      	add	r1, sp, #68	@ 0x44
  sConfig.Rank = ADC_REGULAR_RANK_2;
 8002044:	e9cd 7611 	strd	r7, r6, [sp, #68]	@ 0x44
  if (HAL_ADC_ConfigChannel(&hadc1, &sConfig) != HAL_OK)
 8002048:	f001 f9e6 	bl	8003418 <HAL_ADC_ConfigChannel>
 800204c:	b108      	cbz	r0, 8002052 <main+0x14a>
 800204e:	b672      	cpsid	i
  while (1)
 8002050:	e7fe      	b.n	8002050 <main+0x148>
  sConfig.Rank = ADC_REGULAR_RANK_3;
 8002052:	2503      	movs	r5, #3
  if (HAL_ADC_ConfigChannel(&hadc1, &sConfig) != HAL_OK)
 8002054:	4857      	ldr	r0, [pc, #348]	@ (80021b4 <main+0x2ac>)
 8002056:	a911      	add	r1, sp, #68	@ 0x44
  sConfig.Channel = ADC_CHANNEL_2;
 8002058:	9611      	str	r6, [sp, #68]	@ 0x44
  sConfig.Rank = ADC_REGULAR_RANK_3;
 800205a:	9512      	str	r5, [sp, #72]	@ 0x48
  if (HAL_ADC_ConfigChannel(&hadc1, &sConfig) != HAL_OK)
 800205c:	f001 f9dc 	bl	8003418 <HAL_ADC_ConfigChannel>
 8002060:	b108      	cbz	r0, 8002066 <main+0x15e>
 8002062:	b672      	cpsid	i
  while (1)
 8002064:	e7fe      	b.n	8002064 <main+0x15c>
  sConfig.Channel = ADC_CHANNEL_3;
 8002066:	9511      	str	r5, [sp, #68]	@ 0x44
  sConfig.Rank = ADC_REGULAR_RANK_4;
 8002068:	2504      	movs	r5, #4
  if (HAL_ADC_ConfigChannel(&hadc1, &sConfig) != HAL_OK)
 800206a:	4852      	ldr	r0, [pc, #328]	@ (80021b4 <main+0x2ac>)
 800206c:	a911      	add	r1, sp, #68	@ 0x44
  sConfig.Rank = ADC_REGULAR_RANK_4;
 800206e:	9512      	str	r5, [sp, #72]	@ 0x48
  if (HAL_ADC_ConfigChannel(&hadc1, &sConfig) != HAL_OK)
 8002070:	f001 f9d2 	bl	8003418 <HAL_ADC_ConfigChannel>
 8002074:	b108      	cbz	r0, 800207a <main+0x172>
 8002076:	b672      	cpsid	i
  while (1)
 8002078:	e7fe      	b.n	8002078 <main+0x170>
  sConfig.Channel = ADC_CHANNEL_4;
 800207a:	9511      	str	r5, [sp, #68]	@ 0x44
  sConfig.Rank = ADC_REGULAR_RANK_5;
 800207c:	2505      	movs	r5, #5
  if (HAL_ADC_ConfigChannel(&hadc1, &sConfig) != HAL_OK)
 800207e:	484d      	ldr	r0, [pc, #308]	@ (80021b4 <main+0x2ac>)
 8002080:	a911      	add	r1, sp, #68	@ 0x44
  sConfig.Rank = ADC_REGULAR_RANK_5;
 8002082:	9512      	str	r5, [sp, #72]	@ 0x48
  if (HAL_ADC_ConfigChannel(&hadc1, &sConfig) != HAL_OK)
 8002084:	f001 f9c8 	bl	8003418 <HAL_ADC_ConfigChannel>
 8002088:	b108      	cbz	r0, 800208e <main+0x186>
 800208a:	b672      	cpsid	i
  while (1)
 800208c:	e7fe      	b.n	800208c <main+0x184>
  sConfig.Channel = ADC_CHANNEL_5;
 800208e:	9511      	str	r5, [sp, #68]	@ 0x44
  sConfig.Rank = ADC_REGULAR_RANK_6;
 8002090:	2506      	movs	r5, #6
  if (HAL_ADC_ConfigChannel(&hadc1, &sConfig) != HAL_OK)
 8002092:	4848      	ldr	r0, [pc, #288]	@ (80021b4 <main+0x2ac>)
 8002094:	a911      	add	r1, sp, #68	@ 0x44
  sConfig.Rank = ADC_REGULAR_RANK_6;
 8002096:	9512      	str	r5, [sp, #72]	@ 0x48
  if (HAL_ADC_ConfigChannel(&hadc1, &sConfig) != HAL_OK)
 8002098:	f001 f9be 	bl	8003418 <HAL_ADC_ConfigChannel>
 800209c:	b108      	cbz	r0, 80020a2 <main+0x19a>
 800209e:	b672      	cpsid	i
  while (1)
 80020a0:	e7fe      	b.n	80020a0 <main+0x198>
  sConfig.Channel = ADC_CHANNEL_6;
 80020a2:	9511      	str	r5, [sp, #68]	@ 0x44
  sConfig.Rank = ADC_REGULAR_RANK_7;
 80020a4:	2507      	movs	r5, #7
  if (HAL_ADC_ConfigChannel(&hadc1, &sConfig) != HAL_OK)
 80020a6:	4843      	ldr	r0, [pc, #268]	@ (80021b4 <main+0x2ac>)
 80020a8:	a911      	add	r1, sp, #68	@ 0x44
  sConfig.Rank = ADC_REGULAR_RANK_7;
 80020aa:	9512      	str	r5, [sp, #72]	@ 0x48
  if (HAL_ADC_ConfigChannel(&hadc1, &sConfig) != HAL_OK)
 80020ac:	f001 f9b4 	bl	8003418 <HAL_ADC_ConfigChannel>
 80020b0:	b108      	cbz	r0, 80020b6 <main+0x1ae>
 80020b2:	b672      	cpsid	i
  while (1)
 80020b4:	e7fe      	b.n	80020b4 <main+0x1ac>
  if (HAL_ADC_ConfigChannel(&hadc1, &sConfig) != HAL_OK)
 80020b6:	483f      	ldr	r0, [pc, #252]	@ (80021b4 <main+0x2ac>)
 80020b8:	a911      	add	r1, sp, #68	@ 0x44
  sConfig.Rank = ADC_REGULAR_RANK_8;
 80020ba:	e9cd 5411 	strd	r5, r4, [sp, #68]	@ 0x44
  if (HAL_ADC_ConfigChannel(&hadc1, &sConfig) != HAL_OK)
 80020be:	f001 f9ab 	bl	8003418 <HAL_ADC_ConfigChannel>
 80020c2:	4604      	mov	r4, r0
 80020c4:	b108      	cbz	r0, 80020ca <main+0x1c2>
 80020c6:	b672      	cpsid	i
  while (1)
 80020c8:	e7fe      	b.n	80020c8 <main+0x1c0>
  TIM_ClockConfigTypeDef sClockSourceConfig = {0};
 80020ca:	ae0c      	add	r6, sp, #48	@ 0x30
 80020cc:	4601      	mov	r1, r0
 80020ce:	2210      	movs	r2, #16
 80020d0:	4630      	mov	r0, r6
 80020d2:	f006 feef 	bl	8008eb4 <memset>
  TIM_SlaveConfigTypeDef sSlaveConfig = {0};
 80020d6:	2214      	movs	r2, #20
 80020d8:	4621      	mov	r1, r4
 80020da:	a811      	add	r0, sp, #68	@ 0x44
 80020dc:	f006 feea 	bl	8008eb4 <memset>
  htim1.Init.Prescaler = 71;
 80020e0:	2347      	movs	r3, #71	@ 0x47
  htim1.Instance = TIM1;
 80020e2:	4836      	ldr	r0, [pc, #216]	@ (80021bc <main+0x2b4>)
  htim1.Init.Prescaler = 71;
 80020e4:	f8df c0d8 	ldr.w	ip, [pc, #216]	@ 80021c0 <main+0x2b8>
  TIM_MasterConfigTypeDef sMasterConfig = {0};
 80020e8:	af08      	add	r7, sp, #32
  htim1.Init.Prescaler = 71;
 80020ea:	e9c0 c300 	strd	ip, r3, [r0]
  htim1.Init.Period = 249;
 80020ee:	23f9      	movs	r3, #249	@ 0xf9
  TIM_MasterConfigTypeDef sMasterConfig = {0};
 80020f0:	9408      	str	r4, [sp, #32]
 80020f2:	607c      	str	r4, [r7, #4]
  htim1.Init.ClockDivision = TIM_CLOCKDIVISION_DIV1;
 80020f4:	e9c0 3403 	strd	r3, r4, [r0, #12]
  htim1.Init.AutoReloadPreload = TIM_AUTORELOAD_PRELOAD_DISABLE;
 80020f8:	e9c0 4405 	strd	r4, r4, [r0, #20]
  htim1.Init.CounterMode = TIM_COUNTERMODE_UP;
 80020fc:	6084      	str	r4, [r0, #8]
  if (HAL_TIM_Base_Init(&htim1) != HAL_OK)
 80020fe:	f004 fccd 	bl	8006a9c <HAL_TIM_Base_Init>
 8002102:	b108      	cbz	r0, 8002108 <main+0x200>
 8002104:	b672      	cpsid	i
  while (1)
 8002106:	e7fe      	b.n	8002106 <main+0x1fe>
  sClockSourceConfig.ClockSource = TIM_CLOCKSOURCE_INTERNAL;
 8002108:	f44f 5880 	mov.w	r8, #4096	@ 0x1000
  if (HAL_TIM_ConfigClockSource(&htim1, &sClockSourceConfig) != HAL_OK)
 800210c:	4631      	mov	r1, r6
 800210e:	482b      	ldr	r0, [pc, #172]	@ (80021bc <main+0x2b4>)
  sClockSourceConfig.ClockSource = TIM_CLOCKSOURCE_INTERNAL;
 8002110:	f8cd 8030 	str.w	r8, [sp, #48]	@ 0x30
  if (HAL_TIM_ConfigClockSource(&htim1, &sClockSourceConfig) != HAL_OK)
 8002114:	f004 fda8 	bl	8006c68 <HAL_TIM_ConfigClockSource>
 8002118:	b108      	cbz	r0, 800211e <main+0x216>
 800211a:	b672      	cpsid	i
  while (1)
 800211c:	e7fe      	b.n	800211c <main+0x214>
  sSlaveConfig.InputTrigger = TIM_TS_ITR0;
 800211e:	e9cd 0011 	strd	r0, r0, [sp, #68]	@ 0x44
  if (HAL_TIM_SlaveConfigSynchro(&htim1, &sSlaveConfig) != HAL_OK)
 8002122:	a911      	add	r1, sp, #68	@ 0x44
 8002124:	4825      	ldr	r0, [pc, #148]	@ (80021bc <main+0x2b4>)
 8002126:	f004 fe96 	bl	8006e56 <HAL_TIM_SlaveConfigSynchro>
 800212a:	b108      	cbz	r0, 8002130 <main+0x228>
 800212c:	b672      	cpsid	i
  while (1)
 800212e:	e7fe      	b.n	800212e <main+0x226>
  sMasterConfig.MasterSlaveMode = TIM_MASTERSLAVEMODE_DISABLE;
 8002130:	e9cd 0008 	strd	r0, r0, [sp, #32]
  if (HAL_TIMEx_MasterConfigSynchronization(&htim1, &sMasterConfig) != HAL_OK)
 8002134:	4639      	mov	r1, r7
 8002136:	4821      	ldr	r0, [pc, #132]	@ (80021bc <main+0x2b4>)
 8002138:	f004 ff12 	bl	8006f60 <HAL_TIMEx_MasterConfigSynchronization>
 800213c:	4605      	mov	r5, r0
 800213e:	b108      	cbz	r0, 8002144 <main+0x23c>
 8002140:	b672      	cpsid	i
  while (1)
 8002142:	e7fe      	b.n	8002142 <main+0x23a>
  TIM_ClockConfigTypeDef sClockSourceConfig = {0};
 8002144:	4601      	mov	r1, r0
 8002146:	2210      	movs	r2, #16
 8002148:	4630      	mov	r0, r6
 800214a:	f006 feb3 	bl	8008eb4 <memset>
  TIM_SlaveConfigTypeDef sSlaveConfig = {0};
 800214e:	2214      	movs	r2, #20
 8002150:	4629      	mov	r1, r5
 8002152:	a811      	add	r0, sp, #68	@ 0x44
 8002154:	f006 feae 	bl	8008eb4 <memset>
  htim2.Init.Prescaler = 71;
 8002158:	f04f 0947 	mov.w	r9, #71	@ 0x47
 800215c:	f04f 4380 	mov.w	r3, #1073741824	@ 0x40000000
  htim2.Instance = TIM2;
 8002160:	4c18      	ldr	r4, [pc, #96]	@ (80021c4 <main+0x2bc>)
  TIM_MasterConfigTypeDef sMasterConfig = {0};
 8002162:	9508      	str	r5, [sp, #32]
  htim2.Init.Prescaler = 71;
 8002164:	e9c4 3900 	strd	r3, r9, [r4]
  htim2.Init.Period = 19999;
 8002168:	f644 631f 	movw	r3, #19999	@ 0x4e1f
  if (HAL_TIM_Base_Init(&htim2) != HAL_OK)
 800216c:	4620      	mov	r0, r4
  TIM_MasterConfigTypeDef sMasterConfig = {0};
 800216e:	607d      	str	r5, [r7, #4]
  htim2.Init.ClockDivision = TIM_CLOCKDIVISION_DIV1;
 8002170:	e9c4 3503 	strd	r3, r5, [r4, #12]
  htim2.Init.CounterMode = TIM_COUNTERMODE_UP;
 8002174:	60a5      	str	r5, [r4, #8]
  htim2.Init.AutoReloadPreload = TIM_AUTORELOAD_PRELOAD_DISABLE;
 8002176:	61a5      	str	r5, [r4, #24]
  if (HAL_TIM_Base_Init(&htim2) != HAL_OK)
 8002178:	f004 fc90 	bl	8006a9c <HAL_TIM_Base_Init>
 800217c:	b108      	cbz	r0, 8002182 <main+0x27a>
 800217e:	b672      	cpsid	i
  while (1)
 8002180:	e7fe      	b.n	8002180 <main+0x278>
  if (HAL_TIM_ConfigClockSource(&htim2, &sClockSourceConfig) != HAL_OK)
 8002182:	4631      	mov	r1, r6
 8002184:	4620      	mov	r0, r4
  sClockSourceConfig.ClockSource = TIM_CLOCKSOURCE_INTERNAL;
 8002186:	f8cd 8030 	str.w	r8, [sp, #48]	@ 0x30
  if (HAL_TIM_ConfigClockSource(&htim2, &sClockSourceConfig) != HAL_OK)
 800218a:	f004 fd6d 	bl	8006c68 <HAL_TIM_ConfigClockSource>
 800218e:	b108      	cbz	r0, 8002194 <main+0x28c>
 8002190:	b672      	cpsid	i
  while (1)
 8002192:	e7fe      	b.n	8002192 <main+0x28a>
  sSlaveConfig.InputTrigger = TIM_TS_ITR0;
 8002194:	e9cd 0011 	strd	r0, r0, [sp, #68]	@ 0x44
  if (HAL_TIM_SlaveConfigSynchro(&htim2, &sSlaveConfig) != HAL_OK)
 8002198:	a911      	add	r1, sp, #68	@ 0x44
 800219a:	4620      	mov	r0, r4
 800219c:	f004 fe5b 	bl	8006e56 <HAL_TIM_SlaveConfigSynchro>
 80021a0:	b190      	cbz	r0, 80021c8 <main+0x2c0>
 80021a2:	b672      	cpsid	i
  while (1)
 80021a4:	e7fe      	b.n	80021a4 <main+0x29c>
 80021a6:	bf00      	nop
 80021a8:	40021000 	.word	0x40021000
 80021ac:	40011000 	.word	0x40011000
 80021b0:	40010c00 	.word	0x40010c00
 80021b4:	20000f0c 	.word	0x20000f0c
 80021b8:	40012400 	.word	0x40012400
 80021bc:	20000da4 	.word	0x20000da4
 80021c0:	40012c00 	.word	0x40012c00
 80021c4:	20000d5c 	.word	0x20000d5c
  sMasterConfig.MasterSlaveMode = TIM_MASTERSLAVEMODE_DISABLE;
 80021c8:	e9cd 0008 	strd	r0, r0, [sp, #32]
  if (HAL_TIMEx_MasterConfigSynchronization(&htim2, &sMasterConfig) != HAL_OK)
 80021cc:	4639      	mov	r1, r7
 80021ce:	4620      	mov	r0, r4
 80021d0:	f004 fec6 	bl	8006f60 <HAL_TIMEx_MasterConfigSynchronization>
 80021d4:	4604      	mov	r4, r0
 80021d6:	b108      	cbz	r0, 80021dc <main+0x2d4>
 80021d8:	b672      	cpsid	i
  while (1)
 80021da:	e7fe      	b.n	80021da <main+0x2d2>
  TIM_ClockConfigTypeDef sClockSourceConfig = {0};
 80021dc:	4601      	mov	r1, r0
 80021de:	2210      	movs	r2, #16
 80021e0:	4638      	mov	r0, r7
 80021e2:	f006 fe67 	bl	8008eb4 <memset>
  TIM_SlaveConfigTypeDef sSlaveConfig = {0};
 80021e6:	2214      	movs	r2, #20
 80021e8:	4621      	mov	r1, r4
 80021ea:	4630      	mov	r0, r6
 80021ec:	f006 fe62 	bl	8008eb4 <memset>
  TIM_OC_InitTypeDef sConfigOC = {0};
 80021f0:	221c      	movs	r2, #28
 80021f2:	4621      	mov	r1, r4
 80021f4:	a811      	add	r0, sp, #68	@ 0x44
  htim3.Instance = TIM3;
 80021f6:	4da1      	ldr	r5, [pc, #644]	@ (800247c <main+0x574>)
  TIM_MasterConfigTypeDef sMasterConfig = {0};
 80021f8:	9406      	str	r4, [sp, #24]
 80021fa:	9407      	str	r4, [sp, #28]
  TIM_OC_InitTypeDef sConfigOC = {0};
 80021fc:	f006 fe5a 	bl	8008eb4 <memset>
  htim3.Instance = TIM3;
 8002200:	4b9f      	ldr	r3, [pc, #636]	@ (8002480 <main+0x578>)
  if (HAL_TIM_Base_Init(&htim3) != HAL_OK)
 8002202:	4628      	mov	r0, r5
  htim3.Init.Prescaler = 71;
 8002204:	e9c5 3900 	strd	r3, r9, [r5]
  htim3.Init.Period = 9999;
 8002208:	f242 730f 	movw	r3, #9999	@ 0x270f
  TIM_MasterConfigTypeDef sMasterConfig = {0};
 800220c:	f10d 0a18 	add.w	sl, sp, #24
  htim3.Init.ClockDivision = TIM_CLOCKDIVISION_DIV1;
 8002210:	e9c5 3403 	strd	r3, r4, [r5, #12]
  htim3.Init.CounterMode = TIM_COUNTERMODE_UP;
 8002214:	60ac      	str	r4, [r5, #8]
  htim3.Init.AutoReloadPreload = TIM_AUTORELOAD_PRELOAD_DISABLE;
 8002216:	61ac      	str	r4, [r5, #24]
  if (HAL_TIM_Base_Init(&htim3) != HAL_OK)
 8002218:	f004 fc40 	bl	8006a9c <HAL_TIM_Base_Init>
 800221c:	b108      	cbz	r0, 8002222 <main+0x31a>
 800221e:	b672      	cpsid	i
  while (1)
 8002220:	e7fe      	b.n	8002220 <main+0x318>
  if (HAL_TIM_ConfigClockSource(&htim3, &sClockSourceConfig) != HAL_OK)
 8002222:	4639      	mov	r1, r7
 8002224:	4628      	mov	r0, r5
  sClockSourceConfig.ClockSource = TIM_CLOCKSOURCE_INTERNAL;
 8002226:	f8cd 8020 	str.w	r8, [sp, #32]
  if (HAL_TIM_ConfigClockSource(&htim3, &sClockSourceConfig) != HAL_OK)
 800222a:	f004 fd1d 	bl	8006c68 <HAL_TIM_ConfigClockSource>
 800222e:	b108      	cbz	r0, 8002234 <main+0x32c>
 8002230:	b672      	cpsid	i
  while (1)
 8002232:	e7fe      	b.n	8002232 <main+0x32a>
  if (HAL_TIM_PWM_Init(&htim3) != HAL_OK)
 8002234:	4628      	mov	r0, r5
 8002236:	f004 fc5d 	bl	8006af4 <HAL_TIM_PWM_Init>
 800223a:	b108      	cbz	r0, 8002240 <main+0x338>
 800223c:	b672      	cpsid	i
  while (1)
 800223e:	e7fe      	b.n	800223e <main+0x336>
  sSlaveConfig.SlaveMode = TIM_SLAVEMODE_DISABLE;
 8002240:	2300      	movs	r3, #0
  if (HAL_TIM_SlaveConfigSynchro(&htim3, &sSlaveConfig) != HAL_OK)
 8002242:	4631      	mov	r1, r6
 8002244:	488d      	ldr	r0, [pc, #564]	@ (800247c <main+0x574>)
  sSlaveConfig.InputTrigger = TIM_TS_ITR0;
 8002246:	e9cd 330c 	strd	r3, r3, [sp, #48]	@ 0x30
  if (HAL_TIM_SlaveConfigSynchro(&htim3, &sSlaveConfig) != HAL_OK)
 800224a:	f004 fe04 	bl	8006e56 <HAL_TIM_SlaveConfigSynchro>
 800224e:	b108      	cbz	r0, 8002254 <main+0x34c>
 8002250:	b672      	cpsid	i
  while (1)
 8002252:	e7fe      	b.n	8002252 <main+0x34a>
  sMasterConfig.MasterSlaveMode = TIM_MASTERSLAVEMODE_DISABLE;
 8002254:	e9cd 0006 	strd	r0, r0, [sp, #24]
  if (HAL_TIMEx_MasterConfigSynchronization(&htim3, &sMasterConfig) != HAL_OK)
 8002258:	4651      	mov	r1, sl
 800225a:	4888      	ldr	r0, [pc, #544]	@ (800247c <main+0x574>)
 800225c:	f004 fe80 	bl	8006f60 <HAL_TIMEx_MasterConfigSynchronization>
 8002260:	4602      	mov	r2, r0
 8002262:	b108      	cbz	r0, 8002268 <main+0x360>
 8002264:	b672      	cpsid	i
  while (1)
 8002266:	e7fe      	b.n	8002266 <main+0x35e>
  sConfigOC.OCMode = TIM_OCMODE_PWM1;
 8002268:	2360      	movs	r3, #96	@ 0x60
  sConfigOC.OCPolarity = TIM_OCPOLARITY_HIGH;
 800226a:	9013      	str	r0, [sp, #76]	@ 0x4c
  sConfigOC.Pulse = 0;
 800226c:	e9cd 3011 	strd	r3, r0, [sp, #68]	@ 0x44
  sConfigOC.OCFastMode = TIM_OCFAST_DISABLE;
 8002270:	9015      	str	r0, [sp, #84]	@ 0x54
  if (HAL_TIM_PWM_ConfigChannel(&htim3, &sConfigOC, TIM_CHANNEL_1) != HAL_OK)
 8002272:	a911      	add	r1, sp, #68	@ 0x44
 8002274:	4881      	ldr	r0, [pc, #516]	@ (800247c <main+0x574>)
 8002276:	f004 fc95 	bl	8006ba4 <HAL_TIM_PWM_ConfigChannel>
 800227a:	b108      	cbz	r0, 8002280 <main+0x378>
 800227c:	b672      	cpsid	i
  while (1)
 800227e:	e7fe      	b.n	800227e <main+0x376>
  if (HAL_TIM_PWM_ConfigChannel(&htim3, &sConfigOC, TIM_CHANNEL_2) != HAL_OK)
 8002280:	2204      	movs	r2, #4
 8002282:	487e      	ldr	r0, [pc, #504]	@ (800247c <main+0x574>)
 8002284:	a911      	add	r1, sp, #68	@ 0x44
 8002286:	f004 fc8d 	bl	8006ba4 <HAL_TIM_PWM_ConfigChannel>
 800228a:	b108      	cbz	r0, 8002290 <main+0x388>
 800228c:	b672      	cpsid	i
  while (1)
 800228e:	e7fe      	b.n	800228e <main+0x386>
  if (HAL_TIM_PWM_ConfigChannel(&htim3, &sConfigOC, TIM_CHANNEL_3) != HAL_OK)
 8002290:	2208      	movs	r2, #8
 8002292:	487a      	ldr	r0, [pc, #488]	@ (800247c <main+0x574>)
 8002294:	a911      	add	r1, sp, #68	@ 0x44
 8002296:	f004 fc85 	bl	8006ba4 <HAL_TIM_PWM_ConfigChannel>
 800229a:	b108      	cbz	r0, 80022a0 <main+0x398>
 800229c:	b672      	cpsid	i
  while (1)
 800229e:	e7fe      	b.n	800229e <main+0x396>
  if (HAL_TIM_PWM_ConfigChannel(&htim3, &sConfigOC, TIM_CHANNEL_4) != HAL_OK)
 80022a0:	220c      	movs	r2, #12
 80022a2:	4876      	ldr	r0, [pc, #472]	@ (800247c <main+0x574>)
 80022a4:	a911      	add	r1, sp, #68	@ 0x44
 80022a6:	f004 fc7d 	bl	8006ba4 <HAL_TIM_PWM_ConfigChannel>
 80022aa:	4604      	mov	r4, r0
 80022ac:	b108      	cbz	r0, 80022b2 <main+0x3aa>
 80022ae:	b672      	cpsid	i
  while (1)
 80022b0:	e7fe      	b.n	80022b0 <main+0x3a8>
  HAL_TIM_MspPostInit(&htim3);
 80022b2:	4872      	ldr	r0, [pc, #456]	@ (800247c <main+0x574>)
 80022b4:	f000 fd9a 	bl	8002dec <HAL_TIM_MspPostInit>
  huart1.Init.BaudRate = 115200;
 80022b8:	f44f 33e1 	mov.w	r3, #115200	@ 0x1c200
  huart1.Instance = USART1;
 80022bc:	4871      	ldr	r0, [pc, #452]	@ (8002484 <main+0x57c>)
  huart1.Init.BaudRate = 115200;
 80022be:	4d72      	ldr	r5, [pc, #456]	@ (8002488 <main+0x580>)
  huart1.Init.StopBits = UART_STOPBITS_1;
 80022c0:	e9c0 4402 	strd	r4, r4, [r0, #8]
  huart1.Init.BaudRate = 115200;
 80022c4:	e9c0 5300 	strd	r5, r3, [r0]
  huart1.Init.Mode = UART_MODE_TX_RX;
 80022c8:	230c      	movs	r3, #12
  huart1.Init.Parity = UART_PARITY_NONE;
 80022ca:	6104      	str	r4, [r0, #16]
  huart1.Init.HwFlowCtl = UART_HWCONTROL_NONE;
 80022cc:	e9c0 3405 	strd	r3, r4, [r0, #20]
  huart1.Init.OverSampling = UART_OVERSAMPLING_16;
 80022d0:	61c4      	str	r4, [r0, #28]
  if (HAL_UART_Init(&huart1) != HAL_OK)
 80022d2:	f004 fedd 	bl	8007090 <HAL_UART_Init>
 80022d6:	4604      	mov	r4, r0
 80022d8:	b108      	cbz	r0, 80022de <main+0x3d6>
 80022da:	b672      	cpsid	i
  while (1)
 80022dc:	e7fe      	b.n	80022dc <main+0x3d4>
  MX_USB_DEVICE_Init();
 80022de:	f006 fb41 	bl	8008964 <MX_USB_DEVICE_Init>
  hi2c2.Instance = I2C2;
 80022e2:	486a      	ldr	r0, [pc, #424]	@ (800248c <main+0x584>)
  hi2c2.Init.ClockSpeed = 400000;
 80022e4:	496a      	ldr	r1, [pc, #424]	@ (8002490 <main+0x588>)
 80022e6:	4b6b      	ldr	r3, [pc, #428]	@ (8002494 <main+0x58c>)
  hi2c2.Init.OwnAddress1 = 0;
 80022e8:	e9c0 4402 	strd	r4, r4, [r0, #8]
  hi2c2.Init.ClockSpeed = 400000;
 80022ec:	e9c0 1300 	strd	r1, r3, [r0]
  hi2c2.Init.AddressingMode = I2C_ADDRESSINGMODE_7BIT;
 80022f0:	f44f 4380 	mov.w	r3, #16384	@ 0x4000
  hi2c2.Init.GeneralCallMode = I2C_GENERALCALL_DISABLE;
 80022f4:	e9c0 4406 	strd	r4, r4, [r0, #24]
  hi2c2.Init.DualAddressMode = I2C_DUALADDRESS_DISABLE;
 80022f8:	e9c0 3404 	strd	r3, r4, [r0, #16]
  hi2c2.Init.NoStretchMode = I2C_NOSTRETCH_DISABLE;
 80022fc:	6204      	str	r4, [r0, #32]
  if (HAL_I2C_Init(&hi2c2) != HAL_OK)
 80022fe:	f001 fefd 	bl	80040fc <HAL_I2C_Init>
 8002302:	4604      	mov	r4, r0
 8002304:	b108      	cbz	r0, 800230a <main+0x402>
 8002306:	b672      	cpsid	i
  while (1)
 8002308:	e7fe      	b.n	8002308 <main+0x400>
  TIM_ClockConfigTypeDef sClockSourceConfig = {0};
 800230a:	2210      	movs	r2, #16
 800230c:	4601      	mov	r1, r0
 800230e:	a811      	add	r0, sp, #68	@ 0x44
 8002310:	f006 fdd0 	bl	8008eb4 <memset>
  htim4.Init.Prescaler = 71;
 8002314:	2347      	movs	r3, #71	@ 0x47
  htim4.Instance = TIM4;
 8002316:	4d60      	ldr	r5, [pc, #384]	@ (8002498 <main+0x590>)
  htim4.Init.Prescaler = 71;
 8002318:	4a60      	ldr	r2, [pc, #384]	@ (800249c <main+0x594>)
  TIM_MasterConfigTypeDef sMasterConfig = {0};
 800231a:	940c      	str	r4, [sp, #48]	@ 0x30
  htim4.Init.Prescaler = 71;
 800231c:	e9c5 2300 	strd	r2, r3, [r5]
  htim4.Init.Period = 9999;
 8002320:	f242 730f 	movw	r3, #9999	@ 0x270f
  if (HAL_TIM_Base_Init(&htim4) != HAL_OK)
 8002324:	4628      	mov	r0, r5
  TIM_MasterConfigTypeDef sMasterConfig = {0};
 8002326:	6074      	str	r4, [r6, #4]
  htim4.Init.ClockDivision = TIM_CLOCKDIVISION_DIV1;
 8002328:	e9c5 3403 	strd	r3, r4, [r5, #12]
  htim4.Init.CounterMode = TIM_COUNTERMODE_UP;
 800232c:	60ac      	str	r4, [r5, #8]
  htim4.Init.AutoReloadPreload = TIM_AUTORELOAD_PRELOAD_DISABLE;
 800232e:	61ac      	str	r4, [r5, #24]
  if (HAL_TIM_Base_Init(&htim4) != HAL_OK)
 8002330:	f004 fbb4 	bl	8006a9c <HAL_TIM_Base_Init>
 8002334:	b108      	cbz	r0, 800233a <main+0x432>
 8002336:	b672      	cpsid	i
  while (1)
 8002338:	e7fe      	b.n	8002338 <main+0x430>
  sClockSourceConfig.ClockSource = TIM_CLOCKSOURCE_INTERNAL;
 800233a:	f44f 5380 	mov.w	r3, #4096	@ 0x1000
  if (HAL_TIM_ConfigClockSource(&htim4, &sClockSourceConfig) != HAL_OK)
 800233e:	4628      	mov	r0, r5
 8002340:	a911      	add	r1, sp, #68	@ 0x44
  sClockSourceConfig.ClockSource = TIM_CLOCKSOURCE_INTERNAL;
 8002342:	9311      	str	r3, [sp, #68]	@ 0x44
  if (HAL_TIM_ConfigClockSource(&htim4, &sClockSourceConfig) != HAL_OK)
 8002344:	f004 fc90 	bl	8006c68 <HAL_TIM_ConfigClockSource>
 8002348:	b108      	cbz	r0, 800234e <main+0x446>
 800234a:	b672      	cpsid	i
  while (1)
 800234c:	e7fe      	b.n	800234c <main+0x444>
  sMasterConfig.MasterOutputTrigger = TIM_TRGO_RESET;
 800234e:	2300      	movs	r3, #0
  if (HAL_TIMEx_MasterConfigSynchronization(&htim4, &sMasterConfig) != HAL_OK)
 8002350:	4631      	mov	r1, r6
 8002352:	4851      	ldr	r0, [pc, #324]	@ (8002498 <main+0x590>)
  sMasterConfig.MasterSlaveMode = TIM_MASTERSLAVEMODE_DISABLE;
 8002354:	e9cd 330c 	strd	r3, r3, [sp, #48]	@ 0x30
  if (HAL_TIMEx_MasterConfigSynchronization(&htim4, &sMasterConfig) != HAL_OK)
 8002358:	f004 fe02 	bl	8006f60 <HAL_TIMEx_MasterConfigSynchronization>
 800235c:	4604      	mov	r4, r0
 800235e:	b108      	cbz	r0, 8002364 <main+0x45c>
 8002360:	b672      	cpsid	i
  while (1)
 8002362:	e7fe      	b.n	8002362 <main+0x45a>
  CDC_Attach_Rx(USBRxData); //Attach a la función que tenia en el .C
 8002364:	484e      	ldr	r0, [pc, #312]	@ (80024a0 <main+0x598>)
 8002366:	f006 fb87 	bl	8008a78 <CDC_Attach_Rx>
  	HAL_TIM_Base_Start_IT(&htim1);
 800236a:	484e      	ldr	r0, [pc, #312]	@ (80024a4 <main+0x59c>)
 800236c:	f004 faa0 	bl	80068b0 <HAL_TIM_Base_Start_IT>
  	HAL_TIM_Base_Start_IT(&htim2);
 8002370:	484d      	ldr	r0, [pc, #308]	@ (80024a8 <main+0x5a0>)
 8002372:	f004 fa9d 	bl	80068b0 <HAL_TIM_Base_Start_IT>
  	HAL_TIM_Base_Start_IT(&htim3);
 8002376:	4841      	ldr	r0, [pc, #260]	@ (800247c <main+0x574>)
 8002378:	f004 fa9a 	bl	80068b0 <HAL_TIM_Base_Start_IT>
  	HAL_TIM_PWM_Start(&htim3, TIM_CHANNEL_1);
 800237c:	4621      	mov	r1, r4
 800237e:	483f      	ldr	r0, [pc, #252]	@ (800247c <main+0x574>)
 8002380:	f004 fdec 	bl	8006f5c <HAL_TIM_PWM_Start>
  	HAL_TIM_PWM_Start(&htim3, TIM_CHANNEL_2);
 8002384:	2104      	movs	r1, #4
 8002386:	483d      	ldr	r0, [pc, #244]	@ (800247c <main+0x574>)
 8002388:	f004 fde8 	bl	8006f5c <HAL_TIM_PWM_Start>
  	HAL_TIM_PWM_Start(&htim3, TIM_CHANNEL_3);
 800238c:	2108      	movs	r1, #8
 800238e:	483b      	ldr	r0, [pc, #236]	@ (800247c <main+0x574>)
 8002390:	f004 fde4 	bl	8006f5c <HAL_TIM_PWM_Start>
  	HAL_TIM_PWM_Start(&htim3, TIM_CHANNEL_4);
 8002394:	210c      	movs	r1, #12
 8002396:	4839      	ldr	r0, [pc, #228]	@ (800247c <main+0x574>)
 8002398:	f004 fde0 	bl	8006f5c <HAL_TIM_PWM_Start>
  	HAL_GPIO_WritePin(LED_GPIO_Port, LED_Pin, GPIO_PIN_SET); //Apagamos el LED
 800239c:	f44f 5100 	mov.w	r1, #8192	@ 0x2000
 80023a0:	2201      	movs	r2, #1
 80023a2:	4842      	ldr	r0, [pc, #264]	@ (80024ac <main+0x5a4>)
 80023a4:	f001 fccc 	bl	8003d40 <HAL_GPIO_WritePin>
  	ssd1306_ADC_ConfCpltCallback(&ssd1306_TxCplt);
 80023a8:	4841      	ldr	r0, [pc, #260]	@ (80024b0 <main+0x5a8>)
 80023aa:	f000 f9d5 	bl	8002758 <ssd1306_ADC_ConfCpltCallback>
  	ssd1306_Attach_MemWrite(displayMemWrite);
 80023ae:	4841      	ldr	r0, [pc, #260]	@ (80024b4 <main+0x5ac>)
 80023b0:	f000 f9cc 	bl	800274c <ssd1306_Attach_MemWrite>
  	ssd1306_Attach_MemWriteDMA(displayMemWriteDMA);
 80023b4:	4840      	ldr	r0, [pc, #256]	@ (80024b8 <main+0x5b0>)
 80023b6:	f000 f9c3 	bl	8002740 <ssd1306_Attach_MemWriteDMA>
  	ssd1306_Init();
 80023ba:	f000 fb51 	bl	8002a60 <ssd1306_Init>
  	mpu6050_ADC_ConfCpltCallback(&mpu6050_RxCplt);
 80023be:	483f      	ldr	r0, [pc, #252]	@ (80024bc <main+0x5b4>)
 80023c0:	f000 f8cc 	bl	800255c <mpu6050_ADC_ConfCpltCallback>
  	mpu6050_Attach_MemWrite(mpuMemWrite);
 80023c4:	483e      	ldr	r0, [pc, #248]	@ (80024c0 <main+0x5b8>)
 80023c6:	f000 f8cf 	bl	8002568 <mpu6050_Attach_MemWrite>
  	mpu6050_Attach_MemReadDMA(mpuMemReadDMA);
 80023ca:	483e      	ldr	r0, [pc, #248]	@ (80024c4 <main+0x5bc>)
 80023cc:	f000 f8d2 	bl	8002574 <mpu6050_Attach_MemReadDMA>
  	mpu6050_Init();
 80023d0:	f000 f8ee 	bl	80025b0 <mpu6050_Init>
  	esp01Handler.DoCHPD = CHPD_Control;
 80023d4:	4a3c      	ldr	r2, [pc, #240]	@ (80024c8 <main+0x5c0>)
 80023d6:	4b3d      	ldr	r3, [pc, #244]	@ (80024cc <main+0x5c4>)
  	ESP01_Init(&esp01Handler);
 80023d8:	4610      	mov	r0, r2
  	esp01Handler.DoCHPD = CHPD_Control;
 80023da:	6013      	str	r3, [r2, #0]
 	esp01Handler.WriteUSARTByte = USART_SendByte;
 80023dc:	4b3c      	ldr	r3, [pc, #240]	@ (80024d0 <main+0x5c8>)
 80023de:	6053      	str	r3, [r2, #4]
 	esp01Handler.WriteByteToBufRX = WiFi_Data_Callback;
 80023e0:	4b3c      	ldr	r3, [pc, #240]	@ (80024d4 <main+0x5cc>)
 80023e2:	6093      	str	r3, [r2, #8]
  	ESP01_Init(&esp01Handler);
 80023e4:	f7fe f81a 	bl	800041c <ESP01_Init>
  	ESP01_AttachDebugStr(DebugESP01_To_USB);
 80023e8:	483b      	ldr	r0, [pc, #236]	@ (80024d8 <main+0x5d0>)
 80023ea:	f7fe fce5 	bl	8000db8 <ESP01_AttachDebugStr>
  	ESP01_AttachChangeState(OnESP01ChangeState); /* Inicia UDP automaticamente al conectar */
 80023ee:	483b      	ldr	r0, [pc, #236]	@ (80024dc <main+0x5d4>)
 80023f0:	f7fe fcdc 	bl	8000dac <ESP01_AttachChangeState>
  	HAL_UART_Receive_IT(&huart1, &byteUART_ESP01, 1); //non blocking
 80023f4:	2201      	movs	r2, #1
 80023f6:	493a      	ldr	r1, [pc, #232]	@ (80024e0 <main+0x5d8>)
 80023f8:	4822      	ldr	r0, [pc, #136]	@ (8002484 <main+0x57c>)
 80023fa:	f005 f85a 	bl	80074b2 <HAL_UART_Receive_IT>
  	isWebserverMode = FALSE;
 80023fe:	4b39      	ldr	r3, [pc, #228]	@ (80024e4 <main+0x5dc>)
  	ESP01_SetWIFI("ARPANET", "1969-Apolo_11-2022");
 8002400:	4939      	ldr	r1, [pc, #228]	@ (80024e8 <main+0x5e0>)
 8002402:	483a      	ldr	r0, [pc, #232]	@ (80024ec <main+0x5e4>)
  	isWebserverMode = FALSE;
 8002404:	701c      	strb	r4, [r3, #0]
  	ESP01_SetWIFI("ARPANET", "1969-Apolo_11-2022");
 8002406:	f7fd fed7 	bl	80001b8 <ESP01_SetWIFI>
  	unerPrtcl_Init(&USBRx, &USBTx, buffUSBRx, buffUSBTx);
 800240a:	4b39      	ldr	r3, [pc, #228]	@ (80024f0 <main+0x5e8>)
 800240c:	4a39      	ldr	r2, [pc, #228]	@ (80024f4 <main+0x5ec>)
 800240e:	493a      	ldr	r1, [pc, #232]	@ (80024f8 <main+0x5f0>)
 8002410:	483a      	ldr	r0, [pc, #232]	@ (80024fc <main+0x5f4>)
 8002412:	f000 fec6 	bl	80031a2 <unerPrtcl_Init>
  	unerPrtcl_Init(&WiFiRx, &WiFiTx, buffWiFiRx, buffWiFiTx);
 8002416:	4b3a      	ldr	r3, [pc, #232]	@ (8002500 <main+0x5f8>)
 8002418:	4a3a      	ldr	r2, [pc, #232]	@ (8002504 <main+0x5fc>)
 800241a:	493b      	ldr	r1, [pc, #236]	@ (8002508 <main+0x600>)
 800241c:	483b      	ldr	r0, [pc, #236]	@ (800250c <main+0x604>)
 800241e:	f000 fec0 	bl	80031a2 <unerPrtcl_Init>
    button->currentState = BUTTON_UP;
 8002422:	f240 2201 	movw	r2, #513	@ 0x201
  	ALLFLAGS = RESET;
 8002426:	4b3a      	ldr	r3, [pc, #232]	@ (8002510 <main+0x608>)
 8002428:	701c      	strb	r4, [r3, #0]
  	chnl_1=0;
 800242a:	4b3a      	ldr	r3, [pc, #232]	@ (8002514 <main+0x60c>)
 800242c:	701c      	strb	r4, [r3, #0]
  	chnl_3=0;
 800242e:	4b3a      	ldr	r3, [pc, #232]	@ (8002518 <main+0x610>)
 8002430:	701c      	strb	r4, [r3, #0]
  	chnl_2=0;
 8002432:	4b3a      	ldr	r3, [pc, #232]	@ (800251c <main+0x614>)
 8002434:	701c      	strb	r4, [r3, #0]
  	chnl_4=0;
 8002436:	4b3a      	ldr	r3, [pc, #232]	@ (8002520 <main+0x618>)
 8002438:	701c      	strb	r4, [r3, #0]
    button->currentState = BUTTON_UP;
 800243a:	4b3a      	ldr	r3, [pc, #232]	@ (8002524 <main+0x61c>)
 800243c:	801a      	strh	r2, [r3, #0]
    button->isPressed = FALSE;
 800243e:	709c      	strb	r4, [r3, #2]
    button->time = 0;
 8002440:	809c      	strh	r4, [r3, #4]
	do10ms();
 8002442:	f7ff fbbd 	bl	8001bc0 <do10ms>
	ESP01_Task();
 8002446:	f7fe f83d 	bl	80004c4 <ESP01_Task>
	httpTask();
 800244a:	f7ff faf7 	bl	8001a3c <httpTask>
	COMMTask(&USBRx, &USBTx, SERIE);
 800244e:	2200      	movs	r2, #0
 8002450:	4929      	ldr	r1, [pc, #164]	@ (80024f8 <main+0x5f0>)
 8002452:	482a      	ldr	r0, [pc, #168]	@ (80024fc <main+0x5f4>)
 8002454:	f7ff f81e 	bl	8001494 <COMMTask>
	COMMTask(&WiFiRx, &WiFiTx, WIFI);
 8002458:	2201      	movs	r2, #1
 800245a:	492b      	ldr	r1, [pc, #172]	@ (8002508 <main+0x600>)
 800245c:	482b      	ldr	r0, [pc, #172]	@ (800250c <main+0x604>)
 800245e:	f7ff f819 	bl	8001494 <COMMTask>
	PWM_Control();
 8002462:	f7ff fa09 	bl	8001878 <PWM_Control>
	i2cTask();
 8002466:	f7ff f99d 	bl	80017a4 <i2cTask>
	PID_ControlTask();
 800246a:	f7ff fc0f 	bl	8001c8c <PID_ControlTask>
	buttonTask(&myButton);
 800246e:	482d      	ldr	r0, [pc, #180]	@ (8002524 <main+0x61c>)
 8002470:	f7ff fbf8 	bl	8001c64 <buttonTask>
	updateMefTask(&myButton);
 8002474:	f7ff fb5e 	bl	8001b34 <updateMefTask>
  while (1)
 8002478:	e7e3      	b.n	8002442 <main+0x53a>
 800247a:	bf00      	nop
 800247c:	20000d14 	.word	0x20000d14
 8002480:	40000400 	.word	0x40000400
 8002484:	20000c84 	.word	0x20000c84
 8002488:	40013800 	.word	0x40013800
 800248c:	20000e74 	.word	0x20000e74
 8002490:	40005800 	.word	0x40005800
 8002494:	00061a80 	.word	0x00061a80
 8002498:	20000ccc 	.word	0x20000ccc
 800249c:	40000800 	.word	0x40000800
 80024a0:	08000dc5 	.word	0x08000dc5
 80024a4:	20000da4 	.word	0x20000da4
 80024a8:	20000d5c 	.word	0x20000d5c
 80024ac:	40011000 	.word	0x40011000
 80024b0:	20000829 	.word	0x20000829
 80024b4:	08000e15 	.word	0x08000e15
 80024b8:	08000e3d 	.word	0x08000e3d
 80024bc:	20000828 	.word	0x20000828
 80024c0:	08000e39 	.word	0x08000e39
 80024c4:	08000e59 	.word	0x08000e59
 80024c8:	200007f8 	.word	0x200007f8
 80024cc:	08000e01 	.word	0x08000e01
 80024d0:	08000e75 	.word	0x08000e75
 80024d4:	08000ea9 	.word	0x08000ea9
 80024d8:	08000e95 	.word	0x08000e95
 80024dc:	08000df1 	.word	0x08000df1
 80024e0:	20000804 	.word	0x20000804
 80024e4:	2000076d 	.word	0x2000076d
 80024e8:	08009bc8 	.word	0x08009bc8
 80024ec:	08009bdb 	.word	0x08009bdb
 80024f0:	20000b30 	.word	0x20000b30
 80024f4:	20000a30 	.word	0x20000a30
 80024f8:	20000c54 	.word	0x20000c54
 80024fc:	20000c48 	.word	0x20000c48
 8002500:	20000930 	.word	0x20000930
 8002504:	20000830 	.word	0x20000830
 8002508:	20000c3c 	.word	0x20000c3c
 800250c:	20000c30 	.word	0x20000c30
 8002510:	2000082a 	.word	0x2000082a
 8002514:	2000080a 	.word	0x2000080a
 8002518:	20000808 	.word	0x20000808
 800251c:	20000809 	.word	0x20000809
 8002520:	20000807 	.word	0x20000807
 8002524:	200007f0 	.word	0x200007f0

08002528 <HAL_UART_RxCpltCallback>:
    if (huart->Instance == USART1)
 8002528:	6802      	ldr	r2, [r0, #0]
 800252a:	4b08      	ldr	r3, [pc, #32]	@ (800254c <HAL_UART_RxCpltCallback+0x24>)
{
 800252c:	b510      	push	{r4, lr}
    if (huart->Instance == USART1)
 800252e:	429a      	cmp	r2, r3
 8002530:	d10a      	bne.n	8002548 <HAL_UART_RxCpltCallback+0x20>
        FeedRxBuf(byteUART_ESP01);
 8002532:	4c07      	ldr	r4, [pc, #28]	@ (8002550 <HAL_UART_RxCpltCallback+0x28>)
    ESP01_WriteRX(byte);
 8002534:	7820      	ldrb	r0, [r4, #0]
 8002536:	f7fd fecb 	bl	80002d0 <ESP01_WriteRX>
        HAL_UART_Receive_IT(&huart1, &byteUART_ESP01, 1);
 800253a:	4621      	mov	r1, r4
}
 800253c:	e8bd 4010 	ldmia.w	sp!, {r4, lr}
        HAL_UART_Receive_IT(&huart1, &byteUART_ESP01, 1);
 8002540:	2201      	movs	r2, #1
 8002542:	4804      	ldr	r0, [pc, #16]	@ (8002554 <HAL_UART_RxCpltCallback+0x2c>)
 8002544:	f004 bfb5 	b.w	80074b2 <HAL_UART_Receive_IT>
}
 8002548:	bd10      	pop	{r4, pc}
 800254a:	bf00      	nop
 800254c:	40013800 	.word	0x40013800
 8002550:	20000804 	.word	0x20000804
 8002554:	20000c84 	.word	0x20000c84

08002558 <Error_Handler>:
 8002558:	b672      	cpsid	i
  while (1)
 800255a:	e7fe      	b.n	800255a <Error_Handler+0x2>

0800255c <mpu6050_ADC_ConfCpltCallback>:

// Variables RAW leídas directamente del sensor (int16_t = complemento a dos)
static int32_t ax, ay, az, gx, gy, gz;

void mpu6050_ADC_ConfCpltCallback(volatile uint8_t *PtrRx){
	mpu6050_RxCplt = (uint8_t *)PtrRx;
 800255c:	4b01      	ldr	r3, [pc, #4]	@ (8002564 <mpu6050_ADC_ConfCpltCallback+0x8>)
 800255e:	6018      	str	r0, [r3, #0]
}
 8002560:	4770      	bx	lr
 8002562:	bf00      	nop
 8002564:	20000f6c 	.word	0x20000f6c

08002568 <mpu6050_Attach_MemWrite>:

void mpu6050_Attach_MemWrite(void(*PtrRx)(uint8_t address, uint8_t *data, uint8_t size, uint8_t type)){
	memWrite = PtrRx;
 8002568:	4b01      	ldr	r3, [pc, #4]	@ (8002570 <mpu6050_Attach_MemWrite+0x8>)
 800256a:	6018      	str	r0, [r3, #0]
}
 800256c:	4770      	bx	lr
 800256e:	bf00      	nop
 8002570:	20000f68 	.word	0x20000f68

08002574 <mpu6050_Attach_MemReadDMA>:

void mpu6050_Attach_MemReadDMA(void(*PtrRx)(uint8_t address, uint8_t *data, uint8_t size, uint8_t type)){
	memReadDMA = PtrRx;
 8002574:	4b01      	ldr	r3, [pc, #4]	@ (800257c <mpu6050_Attach_MemReadDMA+0x8>)
 8002576:	6018      	str	r0, [r3, #0]
}
 8002578:	4770      	bx	lr
 800257a:	bf00      	nop
 800257c:	20000f64 	.word	0x20000f64

08002580 <mpu6050_WriteData>:


//Send init command
void mpu6050_WriteData(uint8_t *byte, uint8_t type) {
	memWrite(MPU6050_ADDR, byte, 1, type);
 8002580:	4a04      	ldr	r2, [pc, #16]	@ (8002594 <mpu6050_WriteData+0x14>)
void mpu6050_WriteData(uint8_t *byte, uint8_t type) {
 8002582:	b410      	push	{r4}
	memWrite(MPU6050_ADDR, byte, 1, type);
 8002584:	6814      	ldr	r4, [r2, #0]
void mpu6050_WriteData(uint8_t *byte, uint8_t type) {
 8002586:	460b      	mov	r3, r1
	memWrite(MPU6050_ADDR, byte, 1, type);
 8002588:	46a4      	mov	ip, r4
 800258a:	4601      	mov	r1, r0
 800258c:	2201      	movs	r2, #1
 800258e:	20d0      	movs	r0, #208	@ 0xd0
	//HAL_I2C_Mem_Write(&SSD1306_I2C_PORT, SSD1306_I2C_ADDR, 0x00, 1, &byte, 1, HAL_MAX_DELAY);
}
 8002590:	bc10      	pop	{r4}
	memWrite(MPU6050_ADDR, byte, 1, type);
 8002592:	4760      	bx	ip
 8002594:	20000f68 	.word	0x20000f68

08002598 <mpu6050_ReadDataDMA>:

void mpu6050_ReadDataDMA(uint8_t* buffer, size_t size, uint8_t type) {
 8002598:	4613      	mov	r3, r2
	memReadDMA(MPU6050_ADDR, buffer, size, type);
 800259a:	4a04      	ldr	r2, [pc, #16]	@ (80025ac <mpu6050_ReadDataDMA+0x14>)
void mpu6050_ReadDataDMA(uint8_t* buffer, size_t size, uint8_t type) {
 800259c:	b410      	push	{r4}
	memReadDMA(MPU6050_ADDR, buffer, size, type);
 800259e:	6814      	ldr	r4, [r2, #0]
 80025a0:	b2ca      	uxtb	r2, r1
 80025a2:	46a4      	mov	ip, r4
 80025a4:	4601      	mov	r1, r0
	//HAL_I2C_Mem_Read(&hi2c1, MPU6050_ADDR, GYRO_XOUT_H_REG, 1, Rec_Data,14, 1000);
}
 80025a6:	bc10      	pop	{r4}
	memReadDMA(MPU6050_ADDR, buffer, size, type);
 80025a8:	20d0      	movs	r0, #208	@ 0xd0
 80025aa:	4760      	bx	ip
 80025ac:	20000f64 	.word	0x20000f64

080025b0 <mpu6050_Init>:


void mpu6050_Init(void)
{
 80025b0:	b513      	push	{r0, r1, r4, lr}
    uint8_t data;

    // Salir del modo de bajo consumo (modo sleep)
    // Escritura en el registro PWR_MGMT_1 (0x6B)
    data = 0x00;
 80025b2:	2400      	movs	r4, #0
    //HAL_I2C_Mem_Write(&hi2c1, MPU6050_ADDR, PWR_MGMT_1_REG, 1, &data, 1, HAL_MAX_DELAY);
    mpu6050_WriteData(&data, PWR_MGMT_1_REG);
 80025b4:	f10d 0007 	add.w	r0, sp, #7
 80025b8:	216b      	movs	r1, #107	@ 0x6b
    data = 0x00;
 80025ba:	f88d 4007 	strb.w	r4, [sp, #7]
    mpu6050_WriteData(&data, PWR_MGMT_1_REG);
 80025be:	f7ff ffdf 	bl	8002580 <mpu6050_WriteData>

    // Habilitar el Digital Low Pass Filter (DLPF) a ~44Hz
	data = 0x04;
 80025c2:	2304      	movs	r3, #4
	mpu6050_WriteData(&data, CONFIG_REG);
 80025c4:	f10d 0007 	add.w	r0, sp, #7
 80025c8:	211a      	movs	r1, #26
	data = 0x04;
 80025ca:	f88d 3007 	strb.w	r3, [sp, #7]
	mpu6050_WriteData(&data, CONFIG_REG);
 80025ce:	f7ff ffd7 	bl	8002580 <mpu6050_WriteData>

    // Configurar acelerómetro con rango ±2g (registro ACCEL_CONFIG = 0x1C, valor 0x00)
    data = 0x00;
    //HAL_I2C_Mem_Write(&hi2c1, MPU6050_ADDR, ACCEL_CONFIG_REG, 1, &data, 1, HAL_MAX_DELAY);
    mpu6050_WriteData(&data, ACCEL_CONFIG_REG);
 80025d2:	f10d 0007 	add.w	r0, sp, #7
 80025d6:	211c      	movs	r1, #28
    data = 0x00;
 80025d8:	f88d 4007 	strb.w	r4, [sp, #7]
    mpu6050_WriteData(&data, ACCEL_CONFIG_REG);
 80025dc:	f7ff ffd0 	bl	8002580 <mpu6050_WriteData>

    //Configurar giroscopio con rango ±250°/s (registro GYRO_CONFIG = 0x1B, valor 0x00)
    //data = 0x00;
    //HAL_I2C_Mem_Write(&hi2c1, MPU6050_ADDR, GYRO_CONFIG_REG, 1, &data, 1, HAL_MAX_DELAY);
    mpu6050_WriteData(&data, GYRO_CONFIG_REG);
 80025e0:	211b      	movs	r1, #27
 80025e2:	f10d 0007 	add.w	r0, sp, #7
 80025e6:	f7ff ffcb 	bl	8002580 <mpu6050_WriteData>

}
 80025ea:	b002      	add	sp, #8
 80025ec:	bd10      	pop	{r4, pc}
	...

080025f0 <mpu6050_Read>:

char mpu6050_Read(void)
{
 80025f0:	b508      	push	{r3, lr}
	static uint8_t Rec_Data[14];
	static uint8_t state = 1;

	if (*mpu6050_RxCplt || state == 1) {
 80025f2:	4b1a      	ldr	r3, [pc, #104]	@ (800265c <mpu6050_Read+0x6c>)
 80025f4:	6819      	ldr	r1, [r3, #0]
 80025f6:	4b1a      	ldr	r3, [pc, #104]	@ (8002660 <mpu6050_Read+0x70>)
 80025f8:	7808      	ldrb	r0, [r1, #0]
 80025fa:	781a      	ldrb	r2, [r3, #0]
 80025fc:	b918      	cbnz	r0, 8002606 <mpu6050_Read+0x16>
 80025fe:	2a01      	cmp	r2, #1
 8002600:	d023      	beq.n	800264a <mpu6050_Read+0x5a>

			return 1;
			break;
		}
	}
	return 0;
 8002602:	2000      	movs	r0, #0
}
 8002604:	bd08      	pop	{r3, pc}
		*mpu6050_RxCplt = 0;  // Reset completion flag
 8002606:	2000      	movs	r0, #0
		switch (state) {
 8002608:	2a01      	cmp	r2, #1
		*mpu6050_RxCplt = 0;  // Reset completion flag
 800260a:	7008      	strb	r0, [r1, #0]
		switch (state) {
 800260c:	d01d      	beq.n	800264a <mpu6050_Read+0x5a>
 800260e:	2a02      	cmp	r2, #2
 8002610:	d1f7      	bne.n	8002602 <mpu6050_Read+0x12>
			state=1;
 8002612:	2001      	movs	r0, #1
 8002614:	7018      	strb	r0, [r3, #0]
			ax = (int16_t) (Rec_Data[0] << 8 | Rec_Data[1]);
 8002616:	4b13      	ldr	r3, [pc, #76]	@ (8002664 <mpu6050_Read+0x74>)
 8002618:	4913      	ldr	r1, [pc, #76]	@ (8002668 <mpu6050_Read+0x78>)
 800261a:	881a      	ldrh	r2, [r3, #0]
 800261c:	bad2      	revsh	r2, r2
 800261e:	600a      	str	r2, [r1, #0]
			ay = (int16_t) (Rec_Data[2] << 8 | Rec_Data[3]);
 8002620:	885a      	ldrh	r2, [r3, #2]
 8002622:	4912      	ldr	r1, [pc, #72]	@ (800266c <mpu6050_Read+0x7c>)
 8002624:	bad2      	revsh	r2, r2
 8002626:	600a      	str	r2, [r1, #0]
			az = (int16_t) (Rec_Data[4] << 8 | Rec_Data[5]);
 8002628:	889a      	ldrh	r2, [r3, #4]
 800262a:	4911      	ldr	r1, [pc, #68]	@ (8002670 <mpu6050_Read+0x80>)
 800262c:	bad2      	revsh	r2, r2
 800262e:	600a      	str	r2, [r1, #0]
			gx = (int16_t) (Rec_Data[8] << 8 | Rec_Data[9]);
 8002630:	891a      	ldrh	r2, [r3, #8]
 8002632:	4910      	ldr	r1, [pc, #64]	@ (8002674 <mpu6050_Read+0x84>)
 8002634:	bad2      	revsh	r2, r2
 8002636:	600a      	str	r2, [r1, #0]
			gy = (int16_t) (Rec_Data[10] << 8 | Rec_Data[11]);
 8002638:	895a      	ldrh	r2, [r3, #10]
 800263a:	490f      	ldr	r1, [pc, #60]	@ (8002678 <mpu6050_Read+0x88>)
 800263c:	bad2      	revsh	r2, r2
			gz = (int16_t) (Rec_Data[12] << 8 | Rec_Data[13]);
 800263e:	899b      	ldrh	r3, [r3, #12]
			gy = (int16_t) (Rec_Data[10] << 8 | Rec_Data[11]);
 8002640:	600a      	str	r2, [r1, #0]
			gz = (int16_t) (Rec_Data[12] << 8 | Rec_Data[13]);
 8002642:	4a0e      	ldr	r2, [pc, #56]	@ (800267c <mpu6050_Read+0x8c>)
 8002644:	badb      	revsh	r3, r3
 8002646:	6013      	str	r3, [r2, #0]
			return 1;
 8002648:	e7dc      	b.n	8002604 <mpu6050_Read+0x14>
			state=2;
 800264a:	2202      	movs	r2, #2
			mpu6050_ReadDataDMA(Rec_Data, 14, ACCEL_XOUT_H_REG);
 800264c:	210e      	movs	r1, #14
			state=2;
 800264e:	701a      	strb	r2, [r3, #0]
			mpu6050_ReadDataDMA(Rec_Data, 14, ACCEL_XOUT_H_REG);
 8002650:	4804      	ldr	r0, [pc, #16]	@ (8002664 <mpu6050_Read+0x74>)
 8002652:	223b      	movs	r2, #59	@ 0x3b
 8002654:	f7ff ffa0 	bl	8002598 <mpu6050_ReadDataDMA>
			break;
 8002658:	e7d3      	b.n	8002602 <mpu6050_Read+0x12>
 800265a:	bf00      	nop
 800265c:	20000f6c 	.word	0x20000f6c
 8002660:	20000068 	.word	0x20000068
 8002664:	20000f3c 	.word	0x20000f3c
 8002668:	20000f60 	.word	0x20000f60
 800266c:	20000f5c 	.word	0x20000f5c
 8002670:	20000f58 	.word	0x20000f58
 8002674:	20000f54 	.word	0x20000f54
 8002678:	20000f50 	.word	0x20000f50
 800267c:	20000f4c 	.word	0x20000f4c

08002680 <mpu6050_GetData>:

void mpu6050_GetData(int16_t *ax_out, int16_t *ay_out, int16_t *az_out, int16_t *gx_out, int16_t *gy_out, int16_t *gz_out) {
 8002680:	b570      	push	{r4, r5, r6, lr}
 8002682:	e9dd 5404 	ldrd	r5, r4, [sp, #16]
    // Pasamos las variables RAW estáticas directamente al main
    if (ax_out) *ax_out = ax;
 8002686:	b110      	cbz	r0, 800268e <mpu6050_GetData+0xe>
 8002688:	4e0b      	ldr	r6, [pc, #44]	@ (80026b8 <mpu6050_GetData+0x38>)
 800268a:	6836      	ldr	r6, [r6, #0]
 800268c:	8006      	strh	r6, [r0, #0]
    if (ay_out) *ay_out = ay;
 800268e:	b111      	cbz	r1, 8002696 <mpu6050_GetData+0x16>
 8002690:	480a      	ldr	r0, [pc, #40]	@ (80026bc <mpu6050_GetData+0x3c>)
 8002692:	6800      	ldr	r0, [r0, #0]
 8002694:	8008      	strh	r0, [r1, #0]
    if (az_out) *az_out = az;
 8002696:	b112      	cbz	r2, 800269e <mpu6050_GetData+0x1e>
 8002698:	4909      	ldr	r1, [pc, #36]	@ (80026c0 <mpu6050_GetData+0x40>)
 800269a:	6809      	ldr	r1, [r1, #0]
 800269c:	8011      	strh	r1, [r2, #0]

    if (gx_out) *gx_out = gx;
 800269e:	b113      	cbz	r3, 80026a6 <mpu6050_GetData+0x26>
 80026a0:	4a08      	ldr	r2, [pc, #32]	@ (80026c4 <mpu6050_GetData+0x44>)
 80026a2:	6812      	ldr	r2, [r2, #0]
 80026a4:	801a      	strh	r2, [r3, #0]
    if (gy_out) *gy_out = gy;
 80026a6:	b115      	cbz	r5, 80026ae <mpu6050_GetData+0x2e>
 80026a8:	4b07      	ldr	r3, [pc, #28]	@ (80026c8 <mpu6050_GetData+0x48>)
 80026aa:	681b      	ldr	r3, [r3, #0]
 80026ac:	802b      	strh	r3, [r5, #0]
    if (gz_out) *gz_out = gz;
 80026ae:	b114      	cbz	r4, 80026b6 <mpu6050_GetData+0x36>
 80026b0:	4b06      	ldr	r3, [pc, #24]	@ (80026cc <mpu6050_GetData+0x4c>)
 80026b2:	681b      	ldr	r3, [r3, #0]
 80026b4:	8023      	strh	r3, [r4, #0]
}
 80026b6:	bd70      	pop	{r4, r5, r6, pc}
 80026b8:	20000f60 	.word	0x20000f60
 80026bc:	20000f5c 	.word	0x20000f5c
 80026c0:	20000f58 	.word	0x20000f58
 80026c4:	20000f54 	.word	0x20000f54
 80026c8:	20000f50 	.word	0x20000f50
 80026cc:	20000f4c 	.word	0x20000f4c

080026d0 <ssd1306_WriteCommand>:
void ssd1306_Reset(void) {
    /* for I2C - do nothing */
}

// Send a byte to the command register
void ssd1306_WriteCommand(uint8_t byte) {
 80026d0:	b513      	push	{r0, r1, r4, lr}
	memWrite(SSD1306_I2C_ADDR, &byte, 1, 0x00);
 80026d2:	4b06      	ldr	r3, [pc, #24]	@ (80026ec <ssd1306_WriteCommand+0x1c>)
void ssd1306_WriteCommand(uint8_t byte) {
 80026d4:	f88d 0007 	strb.w	r0, [sp, #7]
	memWrite(SSD1306_I2C_ADDR, &byte, 1, 0x00);
 80026d8:	681c      	ldr	r4, [r3, #0]
 80026da:	2201      	movs	r2, #1
 80026dc:	2300      	movs	r3, #0
 80026de:	2078      	movs	r0, #120	@ 0x78
 80026e0:	f10d 0107 	add.w	r1, sp, #7
 80026e4:	47a0      	blx	r4
	//HAL_I2C_Mem_Write(&SSD1306_I2C_PORT, SSD1306_I2C_ADDR, 0x00, 1, &byte, 1, HAL_MAX_DELAY);
}
 80026e6:	b002      	add	sp, #8
 80026e8:	bd10      	pop	{r4, pc}
 80026ea:	bf00      	nop
 80026ec:	2000137c 	.word	0x2000137c

080026f0 <ssd1306_WriteCommandDMA>:

void ssd1306_WriteCommandDMA(uint8_t byte) {
 80026f0:	b513      	push	{r0, r1, r4, lr}
	memWriteDMA(SSD1306_I2C_ADDR, &byte, 1, 0x00);
 80026f2:	4b06      	ldr	r3, [pc, #24]	@ (800270c <ssd1306_WriteCommandDMA+0x1c>)
void ssd1306_WriteCommandDMA(uint8_t byte) {
 80026f4:	f88d 0007 	strb.w	r0, [sp, #7]
	memWriteDMA(SSD1306_I2C_ADDR, &byte, 1, 0x00);
 80026f8:	681c      	ldr	r4, [r3, #0]
 80026fa:	2201      	movs	r2, #1
 80026fc:	2300      	movs	r3, #0
 80026fe:	2078      	movs	r0, #120	@ 0x78
 8002700:	f10d 0107 	add.w	r1, sp, #7
 8002704:	47a0      	blx	r4
	//HAL_I2C_Mem_Write_DMA(&SSD1306_I2C_PORT, SSD1306_I2C_ADDR, 0x00, 1, &byte, 1);
}
 8002706:	b002      	add	sp, #8
 8002708:	bd10      	pop	{r4, pc}
 800270a:	bf00      	nop
 800270c:	20001378 	.word	0x20001378

08002710 <ssd1306_WriteData>:

// Send data
void ssd1306_WriteData(uint8_t* buffer, size_t buff_size) {
    memWrite(SSD1306_I2C_ADDR, buffer, buff_size, 0x40);
 8002710:	4b04      	ldr	r3, [pc, #16]	@ (8002724 <ssd1306_WriteData+0x14>)
void ssd1306_WriteData(uint8_t* buffer, size_t buff_size) {
 8002712:	b410      	push	{r4}
    memWrite(SSD1306_I2C_ADDR, buffer, buff_size, 0x40);
 8002714:	681c      	ldr	r4, [r3, #0]
 8002716:	b2ca      	uxtb	r2, r1
 8002718:	46a4      	mov	ip, r4
 800271a:	4601      	mov	r1, r0
 800271c:	2340      	movs	r3, #64	@ 0x40
 800271e:	2078      	movs	r0, #120	@ 0x78
	//HAL_I2C_Mem_Write(&SSD1306_I2C_PORT, SSD1306_I2C_ADDR, 0x40, 1, buffer, buff_size, HAL_MAX_DELAY);
}
 8002720:	bc10      	pop	{r4}
    memWrite(SSD1306_I2C_ADDR, buffer, buff_size, 0x40);
 8002722:	4760      	bx	ip
 8002724:	2000137c 	.word	0x2000137c

08002728 <ssd1306_WriteDataDMA>:

void ssd1306_WriteDataDMA(uint8_t* buffer, size_t buff_size) {
	memWriteDMA(SSD1306_I2C_ADDR, buffer, buff_size, 0x40);
 8002728:	4b04      	ldr	r3, [pc, #16]	@ (800273c <ssd1306_WriteDataDMA+0x14>)
void ssd1306_WriteDataDMA(uint8_t* buffer, size_t buff_size) {
 800272a:	b410      	push	{r4}
	memWriteDMA(SSD1306_I2C_ADDR, buffer, buff_size, 0x40);
 800272c:	681c      	ldr	r4, [r3, #0]
 800272e:	b2ca      	uxtb	r2, r1
 8002730:	46a4      	mov	ip, r4
 8002732:	4601      	mov	r1, r0
 8002734:	2340      	movs	r3, #64	@ 0x40
 8002736:	2078      	movs	r0, #120	@ 0x78
	//HAL_I2C_Mem_Write_DMA(&SSD1306_I2C_PORT, SSD1306_I2C_ADDR, 0x40, 1, buffer, buff_size);
}
 8002738:	bc10      	pop	{r4}
	memWriteDMA(SSD1306_I2C_ADDR, buffer, buff_size, 0x40);
 800273a:	4760      	bx	ip
 800273c:	20001378 	.word	0x20001378

08002740 <ssd1306_Attach_MemWriteDMA>:
    }
    return ret;
}

void ssd1306_Attach_MemWriteDMA(void(*PtrRx)(uint8_t address, uint8_t *data, uint8_t size, uint8_t type)){
	memWriteDMA = PtrRx;
 8002740:	4b01      	ldr	r3, [pc, #4]	@ (8002748 <ssd1306_Attach_MemWriteDMA+0x8>)
 8002742:	6018      	str	r0, [r3, #0]
}
 8002744:	4770      	bx	lr
 8002746:	bf00      	nop
 8002748:	20001378 	.word	0x20001378

0800274c <ssd1306_Attach_MemWrite>:

void ssd1306_Attach_MemWrite(void(*PtrRx)(uint8_t address, uint8_t *data, uint8_t size, uint8_t type)){
	memWrite = PtrRx;
 800274c:	4b01      	ldr	r3, [pc, #4]	@ (8002754 <ssd1306_Attach_MemWrite+0x8>)
 800274e:	6018      	str	r0, [r3, #0]
}
 8002750:	4770      	bx	lr
 8002752:	bf00      	nop
 8002754:	2000137c 	.word	0x2000137c

08002758 <ssd1306_ADC_ConfCpltCallback>:

void ssd1306_ADC_ConfCpltCallback(volatile uint8_t *PtrRx){
	SSD1306_TxCplt = (uint8_t *)PtrRx;
 8002758:	4b01      	ldr	r3, [pc, #4]	@ (8002760 <ssd1306_ADC_ConfCpltCallback+0x8>)
 800275a:	6018      	str	r0, [r3, #0]
}
 800275c:	4770      	bx	lr
 800275e:	bf00      	nop
 8002760:	20001380 	.word	0x20001380

08002764 <ssd1306_Fill>:
    SSD1306.Initialized = 1;
}

/* Fill the whole screen with the given color */
void ssd1306_Fill(SSD1306_COLOR color) {
    memset(SSD1306_Buffer, (color == Black) ? 0x00 : 0xFF, sizeof(SSD1306_Buffer));
 8002764:	2800      	cmp	r0, #0
 8002766:	f44f 6280 	mov.w	r2, #1024	@ 0x400
 800276a:	bf14      	ite	ne
 800276c:	21ff      	movne	r1, #255	@ 0xff
 800276e:	2100      	moveq	r1, #0
 8002770:	4801      	ldr	r0, [pc, #4]	@ (8002778 <ssd1306_Fill+0x14>)
 8002772:	f006 bb9f 	b.w	8008eb4 <memset>
 8002776:	bf00      	nop
 8002778:	20000f78 	.word	0x20000f78

0800277c <ssd1306_UpdateScreen>:
}

/* Write the screenbuffer with changed to the screen */
void ssd1306_UpdateScreen(void) {
 800277c:	b538      	push	{r3, r4, r5, lr}
 800277e:	24b0      	movs	r4, #176	@ 0xb0
 8002780:	4d0a      	ldr	r5, [pc, #40]	@ (80027ac <ssd1306_UpdateScreen+0x30>)
    //
    //  * 32px   ==  4 pages
    //  * 64px   ==  8 pages
    //  * 128px  ==  16 pages
    for(uint8_t i = 0; i < SSD1306_HEIGHT/8; i++) {
        ssd1306_WriteCommand(0xB0 + i); // Set the current RAM page address.
 8002782:	4620      	mov	r0, r4
 8002784:	f7ff ffa4 	bl	80026d0 <ssd1306_WriteCommand>
        ssd1306_WriteCommand(0x00 + SSD1306_X_OFFSET_LOWER);
 8002788:	2000      	movs	r0, #0
 800278a:	f7ff ffa1 	bl	80026d0 <ssd1306_WriteCommand>
    for(uint8_t i = 0; i < SSD1306_HEIGHT/8; i++) {
 800278e:	3401      	adds	r4, #1
        ssd1306_WriteCommand(0x10 + SSD1306_X_OFFSET_UPPER);
 8002790:	2010      	movs	r0, #16
 8002792:	f7ff ff9d 	bl	80026d0 <ssd1306_WriteCommand>
    for(uint8_t i = 0; i < SSD1306_HEIGHT/8; i++) {
 8002796:	b2e4      	uxtb	r4, r4
        ssd1306_WriteData(&SSD1306_Buffer[SSD1306_WIDTH*i],SSD1306_WIDTH);
 8002798:	4628      	mov	r0, r5
 800279a:	2180      	movs	r1, #128	@ 0x80
 800279c:	f7ff ffb8 	bl	8002710 <ssd1306_WriteData>
    for(uint8_t i = 0; i < SSD1306_HEIGHT/8; i++) {
 80027a0:	2cb8      	cmp	r4, #184	@ 0xb8
 80027a2:	f105 0580 	add.w	r5, r5, #128	@ 0x80
 80027a6:	d1ec      	bne.n	8002782 <ssd1306_UpdateScreen+0x6>
    }
}
 80027a8:	bd38      	pop	{r3, r4, r5, pc}
 80027aa:	bf00      	nop
 80027ac:	20000f78 	.word	0x20000f78

080027b0 <ssd1306_UpdateScreenDMA>:


/* Write the screenbuffer with changed to the screen */
char ssd1306_UpdateScreenDMA(void) {
 80027b0:	b538      	push	{r3, r4, r5, lr}
	static uint8_t current_page = 0;
	static uint8_t state = 1;

	// Only proceed if I2C is ready or we're starting a new transaction

	if (*SSD1306_TxCplt || state == 1) {
 80027b2:	4b1c      	ldr	r3, [pc, #112]	@ (8002824 <ssd1306_UpdateScreenDMA+0x74>)
 80027b4:	4c1c      	ldr	r4, [pc, #112]	@ (8002828 <ssd1306_UpdateScreenDMA+0x78>)
 80027b6:	681a      	ldr	r2, [r3, #0]
 80027b8:	7823      	ldrb	r3, [r4, #0]
 80027ba:	7811      	ldrb	r1, [r2, #0]
 80027bc:	b919      	cbnz	r1, 80027c6 <ssd1306_UpdateScreenDMA+0x16>
 80027be:	2b01      	cmp	r3, #1
 80027c0:	d00a      	beq.n	80027d8 <ssd1306_UpdateScreenDMA+0x28>
				return 1;
			}
			break;
		}
	}
	return 0;
 80027c2:	2000      	movs	r0, #0
}
 80027c4:	bd38      	pop	{r3, r4, r5, pc}
		*SSD1306_TxCplt = 0;  // Reset completion flag
 80027c6:	2100      	movs	r1, #0
		switch (state) {
 80027c8:	3b01      	subs	r3, #1
		*SSD1306_TxCplt = 0;  // Reset completion flag
 80027ca:	7011      	strb	r1, [r2, #0]
		switch (state) {
 80027cc:	2b03      	cmp	r3, #3
 80027ce:	d8f8      	bhi.n	80027c2 <ssd1306_UpdateScreenDMA+0x12>
 80027d0:	e8df f003 	tbb	[pc, r3]
 80027d4:	15100b02 	.word	0x15100b02
			ssd1306_WriteCommandDMA(0xB0 + current_page);
 80027d8:	4b14      	ldr	r3, [pc, #80]	@ (800282c <ssd1306_UpdateScreenDMA+0x7c>)
 80027da:	7818      	ldrb	r0, [r3, #0]
 80027dc:	3850      	subs	r0, #80	@ 0x50
 80027de:	b2c0      	uxtb	r0, r0
 80027e0:	f7ff ff86 	bl	80026f0 <ssd1306_WriteCommandDMA>
			state = 2;
 80027e4:	2302      	movs	r3, #2
			state = 4;
 80027e6:	7023      	strb	r3, [r4, #0]
			break;
 80027e8:	e7eb      	b.n	80027c2 <ssd1306_UpdateScreenDMA+0x12>
			ssd1306_WriteCommandDMA(0x00 + SSD1306_X_OFFSET_LOWER);
 80027ea:	2000      	movs	r0, #0
 80027ec:	f7ff ff80 	bl	80026f0 <ssd1306_WriteCommandDMA>
			state = 3;
 80027f0:	2303      	movs	r3, #3
 80027f2:	e7f8      	b.n	80027e6 <ssd1306_UpdateScreenDMA+0x36>
			ssd1306_WriteCommandDMA(0x10 + SSD1306_X_OFFSET_UPPER);
 80027f4:	2010      	movs	r0, #16
 80027f6:	f7ff ff7b 	bl	80026f0 <ssd1306_WriteCommandDMA>
			state = 4;
 80027fa:	2304      	movs	r3, #4
 80027fc:	e7f3      	b.n	80027e6 <ssd1306_UpdateScreenDMA+0x36>
			ssd1306_WriteDataDMA(&SSD1306_Buffer[SSD1306_WIDTH*current_page],SSD1306_WIDTH);
 80027fe:	4d0b      	ldr	r5, [pc, #44]	@ (800282c <ssd1306_UpdateScreenDMA+0x7c>)
 8002800:	4b0b      	ldr	r3, [pc, #44]	@ (8002830 <ssd1306_UpdateScreenDMA+0x80>)
 8002802:	7828      	ldrb	r0, [r5, #0]
 8002804:	2180      	movs	r1, #128	@ 0x80
 8002806:	eb03 10c0 	add.w	r0, r3, r0, lsl #7
 800280a:	f7ff ff8d 	bl	8002728 <ssd1306_WriteDataDMA>
			state = 1;  // Start over with next page
 800280e:	2001      	movs	r0, #1
			current_page++;
 8002810:	782b      	ldrb	r3, [r5, #0]
			state = 1;  // Start over with next page
 8002812:	7020      	strb	r0, [r4, #0]
			current_page++;
 8002814:	3301      	adds	r3, #1
 8002816:	b2db      	uxtb	r3, r3
			if (current_page > 7){//SSD1306_HEIGHT/8) {
 8002818:	2b07      	cmp	r3, #7
			current_page++;
 800281a:	702b      	strb	r3, [r5, #0]
			if (current_page > 7){//SSD1306_HEIGHT/8) {
 800281c:	d9d1      	bls.n	80027c2 <ssd1306_UpdateScreenDMA+0x12>
				current_page = 0;
 800281e:	2300      	movs	r3, #0
 8002820:	702b      	strb	r3, [r5, #0]
				return 1;
 8002822:	e7cf      	b.n	80027c4 <ssd1306_UpdateScreenDMA+0x14>
 8002824:	20001380 	.word	0x20001380
 8002828:	20000069 	.word	0x20000069
 800282c:	20000f70 	.word	0x20000f70
 8002830:	20000f78 	.word	0x20000f78

08002834 <ssd1306_DrawPixel>:
 * X => X Coordinate
 * Y => Y Coordinate
 * color => Pixel color
 */
void ssd1306_DrawPixel(uint8_t x, uint8_t y, SSD1306_COLOR color) {
    if(x >= SSD1306_WIDTH || y >= SSD1306_HEIGHT) {
 8002834:	0603      	lsls	r3, r0, #24
void ssd1306_DrawPixel(uint8_t x, uint8_t y, SSD1306_COLOR color) {
 8002836:	b530      	push	{r4, r5, lr}
    if(x >= SSD1306_WIDTH || y >= SSD1306_HEIGHT) {
 8002838:	d410      	bmi.n	800285c <ssd1306_DrawPixel+0x28>
 800283a:	293f      	cmp	r1, #63	@ 0x3f
 800283c:	d80e      	bhi.n	800285c <ssd1306_DrawPixel+0x28>
        return;
    }

    // Draw in the right color
    if(color == White) {
        SSD1306_Buffer[x + (y / 8) * SSD1306_WIDTH] |= 1 << (y % 8);
 800283e:	2401      	movs	r4, #1
 8002840:	08cb      	lsrs	r3, r1, #3
 8002842:	4d07      	ldr	r5, [pc, #28]	@ (8002860 <ssd1306_DrawPixel+0x2c>)
 8002844:	eb00 10c3 	add.w	r0, r0, r3, lsl #7
 8002848:	5c2b      	ldrb	r3, [r5, r0]
 800284a:	f001 0107 	and.w	r1, r1, #7
 800284e:	fa04 f101 	lsl.w	r1, r4, r1
    if(color == White) {
 8002852:	42a2      	cmp	r2, r4
        SSD1306_Buffer[x + (y / 8) * SSD1306_WIDTH] |= 1 << (y % 8);
 8002854:	bf0c      	ite	eq
 8002856:	430b      	orreq	r3, r1
    } else {
        SSD1306_Buffer[x + (y / 8) * SSD1306_WIDTH] &= ~(1 << (y % 8));
 8002858:	438b      	bicne	r3, r1
 800285a:	542b      	strb	r3, [r5, r0]
    }
}
 800285c:	bd30      	pop	{r4, r5, pc}
 800285e:	bf00      	nop
 8002860:	20000f78 	.word	0x20000f78

08002864 <ssd1306_WriteChar>:
 * Draw 1 char to the screen buffer
 * ch       => char om weg te schrijven
 * Font     => Font waarmee we gaan schrijven
 * color    => Black or White
 */
char ssd1306_WriteChar(char ch, SSD1306_Font_t Font, SSD1306_COLOR color) {
 8002864:	e92d 4ff0 	stmdb	sp!, {r4, r5, r6, r7, r8, r9, sl, fp, lr}
 8002868:	4604      	mov	r4, r0
 800286a:	b089      	sub	sp, #36	@ 0x24
 800286c:	a808      	add	r0, sp, #32
 800286e:	e900 000e 	stmdb	r0, {r1, r2, r3}
 8002872:	f89d 3048 	ldrb.w	r3, [sp, #72]	@ 0x48
    uint32_t i, b, j;

    // Check if character is valid
    if (ch < 32 || ch > 126)
 8002876:	f1a4 0520 	sub.w	r5, r4, #32
char ssd1306_WriteChar(char ch, SSD1306_Font_t Font, SSD1306_COLOR color) {
 800287a:	9302      	str	r3, [sp, #8]
    if (ch < 32 || ch > 126)
 800287c:	b2eb      	uxtb	r3, r5
 800287e:	2b5e      	cmp	r3, #94	@ 0x5e
 8002880:	d847      	bhi.n	8002912 <ssd1306_WriteChar+0xae>
 8002882:	9b07      	ldr	r3, [sp, #28]
        return 0;

    // Char width is not equal to font width for proportional font
    const uint8_t char_width = Font.char_width ? Font.char_width[ch-32] : Font.width;
 8002884:	b323      	cbz	r3, 80028d0 <ssd1306_WriteChar+0x6c>
 8002886:	4423      	add	r3, r4
 8002888:	f813 6c20 	ldrb.w	r6, [r3, #-32]
    // Check remaining space on current line
    if (SSD1306_WIDTH < (SSD1306.CurrentX + char_width) ||
 800288c:	4a22      	ldr	r2, [pc, #136]	@ (8002918 <ssd1306_WriteChar+0xb4>)
 800288e:	f8b2 9000 	ldrh.w	r9, [r2]
 8002892:	eb09 0306 	add.w	r3, r9, r6
 8002896:	2b80      	cmp	r3, #128	@ 0x80
 8002898:	dc3b      	bgt.n	8002912 <ssd1306_WriteChar+0xae>
        SSD1306_HEIGHT < (SSD1306.CurrentY + Font.height))
 800289a:	8853      	ldrh	r3, [r2, #2]
 800289c:	f89d b015 	ldrb.w	fp, [sp, #21]
 80028a0:	9301      	str	r3, [sp, #4]
 80028a2:	eb03 020b 	add.w	r2, r3, fp
    if (SSD1306_WIDTH < (SSD1306.CurrentX + char_width) ||
 80028a6:	2a40      	cmp	r2, #64	@ 0x40
 80028a8:	dc33      	bgt.n	8002912 <ssd1306_WriteChar+0xae>
        b = Font.data[(ch - 32) * Font.height + i];
        for(j = 0; j < char_width; j++) {
            if((b << j) & 0x8000)  {
                ssd1306_DrawPixel(SSD1306.CurrentX + j, (SSD1306.CurrentY + i), (SSD1306_COLOR) color);
            } else {
                ssd1306_DrawPixel(SSD1306.CurrentX + j, (SSD1306.CurrentY + i), (SSD1306_COLOR)!color);
 80028aa:	9b02      	ldr	r3, [sp, #8]
    for(i = 0; i < Font.height; i++) {
 80028ac:	f04f 0800 	mov.w	r8, #0
                ssd1306_DrawPixel(SSD1306.CurrentX + j, (SSD1306.CurrentY + i), (SSD1306_COLOR)!color);
 80028b0:	fab3 fa83 	clz	sl, r3
 80028b4:	fb0b f505 	mul.w	r5, fp, r5
 80028b8:	ea4f 1a5a 	mov.w	sl, sl, lsr #5
 80028bc:	006d      	lsls	r5, r5, #1
    for(i = 0; i < Font.height; i++) {
 80028be:	45c3      	cmp	fp, r8
 80028c0:	d809      	bhi.n	80028d6 <ssd1306_WriteChar+0x72>
            }
        }
    }

    // The current space is now taken
    SSD1306.CurrentX += char_width;
 80028c2:	4b15      	ldr	r3, [pc, #84]	@ (8002918 <ssd1306_WriteChar+0xb4>)
 80028c4:	444e      	add	r6, r9
 80028c6:	801e      	strh	r6, [r3, #0]

    // Return written char for validation
    return ch;
}
 80028c8:	4620      	mov	r0, r4
 80028ca:	b009      	add	sp, #36	@ 0x24
 80028cc:	e8bd 8ff0 	ldmia.w	sp!, {r4, r5, r6, r7, r8, r9, sl, fp, pc}
    const uint8_t char_width = Font.char_width ? Font.char_width[ch-32] : Font.width;
 80028d0:	f89d 6014 	ldrb.w	r6, [sp, #20]
 80028d4:	e7da      	b.n	800288c <ssd1306_WriteChar+0x28>
        for(j = 0; j < char_width; j++) {
 80028d6:	2700      	movs	r7, #0
        b = Font.data[(ch - 32) * Font.height + i];
 80028d8:	9a06      	ldr	r2, [sp, #24]
 80028da:	5b53      	ldrh	r3, [r2, r5]
 80028dc:	9304      	str	r3, [sp, #16]
                ssd1306_DrawPixel(SSD1306.CurrentX + j, (SSD1306.CurrentY + i), (SSD1306_COLOR) color);
 80028de:	9b01      	ldr	r3, [sp, #4]
 80028e0:	eb08 0203 	add.w	r2, r8, r3
 80028e4:	b2d3      	uxtb	r3, r2
 80028e6:	9303      	str	r3, [sp, #12]
        for(j = 0; j < char_width; j++) {
 80028e8:	42be      	cmp	r6, r7
 80028ea:	d803      	bhi.n	80028f4 <ssd1306_WriteChar+0x90>
    for(i = 0; i < Font.height; i++) {
 80028ec:	f108 0801 	add.w	r8, r8, #1
 80028f0:	3502      	adds	r5, #2
 80028f2:	e7e4      	b.n	80028be <ssd1306_WriteChar+0x5a>
            if((b << j) & 0x8000)  {
 80028f4:	9b04      	ldr	r3, [sp, #16]
                ssd1306_DrawPixel(SSD1306.CurrentX + j, (SSD1306.CurrentY + i), (SSD1306_COLOR) color);
 80028f6:	eb07 0009 	add.w	r0, r7, r9
            if((b << j) & 0x8000)  {
 80028fa:	fa03 f207 	lsl.w	r2, r3, r7
 80028fe:	0413      	lsls	r3, r2, #16
                ssd1306_DrawPixel(SSD1306.CurrentX + j, (SSD1306.CurrentY + i), (SSD1306_COLOR)!color);
 8002900:	bf54      	ite	pl
 8002902:	4652      	movpl	r2, sl
                ssd1306_DrawPixel(SSD1306.CurrentX + j, (SSD1306.CurrentY + i), (SSD1306_COLOR) color);
 8002904:	9a02      	ldrmi	r2, [sp, #8]
                ssd1306_DrawPixel(SSD1306.CurrentX + j, (SSD1306.CurrentY + i), (SSD1306_COLOR)!color);
 8002906:	9903      	ldr	r1, [sp, #12]
                ssd1306_DrawPixel(SSD1306.CurrentX + j, (SSD1306.CurrentY + i), (SSD1306_COLOR) color);
 8002908:	b2c0      	uxtb	r0, r0
                ssd1306_DrawPixel(SSD1306.CurrentX + j, (SSD1306.CurrentY + i), (SSD1306_COLOR)!color);
 800290a:	f7ff ff93 	bl	8002834 <ssd1306_DrawPixel>
        for(j = 0; j < char_width; j++) {
 800290e:	3701      	adds	r7, #1
 8002910:	e7ea      	b.n	80028e8 <ssd1306_WriteChar+0x84>
        return 0;
 8002912:	2400      	movs	r4, #0
 8002914:	e7d8      	b.n	80028c8 <ssd1306_WriteChar+0x64>
 8002916:	bf00      	nop
 8002918:	20000f72 	.word	0x20000f72

0800291c <ssd1306_WriteString>:

/* Write full string to screenbuffer */
char ssd1306_WriteString(char* str, SSD1306_Font_t Font, SSD1306_COLOR color) {
 800291c:	b570      	push	{r4, r5, r6, lr}
 800291e:	b086      	sub	sp, #24
 8002920:	ac03      	add	r4, sp, #12
 8002922:	e884 000e 	stmia.w	r4, {r1, r2, r3}
 8002926:	f89d 6028 	ldrb.w	r6, [sp, #40]	@ 0x28
 800292a:	1e45      	subs	r5, r0, #1
    while (*str) {
 800292c:	f815 0f01 	ldrb.w	r0, [r5, #1]!
 8002930:	b140      	cbz	r0, 8002944 <ssd1306_WriteString+0x28>
        if (ssd1306_WriteChar(*str, Font, color) != *str) {
 8002932:	9600      	str	r6, [sp, #0]
 8002934:	e894 000e 	ldmia.w	r4, {r1, r2, r3}
 8002938:	f7ff ff94 	bl	8002864 <ssd1306_WriteChar>
 800293c:	4603      	mov	r3, r0
 800293e:	7828      	ldrb	r0, [r5, #0]
 8002940:	4283      	cmp	r3, r0
 8002942:	d0f3      	beq.n	800292c <ssd1306_WriteString+0x10>
        str++;
    }

    // Everything ok
    return *str;
}
 8002944:	b006      	add	sp, #24
 8002946:	bd70      	pop	{r4, r5, r6, pc}

08002948 <ssd1306_SetCursor>:

/* Position the cursor */
void ssd1306_SetCursor(uint8_t x, uint8_t y) {
    SSD1306.CurrentX = x;
 8002948:	4b01      	ldr	r3, [pc, #4]	@ (8002950 <ssd1306_SetCursor+0x8>)
 800294a:	8018      	strh	r0, [r3, #0]
    SSD1306.CurrentY = y;
 800294c:	8059      	strh	r1, [r3, #2]
}
 800294e:	4770      	bx	lr
 8002950:	20000f72 	.word	0x20000f72

08002954 <ssd1306_Line>:

/* Draw line by Bresenhem's algorithm */
void ssd1306_Line(uint8_t x1, uint8_t y1, uint8_t x2, uint8_t y2, SSD1306_COLOR color) {
 8002954:	e92d 4ff7 	stmdb	sp!, {r0, r1, r2, r4, r5, r6, r7, r8, r9, sl, fp, lr}
 8002958:	4690      	mov	r8, r2
    int32_t deltaX = abs(x2 - x1);
 800295a:	eba8 0900 	sub.w	r9, r8, r0
    int32_t deltaY = abs(y2 - y1);
 800295e:	eba3 0a01 	sub.w	sl, r3, r1
    int32_t deltaX = abs(x2 - x1);
 8002962:	f1b9 0f00 	cmp.w	r9, #0
void ssd1306_Line(uint8_t x1, uint8_t y1, uint8_t x2, uint8_t y2, SSD1306_COLOR color) {
 8002966:	461e      	mov	r6, r3
    int32_t deltaX = abs(x2 - x1);
 8002968:	bfb8      	it	lt
 800296a:	f1c9 0900 	rsblt	r9, r9, #0
    int32_t deltaY = abs(y2 - y1);
 800296e:	f1ba 0f00 	cmp.w	sl, #0
 8002972:	bfb8      	it	lt
 8002974:	f1ca 0a00 	rsblt	sl, sl, #0
    int32_t signX = ((x1 < x2) ? 1 : -1);
 8002978:	4580      	cmp	r8, r0
 800297a:	bf94      	ite	ls
 800297c:	f04f 33ff 	movls.w	r3, #4294967295
 8002980:	2301      	movhi	r3, #1
void ssd1306_Line(uint8_t x1, uint8_t y1, uint8_t x2, uint8_t y2, SSD1306_COLOR color) {
 8002982:	4605      	mov	r5, r0
 8002984:	460c      	mov	r4, r1
    int32_t signY = ((y1 < y2) ? 1 : -1);
 8002986:	428e      	cmp	r6, r1
 8002988:	bf94      	ite	ls
 800298a:	f04f 3bff 	movls.w	fp, #4294967295
 800298e:	f04f 0b01 	movhi.w	fp, #1
    int32_t error = deltaX - deltaY;
    int32_t error2;

    ssd1306_DrawPixel(x2, y2, color);
 8002992:	4640      	mov	r0, r8
 8002994:	4631      	mov	r1, r6
void ssd1306_Line(uint8_t x1, uint8_t y1, uint8_t x2, uint8_t y2, SSD1306_COLOR color) {
 8002996:	f89d 2030 	ldrb.w	r2, [sp, #48]	@ 0x30
    int32_t signX = ((x1 < x2) ? 1 : -1);
 800299a:	9300      	str	r3, [sp, #0]
    int32_t error = deltaX - deltaY;
 800299c:	eba9 070a 	sub.w	r7, r9, sl
    ssd1306_DrawPixel(x2, y2, color);
 80029a0:	f7ff ff48 	bl	8002834 <ssd1306_DrawPixel>

    while((x1 != x2) || (y1 != y2)) {
        ssd1306_DrawPixel(x1, y1, color);
        error2 = error * 2;
        if(error2 > -deltaY) {
 80029a4:	f1ca 0300 	rsb	r3, sl, #0
    while((x1 != x2) || (y1 != y2)) {
 80029a8:	4545      	cmp	r5, r8
 80029aa:	d104      	bne.n	80029b6 <ssd1306_Line+0x62>
 80029ac:	42b4      	cmp	r4, r6
 80029ae:	d102      	bne.n	80029b6 <ssd1306_Line+0x62>
            error += deltaX;
            y1 += signY;
        }
    }
    return;
}
 80029b0:	b003      	add	sp, #12
 80029b2:	e8bd 8ff0 	ldmia.w	sp!, {r4, r5, r6, r7, r8, r9, sl, fp, pc}
        ssd1306_DrawPixel(x1, y1, color);
 80029b6:	4621      	mov	r1, r4
 80029b8:	4628      	mov	r0, r5
 80029ba:	9301      	str	r3, [sp, #4]
 80029bc:	f7ff ff3a 	bl	8002834 <ssd1306_DrawPixel>
        if(error2 > -deltaY) {
 80029c0:	9b01      	ldr	r3, [sp, #4]
        error2 = error * 2;
 80029c2:	0079      	lsls	r1, r7, #1
        if(error2 > -deltaY) {
 80029c4:	ebb3 0f47 	cmp.w	r3, r7, lsl #1
            x1 += signX;
 80029c8:	bfbf      	itttt	lt
 80029ca:	9800      	ldrlt	r0, [sp, #0]
            error -= deltaY;
 80029cc:	eba7 070a 	sublt.w	r7, r7, sl
            x1 += signX;
 80029d0:	182d      	addlt	r5, r5, r0
 80029d2:	b2ed      	uxtblt	r5, r5
        if(error2 < deltaX) {
 80029d4:	4589      	cmp	r9, r1
            y1 += signY;
 80029d6:	bfc2      	ittt	gt
 80029d8:	445c      	addgt	r4, fp
            error += deltaX;
 80029da:	444f      	addgt	r7, r9
            y1 += signY;
 80029dc:	b2e4      	uxtbgt	r4, r4
 80029de:	e7e3      	b.n	80029a8 <ssd1306_Line+0x54>

080029e0 <ssd1306_FillRectangle>:

    return;
}

/* Draw a filled rectangle */
void ssd1306_FillRectangle(uint8_t x1, uint8_t y1, uint8_t x2, uint8_t y2, SSD1306_COLOR color) {
 80029e0:	e92d 41f0 	stmdb	sp!, {r4, r5, r6, r7, r8, lr}
 80029e4:	4614      	mov	r4, r2
    uint8_t x_start = ((x1<=x2) ? x1 : x2);
 80029e6:	42a0      	cmp	r0, r4
 80029e8:	4680      	mov	r8, r0
 80029ea:	bf28      	it	cs
 80029ec:	46a0      	movcs	r8, r4
    uint8_t x_end   = ((x1<=x2) ? x2 : x1);
 80029ee:	42a0      	cmp	r0, r4
void ssd1306_FillRectangle(uint8_t x1, uint8_t y1, uint8_t x2, uint8_t y2, SSD1306_COLOR color) {
 80029f0:	4606      	mov	r6, r0
    uint8_t x_end   = ((x1<=x2) ? x2 : x1);
 80029f2:	bf38      	it	cc
 80029f4:	4626      	movcc	r6, r4
    uint8_t y_start = ((y1<=y2) ? y1 : y2);
 80029f6:	4299      	cmp	r1, r3
 80029f8:	460c      	mov	r4, r1
 80029fa:	bf28      	it	cs
 80029fc:	461c      	movcs	r4, r3
    uint8_t y_end   = ((y1<=y2) ? y2 : y1);
 80029fe:	4299      	cmp	r1, r3
 8002a00:	bf38      	it	cc
 8002a02:	4619      	movcc	r1, r3
 8002a04:	460f      	mov	r7, r1
void ssd1306_FillRectangle(uint8_t x1, uint8_t y1, uint8_t x2, uint8_t y2, SSD1306_COLOR color) {
 8002a06:	f89d 2018 	ldrb.w	r2, [sp, #24]

    for (uint8_t y= y_start; (y<= y_end)&&(y<SSD1306_HEIGHT); y++) {
 8002a0a:	42bc      	cmp	r4, r7
 8002a0c:	d801      	bhi.n	8002a12 <ssd1306_FillRectangle+0x32>
 8002a0e:	2c3f      	cmp	r4, #63	@ 0x3f
 8002a10:	d901      	bls.n	8002a16 <ssd1306_FillRectangle+0x36>
        for (uint8_t x= x_start; (x<= x_end)&&(x<SSD1306_WIDTH); x++) {
            ssd1306_DrawPixel(x, y, color);
        }
    }
    return;
}
 8002a12:	e8bd 81f0 	ldmia.w	sp!, {r4, r5, r6, r7, r8, pc}
        for (uint8_t x= x_start; (x<= x_end)&&(x<SSD1306_WIDTH); x++) {
 8002a16:	4645      	mov	r5, r8
 8002a18:	e007      	b.n	8002a2a <ssd1306_FillRectangle+0x4a>
 8002a1a:	062b      	lsls	r3, r5, #24
 8002a1c:	d407      	bmi.n	8002a2e <ssd1306_FillRectangle+0x4e>
            ssd1306_DrawPixel(x, y, color);
 8002a1e:	4628      	mov	r0, r5
 8002a20:	4621      	mov	r1, r4
 8002a22:	f7ff ff07 	bl	8002834 <ssd1306_DrawPixel>
        for (uint8_t x= x_start; (x<= x_end)&&(x<SSD1306_WIDTH); x++) {
 8002a26:	3501      	adds	r5, #1
 8002a28:	b2ed      	uxtb	r5, r5
 8002a2a:	42b5      	cmp	r5, r6
 8002a2c:	d9f5      	bls.n	8002a1a <ssd1306_FillRectangle+0x3a>
    for (uint8_t y= y_start; (y<= y_end)&&(y<SSD1306_HEIGHT); y++) {
 8002a2e:	3401      	adds	r4, #1
 8002a30:	b2e4      	uxtb	r4, r4
 8002a32:	e7ea      	b.n	8002a0a <ssd1306_FillRectangle+0x2a>

08002a34 <ssd1306_SetContrast>:
        }
    }
    return;
}

void ssd1306_SetContrast(const uint8_t value) {
 8002a34:	b510      	push	{r4, lr}
 8002a36:	4604      	mov	r4, r0
    const uint8_t kSetContrastControlRegister = 0x81;
    ssd1306_WriteCommand(kSetContrastControlRegister);
 8002a38:	2081      	movs	r0, #129	@ 0x81
 8002a3a:	f7ff fe49 	bl	80026d0 <ssd1306_WriteCommand>
    ssd1306_WriteCommand(value);
 8002a3e:	4620      	mov	r0, r4
}
 8002a40:	e8bd 4010 	ldmia.w	sp!, {r4, lr}
    ssd1306_WriteCommand(value);
 8002a44:	f7ff be44 	b.w	80026d0 <ssd1306_WriteCommand>

08002a48 <ssd1306_SetDisplayOn>:

void ssd1306_SetDisplayOn(const uint8_t on) {
    uint8_t value;
    if (on) {
 8002a48:	4603      	mov	r3, r0
 8002a4a:	b128      	cbz	r0, 8002a58 <ssd1306_SetDisplayOn+0x10>
        value = 0xAF;   // Display on
        SSD1306.DisplayOn = 1;
 8002a4c:	2301      	movs	r3, #1
        value = 0xAF;   // Display on
 8002a4e:	20af      	movs	r0, #175	@ 0xaf
 8002a50:	4a02      	ldr	r2, [pc, #8]	@ (8002a5c <ssd1306_SetDisplayOn+0x14>)
 8002a52:	7153      	strb	r3, [r2, #5]
    } else {
        value = 0xAE;   // Display off
        SSD1306.DisplayOn = 0;
    }
    ssd1306_WriteCommand(value);
 8002a54:	f7ff be3c 	b.w	80026d0 <ssd1306_WriteCommand>
        value = 0xAE;   // Display off
 8002a58:	20ae      	movs	r0, #174	@ 0xae
 8002a5a:	e7f9      	b.n	8002a50 <ssd1306_SetDisplayOn+0x8>
 8002a5c:	20000f72 	.word	0x20000f72

08002a60 <ssd1306_Init>:
void ssd1306_Init(void) {
 8002a60:	b508      	push	{r3, lr}
    HAL_Delay(100);
 8002a62:	2064      	movs	r0, #100	@ 0x64
 8002a64:	f000 fc18 	bl	8003298 <HAL_Delay>
    ssd1306_SetDisplayOn(0); //display off
 8002a68:	2000      	movs	r0, #0
 8002a6a:	f7ff ffed 	bl	8002a48 <ssd1306_SetDisplayOn>
    ssd1306_WriteCommand(0x20); //Set Memory Addressing Mode
 8002a6e:	2020      	movs	r0, #32
 8002a70:	f7ff fe2e 	bl	80026d0 <ssd1306_WriteCommand>
    ssd1306_WriteCommand(0x00); // 00b,Horizontal Addressing Mode; 01b,Vertical Addressing Mode;
 8002a74:	2000      	movs	r0, #0
 8002a76:	f7ff fe2b 	bl	80026d0 <ssd1306_WriteCommand>
    ssd1306_WriteCommand(0xB0); //Set Page Start Address for Page Addressing Mode,0-7
 8002a7a:	20b0      	movs	r0, #176	@ 0xb0
 8002a7c:	f7ff fe28 	bl	80026d0 <ssd1306_WriteCommand>
    ssd1306_WriteCommand(0xC8); //Set COM Output Scan Direction
 8002a80:	20c8      	movs	r0, #200	@ 0xc8
 8002a82:	f7ff fe25 	bl	80026d0 <ssd1306_WriteCommand>
    ssd1306_WriteCommand(0x00); //---set low column address
 8002a86:	2000      	movs	r0, #0
 8002a88:	f7ff fe22 	bl	80026d0 <ssd1306_WriteCommand>
    ssd1306_WriteCommand(0x10); //---set high column address
 8002a8c:	2010      	movs	r0, #16
 8002a8e:	f7ff fe1f 	bl	80026d0 <ssd1306_WriteCommand>
    ssd1306_WriteCommand(0x40); //--set start line address - CHECK
 8002a92:	2040      	movs	r0, #64	@ 0x40
 8002a94:	f7ff fe1c 	bl	80026d0 <ssd1306_WriteCommand>
    ssd1306_SetContrast(0xFF);
 8002a98:	20ff      	movs	r0, #255	@ 0xff
 8002a9a:	f7ff ffcb 	bl	8002a34 <ssd1306_SetContrast>
    ssd1306_WriteCommand(0xA1); //--set segment re-map 0 to 127 - CHECK
 8002a9e:	20a1      	movs	r0, #161	@ 0xa1
 8002aa0:	f7ff fe16 	bl	80026d0 <ssd1306_WriteCommand>
    ssd1306_WriteCommand(0xA6); //--set normal color
 8002aa4:	20a6      	movs	r0, #166	@ 0xa6
 8002aa6:	f7ff fe13 	bl	80026d0 <ssd1306_WriteCommand>
    ssd1306_WriteCommand(0xA8); //--set multiplex ratio(1 to 64) - CHECK
 8002aaa:	20a8      	movs	r0, #168	@ 0xa8
 8002aac:	f7ff fe10 	bl	80026d0 <ssd1306_WriteCommand>
    ssd1306_WriteCommand(0x3F); //
 8002ab0:	203f      	movs	r0, #63	@ 0x3f
 8002ab2:	f7ff fe0d 	bl	80026d0 <ssd1306_WriteCommand>
    ssd1306_WriteCommand(0xA4); //0xa4,Output follows RAM content;0xa5,Output ignores RAM content
 8002ab6:	20a4      	movs	r0, #164	@ 0xa4
 8002ab8:	f7ff fe0a 	bl	80026d0 <ssd1306_WriteCommand>
    ssd1306_WriteCommand(0xD3); //-set display offset - CHECK
 8002abc:	20d3      	movs	r0, #211	@ 0xd3
 8002abe:	f7ff fe07 	bl	80026d0 <ssd1306_WriteCommand>
    ssd1306_WriteCommand(0x00); //-not offset
 8002ac2:	2000      	movs	r0, #0
 8002ac4:	f7ff fe04 	bl	80026d0 <ssd1306_WriteCommand>
    ssd1306_WriteCommand(0xD5); //--set display clock divide ratio/oscillator frequency
 8002ac8:	20d5      	movs	r0, #213	@ 0xd5
 8002aca:	f7ff fe01 	bl	80026d0 <ssd1306_WriteCommand>
    ssd1306_WriteCommand(0xF0); //--set divide ratio
 8002ace:	20f0      	movs	r0, #240	@ 0xf0
 8002ad0:	f7ff fdfe 	bl	80026d0 <ssd1306_WriteCommand>
    ssd1306_WriteCommand(0xD9); //--set pre-charge period
 8002ad4:	20d9      	movs	r0, #217	@ 0xd9
 8002ad6:	f7ff fdfb 	bl	80026d0 <ssd1306_WriteCommand>
    ssd1306_WriteCommand(0x22); //
 8002ada:	2022      	movs	r0, #34	@ 0x22
 8002adc:	f7ff fdf8 	bl	80026d0 <ssd1306_WriteCommand>
    ssd1306_WriteCommand(0xDA); //--set com pins hardware configuration - CHECK
 8002ae0:	20da      	movs	r0, #218	@ 0xda
 8002ae2:	f7ff fdf5 	bl	80026d0 <ssd1306_WriteCommand>
    ssd1306_WriteCommand(0x12);
 8002ae6:	2012      	movs	r0, #18
 8002ae8:	f7ff fdf2 	bl	80026d0 <ssd1306_WriteCommand>
    ssd1306_WriteCommand(0xDB); //--set vcomh
 8002aec:	20db      	movs	r0, #219	@ 0xdb
 8002aee:	f7ff fdef 	bl	80026d0 <ssd1306_WriteCommand>
    ssd1306_WriteCommand(0x20); //0x20,0.77xVcc
 8002af2:	2020      	movs	r0, #32
 8002af4:	f7ff fdec 	bl	80026d0 <ssd1306_WriteCommand>
    ssd1306_WriteCommand(0x8D); //--set DC-DC enable
 8002af8:	208d      	movs	r0, #141	@ 0x8d
 8002afa:	f7ff fde9 	bl	80026d0 <ssd1306_WriteCommand>
    ssd1306_WriteCommand(0x14); //
 8002afe:	2014      	movs	r0, #20
 8002b00:	f7ff fde6 	bl	80026d0 <ssd1306_WriteCommand>
    ssd1306_SetDisplayOn(1); //--turn on SSD1306 panel
 8002b04:	2001      	movs	r0, #1
 8002b06:	f7ff ff9f 	bl	8002a48 <ssd1306_SetDisplayOn>
    ssd1306_Fill(Black);
 8002b0a:	2000      	movs	r0, #0
 8002b0c:	f7ff fe2a 	bl	8002764 <ssd1306_Fill>
    ssd1306_UpdateScreen();
 8002b10:	f7ff fe34 	bl	800277c <ssd1306_UpdateScreen>
    SSD1306.CurrentX = 0;
 8002b14:	2200      	movs	r2, #0
 8002b16:	4b03      	ldr	r3, [pc, #12]	@ (8002b24 <ssd1306_Init+0xc4>)
 8002b18:	801a      	strh	r2, [r3, #0]
    SSD1306.CurrentY = 0;
 8002b1a:	805a      	strh	r2, [r3, #2]
    SSD1306.Initialized = 1;
 8002b1c:	2201      	movs	r2, #1
 8002b1e:	711a      	strb	r2, [r3, #4]
}
 8002b20:	bd08      	pop	{r3, pc}
 8002b22:	bf00      	nop
 8002b24:	20000f72 	.word	0x20000f72

08002b28 <HAL_MspInit>:

  /* USER CODE BEGIN MspInit 0 */

  /* USER CODE END MspInit 0 */

  __HAL_RCC_AFIO_CLK_ENABLE();
 8002b28:	4b0e      	ldr	r3, [pc, #56]	@ (8002b64 <HAL_MspInit+0x3c>)
{
 8002b2a:	b082      	sub	sp, #8
  __HAL_RCC_AFIO_CLK_ENABLE();
 8002b2c:	699a      	ldr	r2, [r3, #24]
 8002b2e:	f042 0201 	orr.w	r2, r2, #1
 8002b32:	619a      	str	r2, [r3, #24]
 8002b34:	699a      	ldr	r2, [r3, #24]
 8002b36:	f002 0201 	and.w	r2, r2, #1
 8002b3a:	9200      	str	r2, [sp, #0]
 8002b3c:	9a00      	ldr	r2, [sp, #0]
  __HAL_RCC_PWR_CLK_ENABLE();
 8002b3e:	69da      	ldr	r2, [r3, #28]
 8002b40:	f042 5280 	orr.w	r2, r2, #268435456	@ 0x10000000
 8002b44:	61da      	str	r2, [r3, #28]
 8002b46:	69db      	ldr	r3, [r3, #28]

  /* System interrupt init*/

  /** DISABLE: JTAG-DP Disabled and SW-DP Disabled
  */
  __HAL_AFIO_REMAP_SWJ_DISABLE();
 8002b48:	4a07      	ldr	r2, [pc, #28]	@ (8002b68 <HAL_MspInit+0x40>)
  __HAL_RCC_PWR_CLK_ENABLE();
 8002b4a:	f003 5380 	and.w	r3, r3, #268435456	@ 0x10000000
 8002b4e:	9301      	str	r3, [sp, #4]
 8002b50:	9b01      	ldr	r3, [sp, #4]
  __HAL_AFIO_REMAP_SWJ_DISABLE();
 8002b52:	6853      	ldr	r3, [r2, #4]
 8002b54:	f023 63e0 	bic.w	r3, r3, #117440512	@ 0x7000000
 8002b58:	f043 6380 	orr.w	r3, r3, #67108864	@ 0x4000000
 8002b5c:	6053      	str	r3, [r2, #4]

  /* USER CODE BEGIN MspInit 1 */

  /* USER CODE END MspInit 1 */
}
 8002b5e:	b002      	add	sp, #8
 8002b60:	4770      	bx	lr
 8002b62:	bf00      	nop
 8002b64:	40021000 	.word	0x40021000
 8002b68:	40010000 	.word	0x40010000

08002b6c <HAL_ADC_MspInit>:
  * This function configures the hardware resources used in this example
  * @param hadc: ADC handle pointer
  * @retval None
  */
void HAL_ADC_MspInit(ADC_HandleTypeDef* hadc)
{
 8002b6c:	b530      	push	{r4, r5, lr}
 8002b6e:	4605      	mov	r5, r0
 8002b70:	b087      	sub	sp, #28
  GPIO_InitTypeDef GPIO_InitStruct = {0};
 8002b72:	2210      	movs	r2, #16
 8002b74:	2100      	movs	r1, #0
 8002b76:	a802      	add	r0, sp, #8
 8002b78:	f006 f99c 	bl	8008eb4 <memset>
  if(hadc->Instance==ADC1)
 8002b7c:	682a      	ldr	r2, [r5, #0]
 8002b7e:	4b20      	ldr	r3, [pc, #128]	@ (8002c00 <HAL_ADC_MspInit+0x94>)
 8002b80:	429a      	cmp	r2, r3
 8002b82:	d13b      	bne.n	8002bfc <HAL_ADC_MspInit+0x90>
  {
    /* USER CODE BEGIN ADC1_MspInit 0 */

    /* USER CODE END ADC1_MspInit 0 */
    /* Peripheral clock enable */
    __HAL_RCC_ADC1_CLK_ENABLE();
 8002b84:	f503 436c 	add.w	r3, r3, #60416	@ 0xec00
 8002b88:	699a      	ldr	r2, [r3, #24]
    PA7     ------> ADC1_IN7
    */
    GPIO_InitStruct.Pin = GPIO_PIN_0|GPIO_PIN_1|GPIO_PIN_2|GPIO_PIN_3
                          |GPIO_PIN_4|GPIO_PIN_5|GPIO_PIN_6|GPIO_PIN_7;
    GPIO_InitStruct.Mode = GPIO_MODE_ANALOG;
    HAL_GPIO_Init(GPIOA, &GPIO_InitStruct);
 8002b8a:	481e      	ldr	r0, [pc, #120]	@ (8002c04 <HAL_ADC_MspInit+0x98>)
    __HAL_RCC_ADC1_CLK_ENABLE();
 8002b8c:	f442 7200 	orr.w	r2, r2, #512	@ 0x200
 8002b90:	619a      	str	r2, [r3, #24]
 8002b92:	699a      	ldr	r2, [r3, #24]
    HAL_GPIO_Init(GPIOA, &GPIO_InitStruct);
 8002b94:	a902      	add	r1, sp, #8
    __HAL_RCC_ADC1_CLK_ENABLE();
 8002b96:	f402 7200 	and.w	r2, r2, #512	@ 0x200
 8002b9a:	9200      	str	r2, [sp, #0]
 8002b9c:	9a00      	ldr	r2, [sp, #0]
    __HAL_RCC_GPIOA_CLK_ENABLE();
 8002b9e:	699a      	ldr	r2, [r3, #24]

    /* ADC1 DMA Init */
    /* ADC1 Init */
    hdma_adc1.Instance = DMA1_Channel1;
 8002ba0:	4c19      	ldr	r4, [pc, #100]	@ (8002c08 <HAL_ADC_MspInit+0x9c>)
    __HAL_RCC_GPIOA_CLK_ENABLE();
 8002ba2:	f042 0204 	orr.w	r2, r2, #4
 8002ba6:	619a      	str	r2, [r3, #24]
 8002ba8:	699b      	ldr	r3, [r3, #24]
    GPIO_InitStruct.Mode = GPIO_MODE_ANALOG;
 8002baa:	22ff      	movs	r2, #255	@ 0xff
    __HAL_RCC_GPIOA_CLK_ENABLE();
 8002bac:	f003 0304 	and.w	r3, r3, #4
 8002bb0:	9301      	str	r3, [sp, #4]
 8002bb2:	9b01      	ldr	r3, [sp, #4]
    GPIO_InitStruct.Mode = GPIO_MODE_ANALOG;
 8002bb4:	2303      	movs	r3, #3
 8002bb6:	e9cd 2302 	strd	r2, r3, [sp, #8]
    HAL_GPIO_Init(GPIOA, &GPIO_InitStruct);
 8002bba:	f000 ffe7 	bl	8003b8c <HAL_GPIO_Init>
    hdma_adc1.Init.Direction = DMA_PERIPH_TO_MEMORY;
    hdma_adc1.Init.PeriphInc = DMA_PINC_DISABLE;
    hdma_adc1.Init.MemInc = DMA_MINC_ENABLE;
    hdma_adc1.Init.PeriphDataAlignment = DMA_PDATAALIGN_HALFWORD;
 8002bbe:	2080      	movs	r0, #128	@ 0x80
 8002bc0:	f44f 7280 	mov.w	r2, #256	@ 0x100
    hdma_adc1.Init.Direction = DMA_PERIPH_TO_MEMORY;
 8002bc4:	2300      	movs	r3, #0
    hdma_adc1.Init.PeriphDataAlignment = DMA_PDATAALIGN_HALFWORD;
 8002bc6:	e9c4 0203 	strd	r0, r2, [r4, #12]
    hdma_adc1.Init.MemDataAlignment = DMA_MDATAALIGN_HALFWORD;
 8002bca:	f44f 6280 	mov.w	r2, #1024	@ 0x400
    hdma_adc1.Init.Direction = DMA_PERIPH_TO_MEMORY;
 8002bce:	490f      	ldr	r1, [pc, #60]	@ (8002c0c <HAL_ADC_MspInit+0xa0>)
    hdma_adc1.Init.Mode = DMA_NORMAL;
    hdma_adc1.Init.Priority = DMA_PRIORITY_LOW;
    if (HAL_DMA_Init(&hdma_adc1) != HAL_OK)
 8002bd0:	4620      	mov	r0, r4
    hdma_adc1.Init.Direction = DMA_PERIPH_TO_MEMORY;
 8002bd2:	e9c4 1300 	strd	r1, r3, [r4]
    hdma_adc1.Init.Mode = DMA_NORMAL;
 8002bd6:	e9c4 2305 	strd	r2, r3, [r4, #20]
    hdma_adc1.Init.PeriphInc = DMA_PINC_DISABLE;
 8002bda:	60a3      	str	r3, [r4, #8]
    hdma_adc1.Init.Priority = DMA_PRIORITY_LOW;
 8002bdc:	61e3      	str	r3, [r4, #28]
    if (HAL_DMA_Init(&hdma_adc1) != HAL_OK)
 8002bde:	f000 fe6b 	bl	80038b8 <HAL_DMA_Init>
 8002be2:	b108      	cbz	r0, 8002be8 <HAL_ADC_MspInit+0x7c>
    {
      Error_Handler();
 8002be4:	f7ff fcb8 	bl	8002558 <Error_Handler>
    }

    __HAL_LINKDMA(hadc,DMA_Handle,hdma_adc1);

    /* ADC1 interrupt Init */
    HAL_NVIC_SetPriority(ADC1_2_IRQn, 0, 0);
 8002be8:	2200      	movs	r2, #0
 8002bea:	2012      	movs	r0, #18
    __HAL_LINKDMA(hadc,DMA_Handle,hdma_adc1);
 8002bec:	622c      	str	r4, [r5, #32]
    HAL_NVIC_SetPriority(ADC1_2_IRQn, 0, 0);
 8002bee:	4611      	mov	r1, r2
    __HAL_LINKDMA(hadc,DMA_Handle,hdma_adc1);
 8002bf0:	6265      	str	r5, [r4, #36]	@ 0x24
    HAL_NVIC_SetPriority(ADC1_2_IRQn, 0, 0);
 8002bf2:	f000 fe0f 	bl	8003814 <HAL_NVIC_SetPriority>
    HAL_NVIC_EnableIRQ(ADC1_2_IRQn);
 8002bf6:	2012      	movs	r0, #18
 8002bf8:	f000 fe3c 	bl	8003874 <HAL_NVIC_EnableIRQ>

    /* USER CODE END ADC1_MspInit 1 */

  }

}
 8002bfc:	b007      	add	sp, #28
 8002bfe:	bd30      	pop	{r4, r5, pc}
 8002c00:	40012400 	.word	0x40012400
 8002c04:	40010800 	.word	0x40010800
 8002c08:	20000ec8 	.word	0x20000ec8
 8002c0c:	40020008 	.word	0x40020008

08002c10 <HAL_I2C_MspInit>:
  * This function configures the hardware resources used in this example
  * @param hi2c: I2C handle pointer
  * @retval None
  */
void HAL_I2C_MspInit(I2C_HandleTypeDef* hi2c)
{
 8002c10:	b530      	push	{r4, r5, lr}
 8002c12:	4605      	mov	r5, r0
 8002c14:	b087      	sub	sp, #28
  GPIO_InitTypeDef GPIO_InitStruct = {0};
 8002c16:	2210      	movs	r2, #16
 8002c18:	2100      	movs	r1, #0
 8002c1a:	a802      	add	r0, sp, #8
 8002c1c:	f006 f94a 	bl	8008eb4 <memset>
  if(hi2c->Instance==I2C2)
 8002c20:	682a      	ldr	r2, [r5, #0]
 8002c22:	4b2e      	ldr	r3, [pc, #184]	@ (8002cdc <HAL_I2C_MspInit+0xcc>)
 8002c24:	429a      	cmp	r2, r3
 8002c26:	d156      	bne.n	8002cd6 <HAL_I2C_MspInit+0xc6>
  {
    /* USER CODE BEGIN I2C2_MspInit 0 */

    /* USER CODE END I2C2_MspInit 0 */

    __HAL_RCC_GPIOB_CLK_ENABLE();
 8002c28:	4c2d      	ldr	r4, [pc, #180]	@ (8002ce0 <HAL_I2C_MspInit+0xd0>)
    /**I2C2 GPIO Configuration
    PB10     ------> I2C2_SCL
    PB11     ------> I2C2_SDA
    */
    GPIO_InitStruct.Pin = GPIO_PIN_10|GPIO_PIN_11;
    GPIO_InitStruct.Mode = GPIO_MODE_AF_OD;
 8002c2a:	f44f 6140 	mov.w	r1, #3072	@ 0xc00
    __HAL_RCC_GPIOB_CLK_ENABLE();
 8002c2e:	69a3      	ldr	r3, [r4, #24]
    GPIO_InitStruct.Speed = GPIO_SPEED_FREQ_HIGH;
    HAL_GPIO_Init(GPIOB, &GPIO_InitStruct);
 8002c30:	482c      	ldr	r0, [pc, #176]	@ (8002ce4 <HAL_I2C_MspInit+0xd4>)
    __HAL_RCC_GPIOB_CLK_ENABLE();
 8002c32:	f043 0308 	orr.w	r3, r3, #8
 8002c36:	61a3      	str	r3, [r4, #24]
 8002c38:	69a3      	ldr	r3, [r4, #24]
 8002c3a:	f003 0308 	and.w	r3, r3, #8
 8002c3e:	9300      	str	r3, [sp, #0]
 8002c40:	9b00      	ldr	r3, [sp, #0]
    GPIO_InitStruct.Mode = GPIO_MODE_AF_OD;
 8002c42:	2312      	movs	r3, #18
 8002c44:	e9cd 1302 	strd	r1, r3, [sp, #8]
    GPIO_InitStruct.Speed = GPIO_SPEED_FREQ_HIGH;
 8002c48:	2303      	movs	r3, #3
    HAL_GPIO_Init(GPIOB, &GPIO_InitStruct);
 8002c4a:	a902      	add	r1, sp, #8
    GPIO_InitStruct.Speed = GPIO_SPEED_FREQ_HIGH;
 8002c4c:	9305      	str	r3, [sp, #20]
    HAL_GPIO_Init(GPIOB, &GPIO_InitStruct);
 8002c4e:	f000 ff9d 	bl	8003b8c <HAL_GPIO_Init>

    /* Peripheral clock enable */
    __HAL_RCC_I2C2_CLK_ENABLE();
 8002c52:	69e3      	ldr	r3, [r4, #28]
    /* I2C2 DMA Init */
    /* I2C2_RX Init */
    hdma_i2c2_rx.Instance = DMA1_Channel5;
    hdma_i2c2_rx.Init.Direction = DMA_PERIPH_TO_MEMORY;
    hdma_i2c2_rx.Init.PeriphInc = DMA_PINC_DISABLE;
    hdma_i2c2_rx.Init.MemInc = DMA_MINC_ENABLE;
 8002c54:	2280      	movs	r2, #128	@ 0x80
    __HAL_RCC_I2C2_CLK_ENABLE();
 8002c56:	f443 0380 	orr.w	r3, r3, #4194304	@ 0x400000
 8002c5a:	61e3      	str	r3, [r4, #28]
 8002c5c:	69e3      	ldr	r3, [r4, #28]
    hdma_i2c2_rx.Init.Direction = DMA_PERIPH_TO_MEMORY;
 8002c5e:	4822      	ldr	r0, [pc, #136]	@ (8002ce8 <HAL_I2C_MspInit+0xd8>)
    __HAL_RCC_I2C2_CLK_ENABLE();
 8002c60:	f403 0380 	and.w	r3, r3, #4194304	@ 0x400000
 8002c64:	9301      	str	r3, [sp, #4]
 8002c66:	9b01      	ldr	r3, [sp, #4]
    hdma_i2c2_rx.Init.Direction = DMA_PERIPH_TO_MEMORY;
 8002c68:	2300      	movs	r3, #0
    hdma_i2c2_rx.Instance = DMA1_Channel5;
 8002c6a:	4c20      	ldr	r4, [pc, #128]	@ (8002cec <HAL_I2C_MspInit+0xdc>)
    hdma_i2c2_rx.Init.Direction = DMA_PERIPH_TO_MEMORY;
 8002c6c:	e9c4 0300 	strd	r0, r3, [r4]
    hdma_i2c2_rx.Init.PeriphDataAlignment = DMA_PDATAALIGN_BYTE;
    hdma_i2c2_rx.Init.MemDataAlignment = DMA_MDATAALIGN_BYTE;
    hdma_i2c2_rx.Init.Mode = DMA_NORMAL;
    hdma_i2c2_rx.Init.Priority = DMA_PRIORITY_LOW;
    if (HAL_DMA_Init(&hdma_i2c2_rx) != HAL_OK)
 8002c70:	4620      	mov	r0, r4
    hdma_i2c2_rx.Init.PeriphDataAlignment = DMA_PDATAALIGN_BYTE;
 8002c72:	e9c4 2303 	strd	r2, r3, [r4, #12]
    hdma_i2c2_rx.Init.Mode = DMA_NORMAL;
 8002c76:	e9c4 3305 	strd	r3, r3, [r4, #20]
    hdma_i2c2_rx.Init.PeriphInc = DMA_PINC_DISABLE;
 8002c7a:	60a3      	str	r3, [r4, #8]
    hdma_i2c2_rx.Init.Priority = DMA_PRIORITY_LOW;
 8002c7c:	61e3      	str	r3, [r4, #28]
    if (HAL_DMA_Init(&hdma_i2c2_rx) != HAL_OK)
 8002c7e:	f000 fe1b 	bl	80038b8 <HAL_DMA_Init>
 8002c82:	b108      	cbz	r0, 8002c88 <HAL_I2C_MspInit+0x78>
    {
      Error_Handler();
 8002c84:	f7ff fc68 	bl	8002558 <Error_Handler>

    __HAL_LINKDMA(hi2c,hdmarx,hdma_i2c2_rx);

    /* I2C2_TX Init */
    hdma_i2c2_tx.Instance = DMA1_Channel4;
    hdma_i2c2_tx.Init.Direction = DMA_MEMORY_TO_PERIPH;
 8002c88:	2310      	movs	r3, #16
 8002c8a:	4a19      	ldr	r2, [pc, #100]	@ (8002cf0 <HAL_I2C_MspInit+0xe0>)
    __HAL_LINKDMA(hi2c,hdmarx,hdma_i2c2_rx);
 8002c8c:	63ac      	str	r4, [r5, #56]	@ 0x38
 8002c8e:	6265      	str	r5, [r4, #36]	@ 0x24
    hdma_i2c2_tx.Instance = DMA1_Channel4;
 8002c90:	4c18      	ldr	r4, [pc, #96]	@ (8002cf4 <HAL_I2C_MspInit+0xe4>)
    hdma_i2c2_tx.Init.Direction = DMA_MEMORY_TO_PERIPH;
 8002c92:	e9c4 2300 	strd	r2, r3, [r4]
    hdma_i2c2_tx.Init.PeriphInc = DMA_PINC_DISABLE;
    hdma_i2c2_tx.Init.MemInc = DMA_MINC_ENABLE;
 8002c96:	2300      	movs	r3, #0
 8002c98:	2280      	movs	r2, #128	@ 0x80
    hdma_i2c2_tx.Init.PeriphDataAlignment = DMA_PDATAALIGN_BYTE;
    hdma_i2c2_tx.Init.MemDataAlignment = DMA_MDATAALIGN_BYTE;
    hdma_i2c2_tx.Init.Mode = DMA_NORMAL;
    hdma_i2c2_tx.Init.Priority = DMA_PRIORITY_LOW;
    if (HAL_DMA_Init(&hdma_i2c2_tx) != HAL_OK)
 8002c9a:	4620      	mov	r0, r4
    hdma_i2c2_tx.Init.MemInc = DMA_MINC_ENABLE;
 8002c9c:	e9c4 3202 	strd	r3, r2, [r4, #8]
    hdma_i2c2_tx.Init.MemDataAlignment = DMA_MDATAALIGN_BYTE;
 8002ca0:	e9c4 3304 	strd	r3, r3, [r4, #16]
    hdma_i2c2_tx.Init.Priority = DMA_PRIORITY_LOW;
 8002ca4:	e9c4 3306 	strd	r3, r3, [r4, #24]
    if (HAL_DMA_Init(&hdma_i2c2_tx) != HAL_OK)
 8002ca8:	f000 fe06 	bl	80038b8 <HAL_DMA_Init>
 8002cac:	b108      	cbz	r0, 8002cb2 <HAL_I2C_MspInit+0xa2>
    {
      Error_Handler();
 8002cae:	f7ff fc53 	bl	8002558 <Error_Handler>
    }

    __HAL_LINKDMA(hi2c,hdmatx,hdma_i2c2_tx);

    /* I2C2 interrupt Init */
    HAL_NVIC_SetPriority(I2C2_EV_IRQn, 0, 0);
 8002cb2:	2200      	movs	r2, #0
 8002cb4:	2021      	movs	r0, #33	@ 0x21
 8002cb6:	4611      	mov	r1, r2
    __HAL_LINKDMA(hi2c,hdmatx,hdma_i2c2_tx);
 8002cb8:	636c      	str	r4, [r5, #52]	@ 0x34
 8002cba:	6265      	str	r5, [r4, #36]	@ 0x24
    HAL_NVIC_SetPriority(I2C2_EV_IRQn, 0, 0);
 8002cbc:	f000 fdaa 	bl	8003814 <HAL_NVIC_SetPriority>
    HAL_NVIC_EnableIRQ(I2C2_EV_IRQn);
 8002cc0:	2021      	movs	r0, #33	@ 0x21
 8002cc2:	f000 fdd7 	bl	8003874 <HAL_NVIC_EnableIRQ>
    HAL_NVIC_SetPriority(I2C2_ER_IRQn, 0, 0);
 8002cc6:	2200      	movs	r2, #0
 8002cc8:	2022      	movs	r0, #34	@ 0x22
 8002cca:	4611      	mov	r1, r2
 8002ccc:	f000 fda2 	bl	8003814 <HAL_NVIC_SetPriority>
    HAL_NVIC_EnableIRQ(I2C2_ER_IRQn);
 8002cd0:	2022      	movs	r0, #34	@ 0x22
 8002cd2:	f000 fdcf 	bl	8003874 <HAL_NVIC_EnableIRQ>

    /* USER CODE END I2C2_MspInit 1 */

  }

}
 8002cd6:	b007      	add	sp, #28
 8002cd8:	bd30      	pop	{r4, r5, pc}
 8002cda:	bf00      	nop
 8002cdc:	40005800 	.word	0x40005800
 8002ce0:	40021000 	.word	0x40021000
 8002ce4:	40010c00 	.word	0x40010c00
 8002ce8:	40020058 	.word	0x40020058
 8002cec:	20000e30 	.word	0x20000e30
 8002cf0:	40020044 	.word	0x40020044
 8002cf4:	20000dec 	.word	0x20000dec

08002cf8 <HAL_TIM_Base_MspInit>:
  * This function configures the hardware resources used in this example
  * @param htim_base: TIM_Base handle pointer
  * @retval None
  */
void HAL_TIM_Base_MspInit(TIM_HandleTypeDef* htim_base)
{
 8002cf8:	b51f      	push	{r0, r1, r2, r3, r4, lr}
  if(htim_base->Instance==TIM1)
 8002cfa:	6803      	ldr	r3, [r0, #0]
 8002cfc:	4a37      	ldr	r2, [pc, #220]	@ (8002ddc <HAL_TIM_Base_MspInit+0xe4>)
 8002cfe:	4293      	cmp	r3, r2
 8002d00:	d12c      	bne.n	8002d5c <HAL_TIM_Base_MspInit+0x64>
  {
    /* USER CODE BEGIN TIM1_MspInit 0 */

    /* USER CODE END TIM1_MspInit 0 */
    /* Peripheral clock enable */
    __HAL_RCC_TIM1_CLK_ENABLE();
 8002d02:	4b37      	ldr	r3, [pc, #220]	@ (8002de0 <HAL_TIM_Base_MspInit+0xe8>)
    /* TIM1 interrupt Init */
    HAL_NVIC_SetPriority(TIM1_BRK_IRQn, 0, 0);
 8002d04:	2018      	movs	r0, #24
    __HAL_RCC_TIM1_CLK_ENABLE();
 8002d06:	699a      	ldr	r2, [r3, #24]
 8002d08:	f442 6200 	orr.w	r2, r2, #2048	@ 0x800
 8002d0c:	619a      	str	r2, [r3, #24]
    HAL_NVIC_SetPriority(TIM1_BRK_IRQn, 0, 0);
 8002d0e:	2200      	movs	r2, #0
    __HAL_RCC_TIM1_CLK_ENABLE();
 8002d10:	699b      	ldr	r3, [r3, #24]
    HAL_NVIC_SetPriority(TIM1_BRK_IRQn, 0, 0);
 8002d12:	4611      	mov	r1, r2
    __HAL_RCC_TIM1_CLK_ENABLE();
 8002d14:	f403 6300 	and.w	r3, r3, #2048	@ 0x800
 8002d18:	9300      	str	r3, [sp, #0]
 8002d1a:	9b00      	ldr	r3, [sp, #0]
    HAL_NVIC_SetPriority(TIM1_BRK_IRQn, 0, 0);
 8002d1c:	f000 fd7a 	bl	8003814 <HAL_NVIC_SetPriority>
    HAL_NVIC_EnableIRQ(TIM1_BRK_IRQn);
 8002d20:	2018      	movs	r0, #24
 8002d22:	f000 fda7 	bl	8003874 <HAL_NVIC_EnableIRQ>
    HAL_NVIC_SetPriority(TIM1_UP_IRQn, 0, 0);
 8002d26:	2200      	movs	r2, #0
 8002d28:	2019      	movs	r0, #25
 8002d2a:	4611      	mov	r1, r2
 8002d2c:	f000 fd72 	bl	8003814 <HAL_NVIC_SetPriority>
    HAL_NVIC_EnableIRQ(TIM1_UP_IRQn);
 8002d30:	2019      	movs	r0, #25
 8002d32:	f000 fd9f 	bl	8003874 <HAL_NVIC_EnableIRQ>
    HAL_NVIC_SetPriority(TIM1_TRG_COM_IRQn, 0, 0);
 8002d36:	2200      	movs	r2, #0
 8002d38:	201a      	movs	r0, #26
 8002d3a:	4611      	mov	r1, r2
 8002d3c:	f000 fd6a 	bl	8003814 <HAL_NVIC_SetPriority>
    HAL_NVIC_EnableIRQ(TIM1_TRG_COM_IRQn);
 8002d40:	201a      	movs	r0, #26
 8002d42:	f000 fd97 	bl	8003874 <HAL_NVIC_EnableIRQ>
    HAL_NVIC_SetPriority(TIM1_CC_IRQn, 0, 0);
 8002d46:	2200      	movs	r2, #0
 8002d48:	201b      	movs	r0, #27
 8002d4a:	4611      	mov	r1, r2
 8002d4c:	f000 fd62 	bl	8003814 <HAL_NVIC_SetPriority>
    HAL_NVIC_EnableIRQ(TIM1_CC_IRQn);
 8002d50:	201b      	movs	r0, #27
    /* USER CODE BEGIN TIM4_MspInit 1 */

    /* USER CODE END TIM4_MspInit 1 */
  }

}
 8002d52:	b005      	add	sp, #20
 8002d54:	f85d eb04 	ldr.w	lr, [sp], #4
    HAL_NVIC_EnableIRQ(TIM4_IRQn);
 8002d58:	f000 bd8c 	b.w	8003874 <HAL_NVIC_EnableIRQ>
  else if(htim_base->Instance==TIM2)
 8002d5c:	f1b3 4f80 	cmp.w	r3, #1073741824	@ 0x40000000
 8002d60:	d111      	bne.n	8002d86 <HAL_TIM_Base_MspInit+0x8e>
    __HAL_RCC_TIM2_CLK_ENABLE();
 8002d62:	f503 3304 	add.w	r3, r3, #135168	@ 0x21000
 8002d66:	69da      	ldr	r2, [r3, #28]
    HAL_NVIC_SetPriority(TIM2_IRQn, 0, 0);
 8002d68:	201c      	movs	r0, #28
    __HAL_RCC_TIM2_CLK_ENABLE();
 8002d6a:	f042 0201 	orr.w	r2, r2, #1
 8002d6e:	61da      	str	r2, [r3, #28]
    HAL_NVIC_SetPriority(TIM2_IRQn, 0, 0);
 8002d70:	2200      	movs	r2, #0
    __HAL_RCC_TIM2_CLK_ENABLE();
 8002d72:	69db      	ldr	r3, [r3, #28]
    HAL_NVIC_SetPriority(TIM2_IRQn, 0, 0);
 8002d74:	4611      	mov	r1, r2
    __HAL_RCC_TIM2_CLK_ENABLE();
 8002d76:	f003 0301 	and.w	r3, r3, #1
 8002d7a:	9301      	str	r3, [sp, #4]
 8002d7c:	9b01      	ldr	r3, [sp, #4]
    HAL_NVIC_SetPriority(TIM2_IRQn, 0, 0);
 8002d7e:	f000 fd49 	bl	8003814 <HAL_NVIC_SetPriority>
    HAL_NVIC_EnableIRQ(TIM2_IRQn);
 8002d82:	201c      	movs	r0, #28
 8002d84:	e7e5      	b.n	8002d52 <HAL_TIM_Base_MspInit+0x5a>
  else if(htim_base->Instance==TIM3)
 8002d86:	4a17      	ldr	r2, [pc, #92]	@ (8002de4 <HAL_TIM_Base_MspInit+0xec>)
 8002d88:	4293      	cmp	r3, r2
 8002d8a:	d110      	bne.n	8002dae <HAL_TIM_Base_MspInit+0xb6>
    __HAL_RCC_TIM3_CLK_ENABLE();
 8002d8c:	4b14      	ldr	r3, [pc, #80]	@ (8002de0 <HAL_TIM_Base_MspInit+0xe8>)
    HAL_NVIC_SetPriority(TIM3_IRQn, 0, 0);
 8002d8e:	201d      	movs	r0, #29
    __HAL_RCC_TIM3_CLK_ENABLE();
 8002d90:	69da      	ldr	r2, [r3, #28]
 8002d92:	f042 0202 	orr.w	r2, r2, #2
 8002d96:	61da      	str	r2, [r3, #28]
    HAL_NVIC_SetPriority(TIM3_IRQn, 0, 0);
 8002d98:	2200      	movs	r2, #0
    __HAL_RCC_TIM3_CLK_ENABLE();
 8002d9a:	69db      	ldr	r3, [r3, #28]
    HAL_NVIC_SetPriority(TIM3_IRQn, 0, 0);
 8002d9c:	4611      	mov	r1, r2
    __HAL_RCC_TIM3_CLK_ENABLE();
 8002d9e:	f003 0302 	and.w	r3, r3, #2
 8002da2:	9302      	str	r3, [sp, #8]
 8002da4:	9b02      	ldr	r3, [sp, #8]
    HAL_NVIC_SetPriority(TIM3_IRQn, 0, 0);
 8002da6:	f000 fd35 	bl	8003814 <HAL_NVIC_SetPriority>
    HAL_NVIC_EnableIRQ(TIM3_IRQn);
 8002daa:	201d      	movs	r0, #29
 8002dac:	e7d1      	b.n	8002d52 <HAL_TIM_Base_MspInit+0x5a>
  else if(htim_base->Instance==TIM4)
 8002dae:	4a0e      	ldr	r2, [pc, #56]	@ (8002de8 <HAL_TIM_Base_MspInit+0xf0>)
 8002db0:	4293      	cmp	r3, r2
 8002db2:	d110      	bne.n	8002dd6 <HAL_TIM_Base_MspInit+0xde>
    __HAL_RCC_TIM4_CLK_ENABLE();
 8002db4:	4b0a      	ldr	r3, [pc, #40]	@ (8002de0 <HAL_TIM_Base_MspInit+0xe8>)
    HAL_NVIC_SetPriority(TIM4_IRQn, 0, 0);
 8002db6:	201e      	movs	r0, #30
    __HAL_RCC_TIM4_CLK_ENABLE();
 8002db8:	69da      	ldr	r2, [r3, #28]
 8002dba:	f042 0204 	orr.w	r2, r2, #4
 8002dbe:	61da      	str	r2, [r3, #28]
    HAL_NVIC_SetPriority(TIM4_IRQn, 0, 0);
 8002dc0:	2200      	movs	r2, #0
    __HAL_RCC_TIM4_CLK_ENABLE();
 8002dc2:	69db      	ldr	r3, [r3, #28]
    HAL_NVIC_SetPriority(TIM4_IRQn, 0, 0);
 8002dc4:	4611      	mov	r1, r2
    __HAL_RCC_TIM4_CLK_ENABLE();
 8002dc6:	f003 0304 	and.w	r3, r3, #4
 8002dca:	9303      	str	r3, [sp, #12]
 8002dcc:	9b03      	ldr	r3, [sp, #12]
    HAL_NVIC_SetPriority(TIM4_IRQn, 0, 0);
 8002dce:	f000 fd21 	bl	8003814 <HAL_NVIC_SetPriority>
    HAL_NVIC_EnableIRQ(TIM4_IRQn);
 8002dd2:	201e      	movs	r0, #30
 8002dd4:	e7bd      	b.n	8002d52 <HAL_TIM_Base_MspInit+0x5a>
}
 8002dd6:	b005      	add	sp, #20
 8002dd8:	bd00      	pop	{pc}
 8002dda:	bf00      	nop
 8002ddc:	40012c00 	.word	0x40012c00
 8002de0:	40021000 	.word	0x40021000
 8002de4:	40000400 	.word	0x40000400
 8002de8:	40000800 	.word	0x40000800

08002dec <HAL_TIM_MspPostInit>:

void HAL_TIM_MspPostInit(TIM_HandleTypeDef* htim)
{
 8002dec:	b510      	push	{r4, lr}
 8002dee:	4604      	mov	r4, r0
 8002df0:	b086      	sub	sp, #24
  GPIO_InitTypeDef GPIO_InitStruct = {0};
 8002df2:	2210      	movs	r2, #16
 8002df4:	2100      	movs	r1, #0
 8002df6:	a802      	add	r0, sp, #8
 8002df8:	f006 f85c 	bl	8008eb4 <memset>
  if(htim->Instance==TIM3)
 8002dfc:	6822      	ldr	r2, [r4, #0]
 8002dfe:	4b11      	ldr	r3, [pc, #68]	@ (8002e44 <HAL_TIM_MspPostInit+0x58>)
 8002e00:	429a      	cmp	r2, r3
 8002e02:	d11c      	bne.n	8002e3e <HAL_TIM_MspPostInit+0x52>
  {
    /* USER CODE BEGIN TIM3_MspPostInit 0 */

    /* USER CODE END TIM3_MspPostInit 0 */

    __HAL_RCC_GPIOB_CLK_ENABLE();
 8002e04:	f503 3303 	add.w	r3, r3, #134144	@ 0x20c00
 8002e08:	699a      	ldr	r2, [r3, #24]
    PB5     ------> TIM3_CH2
    */
    GPIO_InitStruct.Pin = GPIO_PIN_0|GPIO_PIN_1|GPIO_PIN_4|GPIO_PIN_5;
    GPIO_InitStruct.Mode = GPIO_MODE_AF_PP;
    GPIO_InitStruct.Speed = GPIO_SPEED_FREQ_LOW;
    HAL_GPIO_Init(GPIOB, &GPIO_InitStruct);
 8002e0a:	480f      	ldr	r0, [pc, #60]	@ (8002e48 <HAL_TIM_MspPostInit+0x5c>)
    __HAL_RCC_GPIOB_CLK_ENABLE();
 8002e0c:	f042 0208 	orr.w	r2, r2, #8
 8002e10:	619a      	str	r2, [r3, #24]
 8002e12:	699b      	ldr	r3, [r3, #24]
    GPIO_InitStruct.Mode = GPIO_MODE_AF_PP;
 8002e14:	2233      	movs	r2, #51	@ 0x33
    __HAL_RCC_GPIOB_CLK_ENABLE();
 8002e16:	f003 0308 	and.w	r3, r3, #8
 8002e1a:	9301      	str	r3, [sp, #4]
 8002e1c:	9b01      	ldr	r3, [sp, #4]
    GPIO_InitStruct.Mode = GPIO_MODE_AF_PP;
 8002e1e:	2302      	movs	r3, #2
    HAL_GPIO_Init(GPIOB, &GPIO_InitStruct);
 8002e20:	a902      	add	r1, sp, #8
    GPIO_InitStruct.Mode = GPIO_MODE_AF_PP;
 8002e22:	e9cd 2302 	strd	r2, r3, [sp, #8]
    GPIO_InitStruct.Speed = GPIO_SPEED_FREQ_LOW;
 8002e26:	9305      	str	r3, [sp, #20]
    HAL_GPIO_Init(GPIOB, &GPIO_InitStruct);
 8002e28:	f000 feb0 	bl	8003b8c <HAL_GPIO_Init>

    __HAL_AFIO_REMAP_TIM3_PARTIAL();
 8002e2c:	4a07      	ldr	r2, [pc, #28]	@ (8002e4c <HAL_TIM_MspPostInit+0x60>)
 8002e2e:	6853      	ldr	r3, [r2, #4]
 8002e30:	f423 6340 	bic.w	r3, r3, #3072	@ 0xc00
 8002e34:	f043 63e0 	orr.w	r3, r3, #117440512	@ 0x7000000
 8002e38:	f443 6300 	orr.w	r3, r3, #2048	@ 0x800
 8002e3c:	6053      	str	r3, [r2, #4]
    /* USER CODE BEGIN TIM3_MspPostInit 1 */

    /* USER CODE END TIM3_MspPostInit 1 */
  }

}
 8002e3e:	b006      	add	sp, #24
 8002e40:	bd10      	pop	{r4, pc}
 8002e42:	bf00      	nop
 8002e44:	40000400 	.word	0x40000400
 8002e48:	40010c00 	.word	0x40010c00
 8002e4c:	40010000 	.word	0x40010000

08002e50 <HAL_UART_MspInit>:
  * This function configures the hardware resources used in this example
  * @param huart: UART handle pointer
  * @retval None
  */
void HAL_UART_MspInit(UART_HandleTypeDef* huart)
{
 8002e50:	b510      	push	{r4, lr}
 8002e52:	4604      	mov	r4, r0
 8002e54:	b086      	sub	sp, #24
  GPIO_InitTypeDef GPIO_InitStruct = {0};
 8002e56:	2210      	movs	r2, #16
 8002e58:	2100      	movs	r1, #0
 8002e5a:	a802      	add	r0, sp, #8
 8002e5c:	f006 f82a 	bl	8008eb4 <memset>
  if(huart->Instance==USART1)
 8002e60:	6822      	ldr	r2, [r4, #0]
 8002e62:	4b1b      	ldr	r3, [pc, #108]	@ (8002ed0 <HAL_UART_MspInit+0x80>)
 8002e64:	429a      	cmp	r2, r3
 8002e66:	d130      	bne.n	8002eca <HAL_UART_MspInit+0x7a>
  {
    /* USER CODE BEGIN USART1_MspInit 0 */

    /* USER CODE END USART1_MspInit 0 */
    /* Peripheral clock enable */
    __HAL_RCC_USART1_CLK_ENABLE();
 8002e68:	f503 4358 	add.w	r3, r3, #55296	@ 0xd800
 8002e6c:	699a      	ldr	r2, [r3, #24]
    PA10     ------> USART1_RX
    */
    GPIO_InitStruct.Pin = GPIO_PIN_9;
    GPIO_InitStruct.Mode = GPIO_MODE_AF_PP;
    GPIO_InitStruct.Speed = GPIO_SPEED_FREQ_HIGH;
    HAL_GPIO_Init(GPIOA, &GPIO_InitStruct);
 8002e6e:	4819      	ldr	r0, [pc, #100]	@ (8002ed4 <HAL_UART_MspInit+0x84>)
    __HAL_RCC_USART1_CLK_ENABLE();
 8002e70:	f442 4280 	orr.w	r2, r2, #16384	@ 0x4000
 8002e74:	619a      	str	r2, [r3, #24]
 8002e76:	699a      	ldr	r2, [r3, #24]
    HAL_GPIO_Init(GPIOA, &GPIO_InitStruct);
 8002e78:	a902      	add	r1, sp, #8
    __HAL_RCC_USART1_CLK_ENABLE();
 8002e7a:	f402 4280 	and.w	r2, r2, #16384	@ 0x4000
 8002e7e:	9200      	str	r2, [sp, #0]
 8002e80:	9a00      	ldr	r2, [sp, #0]
    __HAL_RCC_GPIOA_CLK_ENABLE();
 8002e82:	699a      	ldr	r2, [r3, #24]

    GPIO_InitStruct.Pin = GPIO_PIN_10;
    GPIO_InitStruct.Mode = GPIO_MODE_INPUT;
 8002e84:	2400      	movs	r4, #0
    __HAL_RCC_GPIOA_CLK_ENABLE();
 8002e86:	f042 0204 	orr.w	r2, r2, #4
 8002e8a:	619a      	str	r2, [r3, #24]
 8002e8c:	699b      	ldr	r3, [r3, #24]
    GPIO_InitStruct.Mode = GPIO_MODE_AF_PP;
 8002e8e:	f44f 7200 	mov.w	r2, #512	@ 0x200
    __HAL_RCC_GPIOA_CLK_ENABLE();
 8002e92:	f003 0304 	and.w	r3, r3, #4
 8002e96:	9301      	str	r3, [sp, #4]
 8002e98:	9b01      	ldr	r3, [sp, #4]
    GPIO_InitStruct.Mode = GPIO_MODE_AF_PP;
 8002e9a:	2302      	movs	r3, #2
 8002e9c:	e9cd 2302 	strd	r2, r3, [sp, #8]
    GPIO_InitStruct.Speed = GPIO_SPEED_FREQ_HIGH;
 8002ea0:	2303      	movs	r3, #3
 8002ea2:	9305      	str	r3, [sp, #20]
    HAL_GPIO_Init(GPIOA, &GPIO_InitStruct);
 8002ea4:	f000 fe72 	bl	8003b8c <HAL_GPIO_Init>
    GPIO_InitStruct.Mode = GPIO_MODE_INPUT;
 8002ea8:	f44f 6380 	mov.w	r3, #1024	@ 0x400
    GPIO_InitStruct.Pull = GPIO_NOPULL;
    HAL_GPIO_Init(GPIOA, &GPIO_InitStruct);
 8002eac:	4809      	ldr	r0, [pc, #36]	@ (8002ed4 <HAL_UART_MspInit+0x84>)
 8002eae:	a902      	add	r1, sp, #8
    GPIO_InitStruct.Mode = GPIO_MODE_INPUT;
 8002eb0:	e9cd 3402 	strd	r3, r4, [sp, #8]
    GPIO_InitStruct.Pull = GPIO_NOPULL;
 8002eb4:	9404      	str	r4, [sp, #16]
    HAL_GPIO_Init(GPIOA, &GPIO_InitStruct);
 8002eb6:	f000 fe69 	bl	8003b8c <HAL_GPIO_Init>

    /* USART1 interrupt Init */
    HAL_NVIC_SetPriority(USART1_IRQn, 0, 0);
 8002eba:	2025      	movs	r0, #37	@ 0x25
 8002ebc:	4622      	mov	r2, r4
 8002ebe:	4621      	mov	r1, r4
 8002ec0:	f000 fca8 	bl	8003814 <HAL_NVIC_SetPriority>
    HAL_NVIC_EnableIRQ(USART1_IRQn);
 8002ec4:	2025      	movs	r0, #37	@ 0x25
 8002ec6:	f000 fcd5 	bl	8003874 <HAL_NVIC_EnableIRQ>

    /* USER CODE END USART1_MspInit 1 */

  }

}
 8002eca:	b006      	add	sp, #24
 8002ecc:	bd10      	pop	{r4, pc}
 8002ece:	bf00      	nop
 8002ed0:	40013800 	.word	0x40013800
 8002ed4:	40010800 	.word	0x40010800

08002ed8 <NMI_Handler>:
{
  /* USER CODE BEGIN NonMaskableInt_IRQn 0 */

  /* USER CODE END NonMaskableInt_IRQn 0 */
  /* USER CODE BEGIN NonMaskableInt_IRQn 1 */
   while (1)
 8002ed8:	e7fe      	b.n	8002ed8 <NMI_Handler>

08002eda <HardFault_Handler>:
void HardFault_Handler(void)
{
  /* USER CODE BEGIN HardFault_IRQn 0 */

  /* USER CODE END HardFault_IRQn 0 */
  while (1)
 8002eda:	e7fe      	b.n	8002eda <HardFault_Handler>

08002edc <MemManage_Handler>:
void MemManage_Handler(void)
{
  /* USER CODE BEGIN MemoryManagement_IRQn 0 */

  /* USER CODE END MemoryManagement_IRQn 0 */
  while (1)
 8002edc:	e7fe      	b.n	8002edc <MemManage_Handler>

08002ede <BusFault_Handler>:
void BusFault_Handler(void)
{
  /* USER CODE BEGIN BusFault_IRQn 0 */

  /* USER CODE END BusFault_IRQn 0 */
  while (1)
 8002ede:	e7fe      	b.n	8002ede <BusFault_Handler>

08002ee0 <UsageFault_Handler>:
void UsageFault_Handler(void)
{
  /* USER CODE BEGIN UsageFault_IRQn 0 */

  /* USER CODE END UsageFault_IRQn 0 */
  while (1)
 8002ee0:	e7fe      	b.n	8002ee0 <UsageFault_Handler>

08002ee2 <SVC_Handler>:

  /* USER CODE END SVCall_IRQn 0 */
  /* USER CODE BEGIN SVCall_IRQn 1 */

  /* USER CODE END SVCall_IRQn 1 */
}
 8002ee2:	4770      	bx	lr

08002ee4 <DebugMon_Handler>:

/**
  * @brief This function handles Debug monitor.
  */
void DebugMon_Handler(void)
 8002ee4:	4770      	bx	lr

08002ee6 <PendSV_Handler>:
}

/**
  * @brief This function handles Pendable request for system service.
  */
void PendSV_Handler(void)
 8002ee6:	4770      	bx	lr

08002ee8 <SysTick_Handler>:
void SysTick_Handler(void)
{
  /* USER CODE BEGIN SysTick_IRQn 0 */

  /* USER CODE END SysTick_IRQn 0 */
  HAL_IncTick();
 8002ee8:	f000 b9c4 	b.w	8003274 <HAL_IncTick>

08002eec <DMA1_Channel1_IRQHandler>:
void DMA1_Channel1_IRQHandler(void)
{
  /* USER CODE BEGIN DMA1_Channel1_IRQn 0 */

  /* USER CODE END DMA1_Channel1_IRQn 0 */
  HAL_DMA_IRQHandler(&hdma_adc1);
 8002eec:	4801      	ldr	r0, [pc, #4]	@ (8002ef4 <DMA1_Channel1_IRQHandler+0x8>)
 8002eee:	f000 bdb5 	b.w	8003a5c <HAL_DMA_IRQHandler>
 8002ef2:	bf00      	nop
 8002ef4:	20000ec8 	.word	0x20000ec8

08002ef8 <DMA1_Channel4_IRQHandler>:
void DMA1_Channel4_IRQHandler(void)
{
  /* USER CODE BEGIN DMA1_Channel4_IRQn 0 */

  /* USER CODE END DMA1_Channel4_IRQn 0 */
  HAL_DMA_IRQHandler(&hdma_i2c2_tx);
 8002ef8:	4801      	ldr	r0, [pc, #4]	@ (8002f00 <DMA1_Channel4_IRQHandler+0x8>)
 8002efa:	f000 bdaf 	b.w	8003a5c <HAL_DMA_IRQHandler>
 8002efe:	bf00      	nop
 8002f00:	20000dec 	.word	0x20000dec

08002f04 <DMA1_Channel5_IRQHandler>:
void DMA1_Channel5_IRQHandler(void)
{
  /* USER CODE BEGIN DMA1_Channel5_IRQn 0 */

  /* USER CODE END DMA1_Channel5_IRQn 0 */
  HAL_DMA_IRQHandler(&hdma_i2c2_rx);
 8002f04:	4801      	ldr	r0, [pc, #4]	@ (8002f0c <DMA1_Channel5_IRQHandler+0x8>)
 8002f06:	f000 bda9 	b.w	8003a5c <HAL_DMA_IRQHandler>
 8002f0a:	bf00      	nop
 8002f0c:	20000e30 	.word	0x20000e30

08002f10 <ADC1_2_IRQHandler>:
void ADC1_2_IRQHandler(void)
{
  /* USER CODE BEGIN ADC1_2_IRQn 0 */

  /* USER CODE END ADC1_2_IRQn 0 */
  HAL_ADC_IRQHandler(&hadc1);
 8002f10:	4801      	ldr	r0, [pc, #4]	@ (8002f18 <ADC1_2_IRQHandler+0x8>)
 8002f12:	f000 ba01 	b.w	8003318 <HAL_ADC_IRQHandler>
 8002f16:	bf00      	nop
 8002f18:	20000f0c 	.word	0x20000f0c

08002f1c <USB_HP_CAN1_TX_IRQHandler>:
void USB_HP_CAN1_TX_IRQHandler(void)
{
  /* USER CODE BEGIN USB_HP_CAN1_TX_IRQn 0 */

  /* USER CODE END USB_HP_CAN1_TX_IRQn 0 */
  HAL_PCD_IRQHandler(&hpcd_USB_FS);
 8002f1c:	4801      	ldr	r0, [pc, #4]	@ (8002f24 <USB_HP_CAN1_TX_IRQHandler+0x8>)
 8002f1e:	f002 bb71 	b.w	8005604 <HAL_PCD_IRQHandler>
 8002f22:	bf00      	nop
 8002f24:	20002278 	.word	0x20002278

08002f28 <USB_LP_CAN1_RX0_IRQHandler>:
}

/**
  * @brief This function handles USB low priority or CAN RX0 interrupts.
  */
void USB_LP_CAN1_RX0_IRQHandler(void)
 8002f28:	f7ff bff8 	b.w	8002f1c <USB_HP_CAN1_TX_IRQHandler>

08002f2c <TIM1_BRK_IRQHandler>:
void TIM1_BRK_IRQHandler(void)
{
  /* USER CODE BEGIN TIM1_BRK_IRQn 0 */

  /* USER CODE END TIM1_BRK_IRQn 0 */
  HAL_TIM_IRQHandler(&htim1);
 8002f2c:	4801      	ldr	r0, [pc, #4]	@ (8002f34 <TIM1_BRK_IRQHandler+0x8>)
 8002f2e:	f003 bcee 	b.w	800690e <HAL_TIM_IRQHandler>
 8002f32:	bf00      	nop
 8002f34:	20000da4 	.word	0x20000da4

08002f38 <TIM1_UP_IRQHandler>:
}

/**
  * @brief This function handles TIM1 update interrupt.
  */
void TIM1_UP_IRQHandler(void)
 8002f38:	f7ff bff8 	b.w	8002f2c <TIM1_BRK_IRQHandler>

08002f3c <TIM1_TRG_COM_IRQHandler>:
}

/**
  * @brief This function handles TIM1 trigger and commutation interrupts.
  */
void TIM1_TRG_COM_IRQHandler(void)
 8002f3c:	f7ff bff6 	b.w	8002f2c <TIM1_BRK_IRQHandler>

08002f40 <TIM1_CC_IRQHandler>:
}

/**
  * @brief This function handles TIM1 capture compare interrupt.
  */
void TIM1_CC_IRQHandler(void)
 8002f40:	f7ff bff4 	b.w	8002f2c <TIM1_BRK_IRQHandler>

08002f44 <TIM2_IRQHandler>:
void TIM2_IRQHandler(void)
{
  /* USER CODE BEGIN TIM2_IRQn 0 */

  /* USER CODE END TIM2_IRQn 0 */
  HAL_TIM_IRQHandler(&htim2);
 8002f44:	4801      	ldr	r0, [pc, #4]	@ (8002f4c <TIM2_IRQHandler+0x8>)
 8002f46:	f003 bce2 	b.w	800690e <HAL_TIM_IRQHandler>
 8002f4a:	bf00      	nop
 8002f4c:	20000d5c 	.word	0x20000d5c

08002f50 <TIM3_IRQHandler>:
void TIM3_IRQHandler(void)
{
  /* USER CODE BEGIN TIM3_IRQn 0 */

  /* USER CODE END TIM3_IRQn 0 */
  HAL_TIM_IRQHandler(&htim3);
 8002f50:	4801      	ldr	r0, [pc, #4]	@ (8002f58 <TIM3_IRQHandler+0x8>)
 8002f52:	f003 bcdc 	b.w	800690e <HAL_TIM_IRQHandler>
 8002f56:	bf00      	nop
 8002f58:	20000d14 	.word	0x20000d14

08002f5c <TIM4_IRQHandler>:
void TIM4_IRQHandler(void)
{
  /* USER CODE BEGIN TIM4_IRQn 0 */

  /* USER CODE END TIM4_IRQn 0 */
  HAL_TIM_IRQHandler(&htim4);
 8002f5c:	4801      	ldr	r0, [pc, #4]	@ (8002f64 <TIM4_IRQHandler+0x8>)
 8002f5e:	f003 bcd6 	b.w	800690e <HAL_TIM_IRQHandler>
 8002f62:	bf00      	nop
 8002f64:	20000ccc 	.word	0x20000ccc

08002f68 <I2C2_EV_IRQHandler>:
void I2C2_EV_IRQHandler(void)
{
  /* USER CODE BEGIN I2C2_EV_IRQn 0 */

  /* USER CODE END I2C2_EV_IRQn 0 */
  HAL_I2C_EV_IRQHandler(&hi2c2);
 8002f68:	4801      	ldr	r0, [pc, #4]	@ (8002f70 <I2C2_EV_IRQHandler+0x8>)
 8002f6a:	f001 bdbf 	b.w	8004aec <HAL_I2C_EV_IRQHandler>
 8002f6e:	bf00      	nop
 8002f70:	20000e74 	.word	0x20000e74

08002f74 <I2C2_ER_IRQHandler>:
void I2C2_ER_IRQHandler(void)
{
  /* USER CODE BEGIN I2C2_ER_IRQn 0 */

  /* USER CODE END I2C2_ER_IRQn 0 */
  HAL_I2C_ER_IRQHandler(&hi2c2);
 8002f74:	4801      	ldr	r0, [pc, #4]	@ (8002f7c <I2C2_ER_IRQHandler+0x8>)
 8002f76:	f002 ba13 	b.w	80053a0 <HAL_I2C_ER_IRQHandler>
 8002f7a:	bf00      	nop
 8002f7c:	20000e74 	.word	0x20000e74

08002f80 <USART1_IRQHandler>:
void USART1_IRQHandler(void)
{
  /* USER CODE BEGIN USART1_IRQn 0 */

  /* USER CODE END USART1_IRQn 0 */
  HAL_UART_IRQHandler(&huart1);
 8002f80:	4801      	ldr	r0, [pc, #4]	@ (8002f88 <USART1_IRQHandler+0x8>)
 8002f82:	f004 b933 	b.w	80071ec <HAL_UART_IRQHandler>
 8002f86:	bf00      	nop
 8002f88:	20000c84 	.word	0x20000c84

08002f8c <_sbrk>:
  const uint32_t stack_limit = (uint32_t)&_estack - (uint32_t)&_Min_Stack_Size;
  const uint8_t *max_heap = (uint8_t *)stack_limit;
  uint8_t *prev_heap_end;

  /* Initialize heap end at first call */
  if (NULL == __sbrk_heap_end)
 8002f8c:	4a0a      	ldr	r2, [pc, #40]	@ (8002fb8 <_sbrk+0x2c>)
{
 8002f8e:	4603      	mov	r3, r0
  if (NULL == __sbrk_heap_end)
 8002f90:	6810      	ldr	r0, [r2, #0]
{
 8002f92:	b510      	push	{r4, lr}
  if (NULL == __sbrk_heap_end)
 8002f94:	b908      	cbnz	r0, 8002f9a <_sbrk+0xe>
  {
    __sbrk_heap_end = &_end;
 8002f96:	4809      	ldr	r0, [pc, #36]	@ (8002fbc <_sbrk+0x30>)
 8002f98:	6010      	str	r0, [r2, #0]
  }

  /* Protect heap from growing into the reserved MSP stack */
  if (__sbrk_heap_end + incr > max_heap)
 8002f9a:	4909      	ldr	r1, [pc, #36]	@ (8002fc0 <_sbrk+0x34>)
 8002f9c:	4c09      	ldr	r4, [pc, #36]	@ (8002fc4 <_sbrk+0x38>)
 8002f9e:	4403      	add	r3, r0
 8002fa0:	1b09      	subs	r1, r1, r4
 8002fa2:	428b      	cmp	r3, r1
 8002fa4:	d906      	bls.n	8002fb4 <_sbrk+0x28>
  {
    errno = ENOMEM;
 8002fa6:	f005 ffb7 	bl	8008f18 <__errno>
 8002faa:	230c      	movs	r3, #12
 8002fac:	6003      	str	r3, [r0, #0]
    return (void *)-1;
 8002fae:	f04f 30ff 	mov.w	r0, #4294967295

  prev_heap_end = __sbrk_heap_end;
  __sbrk_heap_end += incr;

  return (void *)prev_heap_end;
}
 8002fb2:	bd10      	pop	{r4, pc}
  __sbrk_heap_end += incr;
 8002fb4:	6013      	str	r3, [r2, #0]
  return (void *)prev_heap_end;
 8002fb6:	e7fc      	b.n	8002fb2 <_sbrk+0x26>
 8002fb8:	20001384 	.word	0x20001384
 8002fbc:	20002698 	.word	0x20002698
 8002fc0:	20005000 	.word	0x20005000
 8002fc4:	00000400 	.word	0x00000400

08002fc8 <SystemInit>:

  /* Configure the Vector Table location -------------------------------------*/
#if defined(USER_VECT_TAB_ADDRESS)
  SCB->VTOR = VECT_TAB_BASE_ADDRESS | VECT_TAB_OFFSET; /* Vector Table Relocation in Internal SRAM. */
#endif /* USER_VECT_TAB_ADDRESS */
}
 8002fc8:	4770      	bx	lr

08002fca <unerPrtcl_PutHeaderOnTx>:


//Function definitions

uint8_t unerPrtcl_PutHeaderOnTx(_sComm  *dataTx, uint8_t ID, uint8_t frameLength)
{
 8002fca:	4603      	mov	r3, r0
	frameLength++;
    dataTx->chk = 0;
 8002fcc:	2000      	movs	r0, #0
{
 8002fce:	b530      	push	{r4, r5, lr}
    dataTx->chk = 0;
 8002fd0:	7218      	strb	r0, [r3, #8]
    dataTx->indexData = dataTx->indexW;
 8002fd2:	7958      	ldrb	r0, [r3, #5]

    dataTx->buff[dataTx->indexW++]='U';
 8002fd4:	681c      	ldr	r4, [r3, #0]
 8002fd6:	1c45      	adds	r5, r0, #1
 8002fd8:	715d      	strb	r5, [r3, #5]
 8002fda:	2555      	movs	r5, #85	@ 0x55
    dataTx->indexData = dataTx->indexW;
 8002fdc:	7198      	strb	r0, [r3, #6]
    dataTx->buff[dataTx->indexW++]='U';
 8002fde:	5425      	strb	r5, [r4, r0]
    dataTx->indexW &= dataTx->mask;
 8002fe0:	7958      	ldrb	r0, [r3, #5]
 8002fe2:	79dc      	ldrb	r4, [r3, #7]
	frameLength++;
 8002fe4:	3201      	adds	r2, #1
    dataTx->indexW &= dataTx->mask;
 8002fe6:	4020      	ands	r0, r4
    dataTx->buff[dataTx->indexW++]='N';
 8002fe8:	1c45      	adds	r5, r0, #1
 8002fea:	715d      	strb	r5, [r3, #5]
 8002fec:	254e      	movs	r5, #78	@ 0x4e
 8002fee:	681c      	ldr	r4, [r3, #0]
	frameLength++;
 8002ff0:	b2d2      	uxtb	r2, r2
    dataTx->buff[dataTx->indexW++]='N';
 8002ff2:	5425      	strb	r5, [r4, r0]
    dataTx->indexW &= dataTx->mask;
 8002ff4:	7958      	ldrb	r0, [r3, #5]
 8002ff6:	79dc      	ldrb	r4, [r3, #7]
 8002ff8:	4020      	ands	r0, r4
    dataTx->buff[dataTx->indexW++]='E';
 8002ffa:	1c45      	adds	r5, r0, #1
 8002ffc:	715d      	strb	r5, [r3, #5]
 8002ffe:	2545      	movs	r5, #69	@ 0x45
 8003000:	681c      	ldr	r4, [r3, #0]
 8003002:	5425      	strb	r5, [r4, r0]
    dataTx->indexW &= dataTx->mask;
 8003004:	7958      	ldrb	r0, [r3, #5]
 8003006:	79dc      	ldrb	r4, [r3, #7]
 8003008:	4020      	ands	r0, r4
    dataTx->buff[dataTx->indexW++]='R';
 800300a:	1c45      	adds	r5, r0, #1
 800300c:	715d      	strb	r5, [r3, #5]
 800300e:	2552      	movs	r5, #82	@ 0x52
 8003010:	681c      	ldr	r4, [r3, #0]
 8003012:	5425      	strb	r5, [r4, r0]
    dataTx->indexW &= dataTx->mask;
 8003014:	7958      	ldrb	r0, [r3, #5]
 8003016:	79dc      	ldrb	r4, [r3, #7]
 8003018:	4020      	ands	r0, r4
    dataTx->buff[dataTx->indexW++]=frameLength;
 800301a:	681c      	ldr	r4, [r3, #0]
 800301c:	1c45      	adds	r5, r0, #1
 800301e:	715d      	strb	r5, [r3, #5]
 8003020:	5422      	strb	r2, [r4, r0]
    dataTx->indexW &= dataTx->mask;
 8003022:	7958      	ldrb	r0, [r3, #5]
 8003024:	79dc      	ldrb	r4, [r3, #7]
    dataTx->indexW &= dataTx->mask;
    dataTx->buff[dataTx->indexW++]=ID;
    dataTx->indexW &= dataTx->mask;

    dataTx->nBytes = TXBYTES;
    dataTx->chk ^= ('U' ^'N' ^'E' ^'R' ^frameLength ^':'^ID) ;
 8003026:	404a      	eors	r2, r1
    dataTx->indexW &= dataTx->mask;
 8003028:	4020      	ands	r0, r4
    dataTx->buff[dataTx->indexW++]=':';
 800302a:	1c45      	adds	r5, r0, #1
 800302c:	715d      	strb	r5, [r3, #5]
 800302e:	253a      	movs	r5, #58	@ 0x3a
 8003030:	681c      	ldr	r4, [r3, #0]
 8003032:	5425      	strb	r5, [r4, r0]
    dataTx->indexW &= dataTx->mask;
 8003034:	7958      	ldrb	r0, [r3, #5]
 8003036:	79dc      	ldrb	r4, [r3, #7]
 8003038:	4020      	ands	r0, r4
    dataTx->buff[dataTx->indexW++]=ID;
 800303a:	681c      	ldr	r4, [r3, #0]
 800303c:	1c45      	adds	r5, r0, #1
 800303e:	715d      	strb	r5, [r3, #5]
 8003040:	5421      	strb	r1, [r4, r0]
    dataTx->indexW &= dataTx->mask;
 8003042:	7958      	ldrb	r0, [r3, #5]
 8003044:	79dc      	ldrb	r4, [r3, #7]
 8003046:	4020      	ands	r0, r4
 8003048:	7158      	strb	r0, [r3, #5]
    dataTx->nBytes = TXBYTES;
 800304a:	2007      	movs	r0, #7
 800304c:	7258      	strb	r0, [r3, #9]
    dataTx->chk ^= ('U' ^'N' ^'E' ^'R' ^frameLength ^':'^ID) ;
 800304e:	7a18      	ldrb	r0, [r3, #8]
 8003050:	4050      	eors	r0, r2
 8003052:	f080 0036 	eor.w	r0, r0, #54	@ 0x36
 8003056:	7218      	strb	r0, [r3, #8]

    return  dataTx->chk;
}
 8003058:	bd30      	pop	{r4, r5, pc}

0800305a <unerPrtcl_PutByteOnTx>:

uint8_t unerPrtcl_PutByteOnTx(_sComm *dataTx, uint8_t byte)
{
 800305a:	4603      	mov	r3, r0
 800305c:	b510      	push	{r4, lr}
	dataTx->nBytes++;
 800305e:	7a42      	ldrb	r2, [r0, #9]
 8003060:	3201      	adds	r2, #1
 8003062:	7242      	strb	r2, [r0, #9]
    dataTx->buff[dataTx->indexW++]=byte;
 8003064:	795a      	ldrb	r2, [r3, #5]
 8003066:	6800      	ldr	r0, [r0, #0]
 8003068:	1c54      	adds	r4, r2, #1
 800306a:	715c      	strb	r4, [r3, #5]
 800306c:	5481      	strb	r1, [r0, r2]
    dataTx->indexW &= dataTx->mask;
 800306e:	795a      	ldrb	r2, [r3, #5]
 8003070:	79d8      	ldrb	r0, [r3, #7]
 8003072:	4002      	ands	r2, r0
 8003074:	715a      	strb	r2, [r3, #5]
    dataTx->chk ^= byte;
 8003076:	7a1a      	ldrb	r2, [r3, #8]
 8003078:	ea81 0002 	eor.w	r0, r1, r2
 800307c:	7218      	strb	r0, [r3, #8]
    return dataTx->chk;
}
 800307e:	bd10      	pop	{r4, pc}

08003080 <unerPrtcl_PutStrOntx>:

uint8_t unerPrtcl_PutStrOntx(_sComm *dataTx, const char *str)
{
    volatile uint8_t globalIndex=0;
 8003080:	2300      	movs	r3, #0
{
 8003082:	b537      	push	{r0, r1, r2, r4, r5, lr}
    volatile uint8_t globalIndex=0;
 8003084:	f88d 3007 	strb.w	r3, [sp, #7]
    while(str[globalIndex]){
 8003088:	f89d 3007 	ldrb.w	r3, [sp, #7]
 800308c:	5ccb      	ldrb	r3, [r1, r3]
 800308e:	b913      	cbnz	r3, 8003096 <unerPrtcl_PutStrOntx+0x16>
        dataTx->indexW &= dataTx->mask;
        dataTx->chk ^= str[globalIndex++];
    }
    //dataTx->bytes += ++globalIndex;
    return dataTx->chk;
}
 8003090:	7a00      	ldrb	r0, [r0, #8]
 8003092:	b003      	add	sp, #12
 8003094:	bd30      	pop	{r4, r5, pc}
    	dataTx->nBytes++;
 8003096:	7a43      	ldrb	r3, [r0, #9]
        dataTx->buff[dataTx->indexW++]=str[globalIndex];
 8003098:	f89d 4007 	ldrb.w	r4, [sp, #7]
    	dataTx->nBytes++;
 800309c:	3301      	adds	r3, #1
 800309e:	7243      	strb	r3, [r0, #9]
        dataTx->buff[dataTx->indexW++]=str[globalIndex];
 80030a0:	7943      	ldrb	r3, [r0, #5]
 80030a2:	6802      	ldr	r2, [r0, #0]
 80030a4:	1c5d      	adds	r5, r3, #1
 80030a6:	7145      	strb	r5, [r0, #5]
 80030a8:	5d0c      	ldrb	r4, [r1, r4]
 80030aa:	54d4      	strb	r4, [r2, r3]
        dataTx->indexW &= dataTx->mask;
 80030ac:	7943      	ldrb	r3, [r0, #5]
 80030ae:	79c2      	ldrb	r2, [r0, #7]
 80030b0:	4013      	ands	r3, r2
        dataTx->chk ^= str[globalIndex++];
 80030b2:	f89d 2007 	ldrb.w	r2, [sp, #7]
        dataTx->indexW &= dataTx->mask;
 80030b6:	7143      	strb	r3, [r0, #5]
        dataTx->chk ^= str[globalIndex++];
 80030b8:	1c53      	adds	r3, r2, #1
 80030ba:	b2db      	uxtb	r3, r3
 80030bc:	f88d 3007 	strb.w	r3, [sp, #7]
 80030c0:	5c8b      	ldrb	r3, [r1, r2]
 80030c2:	7a02      	ldrb	r2, [r0, #8]
 80030c4:	4053      	eors	r3, r2
 80030c6:	7203      	strb	r3, [r0, #8]
 80030c8:	e7de      	b.n	8003088 <unerPrtcl_PutStrOntx+0x8>

080030ca <unerPrtcl_GetByteFromRx>:

uint8_t unerPrtcl_GetByteFromRx(_sComm *dataRx, uint8_t start, uint8_t end) {
 80030ca:	4603      	mov	r3, r0
 80030cc:	b510      	push	{r4, lr}
	uint8_t getByte;
	dataRx->indexData += start;
	dataRx->indexData &= dataRx->mask;
 80030ce:	79c4      	ldrb	r4, [r0, #7]
	dataRx->indexData += start;
 80030d0:	7980      	ldrb	r0, [r0, #6]
 80030d2:	4401      	add	r1, r0
	dataRx->indexData &= dataRx->mask;
 80030d4:	4021      	ands	r1, r4
	getByte = dataRx->buff[dataRx->indexData];
 80030d6:	6818      	ldr	r0, [r3, #0]
	dataRx->indexData &= dataRx->mask;
 80030d8:	7199      	strb	r1, [r3, #6]
	getByte = dataRx->buff[dataRx->indexData];
 80030da:	5c40      	ldrb	r0, [r0, r1]
	dataRx->indexData += end;
 80030dc:	4411      	add	r1, r2
	dataRx->indexData &= dataRx->mask;
 80030de:	400c      	ands	r4, r1
 80030e0:	719c      	strb	r4, [r3, #6]
	return getByte;
}
 80030e2:	bd10      	pop	{r4, pc}

080030e4 <unerPrtcl_DecodeHeader>:


uint8_t unerPrtcl_DecodeHeader(_sComm *dataRx)
{
 80030e4:	b5f0      	push	{r4, r5, r6, r7, lr}
                    if(dataRx->buff[dataRx->indexR] == dataRx->chk)
                        return TRUE;
                }
            break;
            default:
            	dataRx->header = HEADER_U;
 80030e6:	2400      	movs	r4, #0
                dataRx->header = TOKEN;
 80030e8:	2605      	movs	r6, #5
    uint8_t auxIndex=dataRx->indexW;
 80030ea:	7945      	ldrb	r5, [r0, #5]
    while(dataRx->indexR != auxIndex){
 80030ec:	7903      	ldrb	r3, [r0, #4]
 80030ee:	42ab      	cmp	r3, r5
 80030f0:	d101      	bne.n	80030f6 <unerPrtcl_DecodeHeader+0x12>
            break;
        }
        dataRx->indexR++;
        dataRx->indexR &= dataRx->mask;
    }
    return FALSE;
 80030f2:	2000      	movs	r0, #0
}
 80030f4:	bdf0      	pop	{r4, r5, r6, r7, pc}
        switch(dataRx->header)
 80030f6:	7a82      	ldrb	r2, [r0, #10]
 80030f8:	2a07      	cmp	r2, #7
 80030fa:	d850      	bhi.n	800319e <unerPrtcl_DecodeHeader+0xba>
 80030fc:	e8df f002 	tbb	[pc, r2]
 8003100:	221c0f04 	.word	0x221c0f04
 8003104:	3e4f2d28 	.word	0x3e4f2d28
                if(dataRx->buff[dataRx->indexR] == 'U'){
 8003108:	6802      	ldr	r2, [r0, #0]
 800310a:	5cd2      	ldrb	r2, [r2, r3]
 800310c:	2a55      	cmp	r2, #85	@ 0x55
 800310e:	d101      	bne.n	8003114 <unerPrtcl_DecodeHeader+0x30>
                	dataRx->header = HEADER_N;
 8003110:	2201      	movs	r2, #1
                	dataRx->header = NBYTES;
 8003112:	7282      	strb	r2, [r0, #10]
        dataRx->indexR &= dataRx->mask;
 8003114:	79c2      	ldrb	r2, [r0, #7]
        dataRx->indexR++;
 8003116:	3301      	adds	r3, #1
        dataRx->indexR &= dataRx->mask;
 8003118:	4013      	ands	r3, r2
 800311a:	7103      	strb	r3, [r0, #4]
 800311c:	e7e6      	b.n	80030ec <unerPrtcl_DecodeHeader+0x8>
                if(dataRx->buff[dataRx->indexR] == 'N'){
 800311e:	6802      	ldr	r2, [r0, #0]
 8003120:	5cd2      	ldrb	r2, [r2, r3]
 8003122:	2a4e      	cmp	r2, #78	@ 0x4e
 8003124:	d101      	bne.n	800312a <unerPrtcl_DecodeHeader+0x46>
                	dataRx->header = HEADER_E;
 8003126:	2202      	movs	r2, #2
 8003128:	e7f3      	b.n	8003112 <unerPrtcl_DecodeHeader+0x2e>
                    if(dataRx->buff[dataRx->indexR] != 'U'){
 800312a:	2a55      	cmp	r2, #85	@ 0x55
 800312c:	d0f2      	beq.n	8003114 <unerPrtcl_DecodeHeader+0x30>
                    	dataRx->header = HEADER_U;
 800312e:	2200      	movs	r2, #0
 8003130:	7282      	strb	r2, [r0, #10]
                    dataRx->indexR--;
 8003132:	3b01      	subs	r3, #1
 8003134:	b2db      	uxtb	r3, r3
 8003136:	e7ed      	b.n	8003114 <unerPrtcl_DecodeHeader+0x30>
                if(dataRx->buff[dataRx->indexR] == 'E'){
 8003138:	6802      	ldr	r2, [r0, #0]
 800313a:	5cd2      	ldrb	r2, [r2, r3]
 800313c:	2a45      	cmp	r2, #69	@ 0x45
 800313e:	d11b      	bne.n	8003178 <unerPrtcl_DecodeHeader+0x94>
                	dataRx->header = HEADER_R;
 8003140:	2203      	movs	r2, #3
 8003142:	e7e6      	b.n	8003112 <unerPrtcl_DecodeHeader+0x2e>
                if(dataRx->buff[dataRx->indexR] == 'R'){
 8003144:	6802      	ldr	r2, [r0, #0]
 8003146:	5cd2      	ldrb	r2, [r2, r3]
 8003148:	2a52      	cmp	r2, #82	@ 0x52
 800314a:	d115      	bne.n	8003178 <unerPrtcl_DecodeHeader+0x94>
                	dataRx->header = NBYTES;
 800314c:	2204      	movs	r2, #4
 800314e:	e7e0      	b.n	8003112 <unerPrtcl_DecodeHeader+0x2e>
                dataRx->nBytes=dataRx->buff[dataRx->indexR];
 8003150:	6802      	ldr	r2, [r0, #0]
 8003152:	5cd2      	ldrb	r2, [r2, r3]
                dataRx->header = TOKEN;
 8003154:	7286      	strb	r6, [r0, #10]
                dataRx->nBytes=dataRx->buff[dataRx->indexR];
 8003156:	7242      	strb	r2, [r0, #9]
            break;
 8003158:	e7dc      	b.n	8003114 <unerPrtcl_DecodeHeader+0x30>
                if(dataRx->buff[dataRx->indexR] == ':'){
 800315a:	6802      	ldr	r2, [r0, #0]
 800315c:	5cd2      	ldrb	r2, [r2, r3]
 800315e:	2a3a      	cmp	r2, #58	@ 0x3a
 8003160:	d10a      	bne.n	8003178 <unerPrtcl_DecodeHeader+0x94>
                	dataRx->header = PAYLOAD;
 8003162:	2107      	movs	r1, #7
                    dataRx->indexData &= dataRx->mask;
 8003164:	79c2      	ldrb	r2, [r0, #7]
                	dataRx->header = PAYLOAD;
 8003166:	7281      	strb	r1, [r0, #10]
                    dataRx->indexData = dataRx->indexR+1;
 8003168:	1c59      	adds	r1, r3, #1
                    dataRx->indexData &= dataRx->mask;
 800316a:	400a      	ands	r2, r1
 800316c:	7182      	strb	r2, [r0, #6]
                    dataRx->chk ^= ('U' ^'N' ^'E' ^'R' ^ dataRx->nBytes ^':') ;
 800316e:	7a42      	ldrb	r2, [r0, #9]
 8003170:	f082 0236 	eor.w	r2, r2, #54	@ 0x36
 8003174:	7202      	strb	r2, [r0, #8]
 8003176:	e7cd      	b.n	8003114 <unerPrtcl_DecodeHeader+0x30>
                	dataRx->header = HEADER_U;
 8003178:	7284      	strb	r4, [r0, #10]
 800317a:	e7da      	b.n	8003132 <unerPrtcl_DecodeHeader+0x4e>
            	dataRx->nBytes--;
 800317c:	7a42      	ldrb	r2, [r0, #9]
                   dataRx->chk ^= dataRx->buff[dataRx->indexR];
 800317e:	6807      	ldr	r7, [r0, #0]
            	dataRx->nBytes--;
 8003180:	3a01      	subs	r2, #1
 8003182:	b2d2      	uxtb	r2, r2
                   dataRx->chk ^= dataRx->buff[dataRx->indexR];
 8003184:	7a01      	ldrb	r1, [r0, #8]
            	dataRx->nBytes--;
 8003186:	7242      	strb	r2, [r0, #9]
                if(dataRx->nBytes>0){
 8003188:	b11a      	cbz	r2, 8003192 <unerPrtcl_DecodeHeader+0xae>
                   dataRx->chk ^= dataRx->buff[dataRx->indexR];
 800318a:	5cfa      	ldrb	r2, [r7, r3]
 800318c:	4051      	eors	r1, r2
 800318e:	7201      	strb	r1, [r0, #8]
 8003190:	e7c0      	b.n	8003114 <unerPrtcl_DecodeHeader+0x30>
                	dataRx->header = HEADER_U;
 8003192:	7282      	strb	r2, [r0, #10]
                    if(dataRx->buff[dataRx->indexR] == dataRx->chk)
 8003194:	5cfa      	ldrb	r2, [r7, r3]
 8003196:	428a      	cmp	r2, r1
 8003198:	d1bc      	bne.n	8003114 <unerPrtcl_DecodeHeader+0x30>
                        return TRUE;
 800319a:	2001      	movs	r0, #1
 800319c:	e7aa      	b.n	80030f4 <unerPrtcl_DecodeHeader+0x10>
            	dataRx->header = HEADER_U;
 800319e:	7284      	strb	r4, [r0, #10]
            break;
 80031a0:	e7b8      	b.n	8003114 <unerPrtcl_DecodeHeader+0x30>

080031a2 <unerPrtcl_Init>:

void unerPrtcl_Init(_sComm *Rx, _sComm *Tx, volatile uint8_t *buffRx, volatile uint8_t *buffTx){
 80031a2:	b510      	push	{r4, lr}
	Rx->buff = (uint8_t *)buffRx;
 80031a4:	6002      	str	r2, [r0, #0]
    Rx->indexR = 0;
 80031a6:	f04f 447f 	mov.w	r4, #4278190080	@ 0xff000000
    Rx->indexW = 0;
    Rx->indexData = 0;
    Rx->nBytes = 0;
    Rx->header = HEADER_U;
    Rx->mask = RXBUFSIZE - 1; //Control de buffer 2n-1
    Rx->chk = 0;
 80031aa:	2200      	movs	r2, #0
    Rx->indexR = 0;
 80031ac:	6044      	str	r4, [r0, #4]
    Rx->chk = 0;
 80031ae:	8102      	strh	r2, [r0, #8]
    Rx->header = HEADER_U;
 80031b0:	7282      	strb	r2, [r0, #10]

    Tx->buff = (uint8_t *)buffTx;
    Tx->indexR = 0;
 80031b2:	e9c1 3400 	strd	r3, r4, [r1]
    Tx->indexW = 0;
    Tx->indexData = 0;
    Tx->nBytes = 0;
    Tx->header = HEADER_U;
    Tx->mask = TXBUFSIZE - 1;
    Tx->chk = 0;
 80031b6:	810a      	strh	r2, [r1, #8]
    Tx->header = HEADER_U;
 80031b8:	728a      	strb	r2, [r1, #10]

}
 80031ba:	bd10      	pop	{r4, pc}

080031bc <Reset_Handler>:
  .weak Reset_Handler
  .type Reset_Handler, %function
Reset_Handler:

/* Call the clock system initialization function.*/
    bl  SystemInit
 80031bc:	f7ff ff04 	bl	8002fc8 <SystemInit>

/* Copy the data segment initializers from flash to SRAM */
  ldr r0, =_sdata
 80031c0:	480b      	ldr	r0, [pc, #44]	@ (80031f0 <LoopFillZerobss+0xe>)
  ldr r1, =_edata
 80031c2:	490c      	ldr	r1, [pc, #48]	@ (80031f4 <LoopFillZerobss+0x12>)
  ldr r2, =_sidata
 80031c4:	4a0c      	ldr	r2, [pc, #48]	@ (80031f8 <LoopFillZerobss+0x16>)
  movs r3, #0
 80031c6:	2300      	movs	r3, #0
  b LoopCopyDataInit
 80031c8:	e002      	b.n	80031d0 <LoopCopyDataInit>

080031ca <CopyDataInit>:

CopyDataInit:
  ldr r4, [r2, r3]
 80031ca:	58d4      	ldr	r4, [r2, r3]
  str r4, [r0, r3]
 80031cc:	50c4      	str	r4, [r0, r3]
  adds r3, r3, #4
 80031ce:	3304      	adds	r3, #4

080031d0 <LoopCopyDataInit>:

LoopCopyDataInit:
  adds r4, r0, r3
 80031d0:	18c4      	adds	r4, r0, r3
  cmp r4, r1
 80031d2:	428c      	cmp	r4, r1
  bcc CopyDataInit
 80031d4:	d3f9      	bcc.n	80031ca <CopyDataInit>
  
/* Zero fill the bss segment. */
  ldr r2, =_sbss
 80031d6:	4a09      	ldr	r2, [pc, #36]	@ (80031fc <LoopFillZerobss+0x1a>)
  ldr r4, =_ebss
 80031d8:	4c09      	ldr	r4, [pc, #36]	@ (8003200 <LoopFillZerobss+0x1e>)
  movs r3, #0
 80031da:	2300      	movs	r3, #0
  b LoopFillZerobss
 80031dc:	e001      	b.n	80031e2 <LoopFillZerobss>

080031de <FillZerobss>:

FillZerobss:
  str  r3, [r2]
 80031de:	6013      	str	r3, [r2, #0]
  adds r2, r2, #4
 80031e0:	3204      	adds	r2, #4

080031e2 <LoopFillZerobss>:

LoopFillZerobss:
  cmp r2, r4
 80031e2:	42a2      	cmp	r2, r4
  bcc FillZerobss
 80031e4:	d3fb      	bcc.n	80031de <FillZerobss>

/* Call static constructors */
    bl __libc_init_array
 80031e6:	f005 fe9d 	bl	8008f24 <__libc_init_array>
/* Call the application's entry point.*/
  bl main
 80031ea:	f7fe fe8d 	bl	8001f08 <main>
  bx lr
 80031ee:	4770      	bx	lr
  ldr r0, =_sdata
 80031f0:	20000000 	.word	0x20000000
  ldr r1, =_edata
 80031f4:	20000240 	.word	0x20000240
  ldr r2, =_sidata
 80031f8:	0800b378 	.word	0x0800b378
  ldr r2, =_sbss
 80031fc:	20000240 	.word	0x20000240
  ldr r4, =_ebss
 8003200:	20002698 	.word	0x20002698

08003204 <CAN1_RX1_IRQHandler>:
 * @retval : None
*/
    .section .text.Default_Handler,"ax",%progbits
Default_Handler:
Infinite_Loop:
  b Infinite_Loop
 8003204:	e7fe      	b.n	8003204 <CAN1_RX1_IRQHandler>
	...

08003208 <HAL_InitTick>:
  *       implementation  in user file.
  * @param TickPriority Tick interrupt priority.
  * @retval HAL status
  */
__weak HAL_StatusTypeDef HAL_InitTick(uint32_t TickPriority)
{
 8003208:	b538      	push	{r3, r4, r5, lr}
  /* Configure the SysTick to have interrupt in 1ms time basis*/
  if (HAL_SYSTICK_Config(SystemCoreClock / (1000U / uwTickFreq)) > 0U)
 800320a:	4b0e      	ldr	r3, [pc, #56]	@ (8003244 <HAL_InitTick+0x3c>)
{
 800320c:	4605      	mov	r5, r0
  if (HAL_SYSTICK_Config(SystemCoreClock / (1000U / uwTickFreq)) > 0U)
 800320e:	781a      	ldrb	r2, [r3, #0]
 8003210:	f44f 737a 	mov.w	r3, #1000	@ 0x3e8
 8003214:	fbb3 f3f2 	udiv	r3, r3, r2
 8003218:	4a0b      	ldr	r2, [pc, #44]	@ (8003248 <HAL_InitTick+0x40>)
 800321a:	6810      	ldr	r0, [r2, #0]
 800321c:	fbb0 f0f3 	udiv	r0, r0, r3
 8003220:	f000 fb36 	bl	8003890 <HAL_SYSTICK_Config>
 8003224:	4604      	mov	r4, r0
 8003226:	b958      	cbnz	r0, 8003240 <HAL_InitTick+0x38>
  {
    return HAL_ERROR;
  }

  /* Configure the SysTick IRQ priority */
  if (TickPriority < (1UL << __NVIC_PRIO_BITS))
 8003228:	2d0f      	cmp	r5, #15
 800322a:	d809      	bhi.n	8003240 <HAL_InitTick+0x38>
  {
    HAL_NVIC_SetPriority(SysTick_IRQn, TickPriority, 0U);
 800322c:	4602      	mov	r2, r0
 800322e:	4629      	mov	r1, r5
 8003230:	f04f 30ff 	mov.w	r0, #4294967295
 8003234:	f000 faee 	bl	8003814 <HAL_NVIC_SetPriority>
    uwTickPrio = TickPriority;
 8003238:	4620      	mov	r0, r4
 800323a:	4b04      	ldr	r3, [pc, #16]	@ (800324c <HAL_InitTick+0x44>)
 800323c:	601d      	str	r5, [r3, #0]
    return HAL_ERROR;
  }

  /* Return function status */
  return HAL_OK;
}
 800323e:	bd38      	pop	{r3, r4, r5, pc}
    return HAL_ERROR;
 8003240:	2001      	movs	r0, #1
 8003242:	e7fc      	b.n	800323e <HAL_InitTick+0x36>
 8003244:	20000070 	.word	0x20000070
 8003248:	2000006c 	.word	0x2000006c
 800324c:	20000074 	.word	0x20000074

08003250 <HAL_Init>:
  __HAL_FLASH_PREFETCH_BUFFER_ENABLE();
 8003250:	4a07      	ldr	r2, [pc, #28]	@ (8003270 <HAL_Init+0x20>)
{
 8003252:	b508      	push	{r3, lr}
  __HAL_FLASH_PREFETCH_BUFFER_ENABLE();
 8003254:	6813      	ldr	r3, [r2, #0]
  HAL_NVIC_SetPriorityGrouping(NVIC_PRIORITYGROUP_4);
 8003256:	2003      	movs	r0, #3
  __HAL_FLASH_PREFETCH_BUFFER_ENABLE();
 8003258:	f043 0310 	orr.w	r3, r3, #16
 800325c:	6013      	str	r3, [r2, #0]
  HAL_NVIC_SetPriorityGrouping(NVIC_PRIORITYGROUP_4);
 800325e:	f000 fac7 	bl	80037f0 <HAL_NVIC_SetPriorityGrouping>
  HAL_InitTick(TICK_INT_PRIORITY);
 8003262:	200f      	movs	r0, #15
 8003264:	f7ff ffd0 	bl	8003208 <HAL_InitTick>
  HAL_MspInit();
 8003268:	f7ff fc5e 	bl	8002b28 <HAL_MspInit>
}
 800326c:	2000      	movs	r0, #0
 800326e:	bd08      	pop	{r3, pc}
 8003270:	40022000 	.word	0x40022000

08003274 <HAL_IncTick>:
  *      implementations in user file.
  * @retval None
  */
__weak void HAL_IncTick(void)
{
  uwTick += uwTickFreq;
 8003274:	4a03      	ldr	r2, [pc, #12]	@ (8003284 <HAL_IncTick+0x10>)
 8003276:	4b04      	ldr	r3, [pc, #16]	@ (8003288 <HAL_IncTick+0x14>)
 8003278:	6811      	ldr	r1, [r2, #0]
 800327a:	781b      	ldrb	r3, [r3, #0]
 800327c:	440b      	add	r3, r1
 800327e:	6013      	str	r3, [r2, #0]
}
 8003280:	4770      	bx	lr
 8003282:	bf00      	nop
 8003284:	20001388 	.word	0x20001388
 8003288:	20000070 	.word	0x20000070

0800328c <HAL_GetTick>:
  *       implementations in user file.
  * @retval tick value
  */
__weak uint32_t HAL_GetTick(void)
{
  return uwTick;
 800328c:	4b01      	ldr	r3, [pc, #4]	@ (8003294 <HAL_GetTick+0x8>)
 800328e:	6818      	ldr	r0, [r3, #0]
}
 8003290:	4770      	bx	lr
 8003292:	bf00      	nop
 8003294:	20001388 	.word	0x20001388

08003298 <HAL_Delay>:
  *       implementations in user file.
  * @param Delay specifies the delay time length, in milliseconds.
  * @retval None
  */
__weak void HAL_Delay(uint32_t Delay)
{
 8003298:	b538      	push	{r3, r4, r5, lr}
 800329a:	4604      	mov	r4, r0
  uint32_t tickstart = HAL_GetTick();
 800329c:	f7ff fff6 	bl	800328c <HAL_GetTick>
 80032a0:	4605      	mov	r5, r0
  uint32_t wait = Delay;

  /* Add a freq to guarantee minimum wait */
  if (wait < HAL_MAX_DELAY)
 80032a2:	1c63      	adds	r3, r4, #1
  {
    wait += (uint32_t)(uwTickFreq);
 80032a4:	bf1e      	ittt	ne
 80032a6:	4b04      	ldrne	r3, [pc, #16]	@ (80032b8 <HAL_Delay+0x20>)
 80032a8:	781b      	ldrbne	r3, [r3, #0]
 80032aa:	18e4      	addne	r4, r4, r3
  }

  while ((HAL_GetTick() - tickstart) < wait)
 80032ac:	f7ff ffee 	bl	800328c <HAL_GetTick>
 80032b0:	1b43      	subs	r3, r0, r5
 80032b2:	42a3      	cmp	r3, r4
 80032b4:	d3fa      	bcc.n	80032ac <HAL_Delay+0x14>
  {
  }
}
 80032b6:	bd38      	pop	{r3, r4, r5, pc}
 80032b8:	20000070 	.word	0x20000070

080032bc <ADC_DMAConvCplt>:
  * @retval None
  */
void ADC_DMAConvCplt(DMA_HandleTypeDef *hdma)
{
  /* Retrieve ADC handle corresponding to current DMA handle */
  ADC_HandleTypeDef* hadc = ( ADC_HandleTypeDef* )((DMA_HandleTypeDef* )hdma)->Parent;
 80032bc:	6a43      	ldr	r3, [r0, #36]	@ 0x24
{
 80032be:	b510      	push	{r4, lr}
 
  /* Update state machine on conversion status if not in error state */
  if (HAL_IS_BIT_CLR(hadc->State, HAL_ADC_STATE_ERROR_INTERNAL | HAL_ADC_STATE_ERROR_DMA))
 80032c0:	6a9a      	ldr	r2, [r3, #40]	@ 0x28
 80032c2:	f012 0f50 	tst.w	r2, #80	@ 0x50
 80032c6:	d11b      	bne.n	8003300 <ADC_DMAConvCplt+0x44>
  {
    /* Update ADC state machine */
    SET_BIT(hadc->State, HAL_ADC_STATE_REG_EOC);
 80032c8:	6a9a      	ldr	r2, [r3, #40]	@ 0x28
 80032ca:	f442 7200 	orr.w	r2, r2, #512	@ 0x200
 80032ce:	629a      	str	r2, [r3, #40]	@ 0x28
    /* Determine whether any further conversion upcoming on group regular     */
    /* by external trigger, continuous mode or scan sequence on going.        */
    /* Note: On STM32F1 devices, in case of sequencer enabled                 */
    /*       (several ranks selected), end of conversion flag is raised       */
    /*       at the end of the sequence.                                      */
    if(ADC_IS_SOFTWARE_START_REGULAR(hadc)        && 
 80032d0:	681a      	ldr	r2, [r3, #0]
 80032d2:	6892      	ldr	r2, [r2, #8]
 80032d4:	f402 2260 	and.w	r2, r2, #917504	@ 0xe0000
 80032d8:	f5b2 2f60 	cmp.w	r2, #917504	@ 0xe0000
 80032dc:	d10c      	bne.n	80032f8 <ADC_DMAConvCplt+0x3c>
 80032de:	7b1a      	ldrb	r2, [r3, #12]
 80032e0:	b952      	cbnz	r2, 80032f8 <ADC_DMAConvCplt+0x3c>
       (hadc->Init.ContinuousConvMode == DISABLE)   )
    {
      /* Set ADC state */
      CLEAR_BIT(hadc->State, HAL_ADC_STATE_REG_BUSY);   
 80032e2:	6a9a      	ldr	r2, [r3, #40]	@ 0x28
 80032e4:	f422 7280 	bic.w	r2, r2, #256	@ 0x100
 80032e8:	629a      	str	r2, [r3, #40]	@ 0x28
      
      if (HAL_IS_BIT_CLR(hadc->State, HAL_ADC_STATE_INJ_BUSY))
 80032ea:	6a9a      	ldr	r2, [r3, #40]	@ 0x28
 80032ec:	04d2      	lsls	r2, r2, #19
      {
        SET_BIT(hadc->State, HAL_ADC_STATE_READY);
 80032ee:	bf5e      	ittt	pl
 80032f0:	6a9a      	ldrpl	r2, [r3, #40]	@ 0x28
 80032f2:	f042 0201 	orrpl.w	r2, r2, #1
 80032f6:	629a      	strpl	r2, [r3, #40]	@ 0x28
    
    /* Conversion complete callback */
#if (USE_HAL_ADC_REGISTER_CALLBACKS == 1)
    hadc->ConvCpltCallback(hadc);
#else
    HAL_ADC_ConvCpltCallback(hadc);
 80032f8:	4618      	mov	r0, r3
 80032fa:	f7fd fe0b 	bl	8000f14 <HAL_ADC_ConvCpltCallback>
  else
  {
    /* Call DMA error callback */
    hadc->DMA_Handle->XferErrorCallback(hdma);
  }
}
 80032fe:	bd10      	pop	{r4, pc}
    hadc->DMA_Handle->XferErrorCallback(hdma);
 8003300:	6a1b      	ldr	r3, [r3, #32]
}
 8003302:	e8bd 4010 	ldmia.w	sp!, {r4, lr}
    hadc->DMA_Handle->XferErrorCallback(hdma);
 8003306:	6b1b      	ldr	r3, [r3, #48]	@ 0x30
 8003308:	4718      	bx	r3

0800330a <HAL_ADC_ConvHalfCpltCallback>:
__weak void HAL_ADC_ConvHalfCpltCallback(ADC_HandleTypeDef* hadc)
 800330a:	4770      	bx	lr

0800330c <ADC_DMAHalfConvCplt>:
  * @brief  DMA half transfer complete callback. 
  * @param  hdma: pointer to DMA handle.
  * @retval None
  */
void ADC_DMAHalfConvCplt(DMA_HandleTypeDef *hdma)   
{
 800330c:	b508      	push	{r3, lr}
  
  /* Half conversion callback */
#if (USE_HAL_ADC_REGISTER_CALLBACKS == 1)
    hadc->ConvHalfCpltCallback(hadc);
#else
  HAL_ADC_ConvHalfCpltCallback(hadc);
 800330e:	6a40      	ldr	r0, [r0, #36]	@ 0x24
 8003310:	f7ff fffb 	bl	800330a <HAL_ADC_ConvHalfCpltCallback>
#endif /* USE_HAL_ADC_REGISTER_CALLBACKS */
}
 8003314:	bd08      	pop	{r3, pc}

08003316 <HAL_ADC_LevelOutOfWindowCallback>:
__weak void HAL_ADC_LevelOutOfWindowCallback(ADC_HandleTypeDef* hadc)
 8003316:	4770      	bx	lr

08003318 <HAL_ADC_IRQHandler>:
  uint32_t tmp_sr = hadc->Instance->SR;
 8003318:	6803      	ldr	r3, [r0, #0]
{
 800331a:	b570      	push	{r4, r5, r6, lr}
  uint32_t tmp_sr = hadc->Instance->SR;
 800331c:	681d      	ldr	r5, [r3, #0]
  uint32_t tmp_cr1 = hadc->Instance->CR1;
 800331e:	685e      	ldr	r6, [r3, #4]
{
 8003320:	4604      	mov	r4, r0
  if((tmp_cr1 & ADC_IT_EOC) == ADC_IT_EOC)
 8003322:	06b0      	lsls	r0, r6, #26
 8003324:	d526      	bpl.n	8003374 <HAL_ADC_IRQHandler+0x5c>
    if((tmp_sr & ADC_FLAG_EOC) == ADC_FLAG_EOC)
 8003326:	07a9      	lsls	r1, r5, #30
 8003328:	d524      	bpl.n	8003374 <HAL_ADC_IRQHandler+0x5c>
      if (HAL_IS_BIT_CLR(hadc->State, HAL_ADC_STATE_ERROR_INTERNAL))
 800332a:	6aa2      	ldr	r2, [r4, #40]	@ 0x28
 800332c:	06d2      	lsls	r2, r2, #27
        SET_BIT(hadc->State, HAL_ADC_STATE_REG_EOC); 
 800332e:	bf5e      	ittt	pl
 8003330:	6aa2      	ldrpl	r2, [r4, #40]	@ 0x28
 8003332:	f442 7200 	orrpl.w	r2, r2, #512	@ 0x200
 8003336:	62a2      	strpl	r2, [r4, #40]	@ 0x28
      if(ADC_IS_SOFTWARE_START_REGULAR(hadc)        && 
 8003338:	689a      	ldr	r2, [r3, #8]
 800333a:	f402 2260 	and.w	r2, r2, #917504	@ 0xe0000
 800333e:	f5b2 2f60 	cmp.w	r2, #917504	@ 0xe0000
 8003342:	d110      	bne.n	8003366 <HAL_ADC_IRQHandler+0x4e>
 8003344:	7b22      	ldrb	r2, [r4, #12]
 8003346:	b972      	cbnz	r2, 8003366 <HAL_ADC_IRQHandler+0x4e>
        __HAL_ADC_DISABLE_IT(hadc, ADC_IT_EOC);
 8003348:	685a      	ldr	r2, [r3, #4]
 800334a:	f022 0220 	bic.w	r2, r2, #32
 800334e:	605a      	str	r2, [r3, #4]
        CLEAR_BIT(hadc->State, HAL_ADC_STATE_REG_BUSY);   
 8003350:	6aa3      	ldr	r3, [r4, #40]	@ 0x28
 8003352:	f423 7380 	bic.w	r3, r3, #256	@ 0x100
 8003356:	62a3      	str	r3, [r4, #40]	@ 0x28
        if (HAL_IS_BIT_CLR(hadc->State, HAL_ADC_STATE_INJ_BUSY))
 8003358:	6aa3      	ldr	r3, [r4, #40]	@ 0x28
 800335a:	04d8      	lsls	r0, r3, #19
          SET_BIT(hadc->State, HAL_ADC_STATE_READY);
 800335c:	bf5e      	ittt	pl
 800335e:	6aa3      	ldrpl	r3, [r4, #40]	@ 0x28
 8003360:	f043 0301 	orrpl.w	r3, r3, #1
 8003364:	62a3      	strpl	r3, [r4, #40]	@ 0x28
      HAL_ADC_ConvCpltCallback(hadc);
 8003366:	4620      	mov	r0, r4
 8003368:	f7fd fdd4 	bl	8000f14 <HAL_ADC_ConvCpltCallback>
      __HAL_ADC_CLEAR_FLAG(hadc, ADC_FLAG_STRT | ADC_FLAG_EOC);
 800336c:	f06f 0212 	mvn.w	r2, #18
 8003370:	6823      	ldr	r3, [r4, #0]
 8003372:	601a      	str	r2, [r3, #0]
  if((tmp_cr1 & ADC_IT_JEOC) == ADC_IT_JEOC)
 8003374:	0631      	lsls	r1, r6, #24
 8003376:	d530      	bpl.n	80033da <HAL_ADC_IRQHandler+0xc2>
    if((tmp_sr & ADC_FLAG_JEOC) == ADC_FLAG_JEOC)
 8003378:	076a      	lsls	r2, r5, #29
 800337a:	d52e      	bpl.n	80033da <HAL_ADC_IRQHandler+0xc2>
      if (HAL_IS_BIT_CLR(hadc->State, HAL_ADC_STATE_ERROR_INTERNAL))
 800337c:	6aa3      	ldr	r3, [r4, #40]	@ 0x28
 800337e:	06db      	lsls	r3, r3, #27
        SET_BIT(hadc->State, HAL_ADC_STATE_INJ_EOC);
 8003380:	bf5e      	ittt	pl
 8003382:	6aa3      	ldrpl	r3, [r4, #40]	@ 0x28
 8003384:	f443 5300 	orrpl.w	r3, r3, #8192	@ 0x2000
 8003388:	62a3      	strpl	r3, [r4, #40]	@ 0x28
      if(ADC_IS_SOFTWARE_START_INJECTED(hadc)                     || 
 800338a:	6823      	ldr	r3, [r4, #0]
 800338c:	689a      	ldr	r2, [r3, #8]
 800338e:	f402 42e0 	and.w	r2, r2, #28672	@ 0x7000
 8003392:	f5b2 4fe0 	cmp.w	r2, #28672	@ 0x7000
 8003396:	d00a      	beq.n	80033ae <HAL_ADC_IRQHandler+0x96>
         (HAL_IS_BIT_CLR(hadc->Instance->CR1, ADC_CR1_JAUTO) &&     
 8003398:	685a      	ldr	r2, [r3, #4]
      if(ADC_IS_SOFTWARE_START_INJECTED(hadc)                     || 
 800339a:	0550      	lsls	r0, r2, #21
 800339c:	d416      	bmi.n	80033cc <HAL_ADC_IRQHandler+0xb4>
         (ADC_IS_SOFTWARE_START_REGULAR(hadc)        &&
 800339e:	689a      	ldr	r2, [r3, #8]
 80033a0:	f402 2260 	and.w	r2, r2, #917504	@ 0xe0000
         (HAL_IS_BIT_CLR(hadc->Instance->CR1, ADC_CR1_JAUTO) &&     
 80033a4:	f5b2 2f60 	cmp.w	r2, #917504	@ 0xe0000
 80033a8:	d110      	bne.n	80033cc <HAL_ADC_IRQHandler+0xb4>
         (ADC_IS_SOFTWARE_START_REGULAR(hadc)        &&
 80033aa:	7b22      	ldrb	r2, [r4, #12]
 80033ac:	b972      	cbnz	r2, 80033cc <HAL_ADC_IRQHandler+0xb4>
        __HAL_ADC_DISABLE_IT(hadc, ADC_IT_JEOC);
 80033ae:	685a      	ldr	r2, [r3, #4]
 80033b0:	f022 0280 	bic.w	r2, r2, #128	@ 0x80
 80033b4:	605a      	str	r2, [r3, #4]
        CLEAR_BIT(hadc->State, HAL_ADC_STATE_INJ_BUSY);   
 80033b6:	6aa3      	ldr	r3, [r4, #40]	@ 0x28
 80033b8:	f423 5380 	bic.w	r3, r3, #4096	@ 0x1000
 80033bc:	62a3      	str	r3, [r4, #40]	@ 0x28
        if (HAL_IS_BIT_CLR(hadc->State, HAL_ADC_STATE_REG_BUSY))
 80033be:	6aa3      	ldr	r3, [r4, #40]	@ 0x28
 80033c0:	05d9      	lsls	r1, r3, #23
          SET_BIT(hadc->State, HAL_ADC_STATE_READY);
 80033c2:	bf5e      	ittt	pl
 80033c4:	6aa3      	ldrpl	r3, [r4, #40]	@ 0x28
 80033c6:	f043 0301 	orrpl.w	r3, r3, #1
 80033ca:	62a3      	strpl	r3, [r4, #40]	@ 0x28
      HAL_ADCEx_InjectedConvCpltCallback(hadc);
 80033cc:	4620      	mov	r0, r4
 80033ce:	f000 fa0d 	bl	80037ec <HAL_ADCEx_InjectedConvCpltCallback>
      __HAL_ADC_CLEAR_FLAG(hadc, (ADC_FLAG_JSTRT | ADC_FLAG_JEOC));
 80033d2:	f06f 020c 	mvn.w	r2, #12
 80033d6:	6823      	ldr	r3, [r4, #0]
 80033d8:	601a      	str	r2, [r3, #0]
  if((tmp_cr1 & ADC_IT_AWD) == ADC_IT_AWD)
 80033da:	0672      	lsls	r2, r6, #25
 80033dc:	d50c      	bpl.n	80033f8 <HAL_ADC_IRQHandler+0xe0>
    if((tmp_sr & ADC_FLAG_AWD) == ADC_FLAG_AWD)
 80033de:	07eb      	lsls	r3, r5, #31
 80033e0:	d50a      	bpl.n	80033f8 <HAL_ADC_IRQHandler+0xe0>
      SET_BIT(hadc->State, HAL_ADC_STATE_AWD1);
 80033e2:	6aa3      	ldr	r3, [r4, #40]	@ 0x28
      HAL_ADC_LevelOutOfWindowCallback(hadc);
 80033e4:	4620      	mov	r0, r4
      SET_BIT(hadc->State, HAL_ADC_STATE_AWD1);
 80033e6:	f443 3380 	orr.w	r3, r3, #65536	@ 0x10000
 80033ea:	62a3      	str	r3, [r4, #40]	@ 0x28
      HAL_ADC_LevelOutOfWindowCallback(hadc);
 80033ec:	f7ff ff93 	bl	8003316 <HAL_ADC_LevelOutOfWindowCallback>
      __HAL_ADC_CLEAR_FLAG(hadc, ADC_FLAG_AWD);
 80033f0:	f06f 0201 	mvn.w	r2, #1
 80033f4:	6823      	ldr	r3, [r4, #0]
 80033f6:	601a      	str	r2, [r3, #0]
}
 80033f8:	bd70      	pop	{r4, r5, r6, pc}

080033fa <HAL_ADC_ErrorCallback>:
__weak void HAL_ADC_ErrorCallback(ADC_HandleTypeDef *hadc)
 80033fa:	4770      	bx	lr

080033fc <ADC_DMAError>:
  * @retval None
  */
void ADC_DMAError(DMA_HandleTypeDef *hdma)   
{
  /* Retrieve ADC handle corresponding to current DMA handle */
  ADC_HandleTypeDef* hadc = ( ADC_HandleTypeDef* )((DMA_HandleTypeDef* )hdma)->Parent;
 80033fc:	6a40      	ldr	r0, [r0, #36]	@ 0x24
{
 80033fe:	b508      	push	{r3, lr}
  
  /* Set ADC state */
  SET_BIT(hadc->State, HAL_ADC_STATE_ERROR_DMA);
 8003400:	6a83      	ldr	r3, [r0, #40]	@ 0x28
 8003402:	f043 0340 	orr.w	r3, r3, #64	@ 0x40
 8003406:	6283      	str	r3, [r0, #40]	@ 0x28
  
  /* Set ADC error code to DMA error */
  SET_BIT(hadc->ErrorCode, HAL_ADC_ERROR_DMA);
 8003408:	6ac3      	ldr	r3, [r0, #44]	@ 0x2c
 800340a:	f043 0304 	orr.w	r3, r3, #4
 800340e:	62c3      	str	r3, [r0, #44]	@ 0x2c
  
  /* Error callback */
#if (USE_HAL_ADC_REGISTER_CALLBACKS == 1)
  hadc->ErrorCallback(hadc);
#else
  HAL_ADC_ErrorCallback(hadc);
 8003410:	f7ff fff3 	bl	80033fa <HAL_ADC_ErrorCallback>
#endif /* USE_HAL_ADC_REGISTER_CALLBACKS */
}
 8003414:	bd08      	pop	{r3, pc}
	...

08003418 <HAL_ADC_ConfigChannel>:
  __IO uint32_t wait_loop_index = 0U;
 8003418:	2300      	movs	r3, #0
{ 
 800341a:	b573      	push	{r0, r1, r4, r5, r6, lr}
  __IO uint32_t wait_loop_index = 0U;
 800341c:	9301      	str	r3, [sp, #4]
  __HAL_LOCK(hadc);
 800341e:	f890 3024 	ldrb.w	r3, [r0, #36]	@ 0x24
{ 
 8003422:	4604      	mov	r4, r0
  __HAL_LOCK(hadc);
 8003424:	2b01      	cmp	r3, #1
 8003426:	d06c      	beq.n	8003502 <HAL_ADC_ConfigChannel+0xea>
 8003428:	2301      	movs	r3, #1
 800342a:	f880 3024 	strb.w	r3, [r0, #36]	@ 0x24
  if (sConfig->Rank < 7U)
 800342e:	684d      	ldr	r5, [r1, #4]
    MODIFY_REG(hadc->Instance->SQR3                        ,
 8003430:	6802      	ldr	r2, [r0, #0]
  if (sConfig->Rank < 7U)
 8003432:	2d06      	cmp	r5, #6
    MODIFY_REG(hadc->Instance->SQR3                        ,
 8003434:	6808      	ldr	r0, [r1, #0]
 8003436:	eb05 0385 	add.w	r3, r5, r5, lsl #2
  if (sConfig->Rank < 7U)
 800343a:	d822      	bhi.n	8003482 <HAL_ADC_ConfigChannel+0x6a>
    MODIFY_REG(hadc->Instance->SQR3                        ,
 800343c:	261f      	movs	r6, #31
 800343e:	6b55      	ldr	r5, [r2, #52]	@ 0x34
 8003440:	3b05      	subs	r3, #5
 8003442:	409e      	lsls	r6, r3
 8003444:	ea25 0506 	bic.w	r5, r5, r6
 8003448:	fa00 f303 	lsl.w	r3, r0, r3
 800344c:	432b      	orrs	r3, r5
 800344e:	6353      	str	r3, [r2, #52]	@ 0x34
  if (sConfig->Channel >= ADC_CHANNEL_10)
 8003450:	2809      	cmp	r0, #9
    MODIFY_REG(hadc->Instance->SMPR1                             ,
 8003452:	688b      	ldr	r3, [r1, #8]
 8003454:	eb00 0540 	add.w	r5, r0, r0, lsl #1
 8003458:	f04f 0107 	mov.w	r1, #7
  if (sConfig->Channel >= ADC_CHANNEL_10)
 800345c:	d929      	bls.n	80034b2 <HAL_ADC_ConfigChannel+0x9a>
    MODIFY_REG(hadc->Instance->SMPR1                             ,
 800345e:	68d6      	ldr	r6, [r2, #12]
 8003460:	3d1e      	subs	r5, #30
 8003462:	40a9      	lsls	r1, r5
 8003464:	ea26 0101 	bic.w	r1, r6, r1
 8003468:	40ab      	lsls	r3, r5
 800346a:	430b      	orrs	r3, r1
 800346c:	60d3      	str	r3, [r2, #12]
  if ((sConfig->Channel == ADC_CHANNEL_TEMPSENSOR) ||
 800346e:	f1a0 0310 	sub.w	r3, r0, #16
 8003472:	2b01      	cmp	r3, #1
 8003474:	d925      	bls.n	80034c2 <HAL_ADC_ConfigChannel+0xaa>
  HAL_StatusTypeDef tmp_hal_status = HAL_OK;
 8003476:	2000      	movs	r0, #0
  __HAL_UNLOCK(hadc);
 8003478:	2300      	movs	r3, #0
 800347a:	f884 3024 	strb.w	r3, [r4, #36]	@ 0x24
}
 800347e:	b002      	add	sp, #8
 8003480:	bd70      	pop	{r4, r5, r6, pc}
  else if (sConfig->Rank < 13U)
 8003482:	2d0c      	cmp	r5, #12
 8003484:	f04f 051f 	mov.w	r5, #31
 8003488:	d809      	bhi.n	800349e <HAL_ADC_ConfigChannel+0x86>
    MODIFY_REG(hadc->Instance->SQR2                        ,
 800348a:	6b16      	ldr	r6, [r2, #48]	@ 0x30
 800348c:	3b23      	subs	r3, #35	@ 0x23
 800348e:	409d      	lsls	r5, r3
 8003490:	ea26 0505 	bic.w	r5, r6, r5
 8003494:	fa00 f303 	lsl.w	r3, r0, r3
 8003498:	432b      	orrs	r3, r5
 800349a:	6313      	str	r3, [r2, #48]	@ 0x30
 800349c:	e7d8      	b.n	8003450 <HAL_ADC_ConfigChannel+0x38>
    MODIFY_REG(hadc->Instance->SQR1                        ,
 800349e:	6ad6      	ldr	r6, [r2, #44]	@ 0x2c
 80034a0:	3b41      	subs	r3, #65	@ 0x41
 80034a2:	409d      	lsls	r5, r3
 80034a4:	ea26 0505 	bic.w	r5, r6, r5
 80034a8:	fa00 f303 	lsl.w	r3, r0, r3
 80034ac:	432b      	orrs	r3, r5
 80034ae:	62d3      	str	r3, [r2, #44]	@ 0x2c
 80034b0:	e7ce      	b.n	8003450 <HAL_ADC_ConfigChannel+0x38>
    MODIFY_REG(hadc->Instance->SMPR2                             ,
 80034b2:	6910      	ldr	r0, [r2, #16]
 80034b4:	40a9      	lsls	r1, r5
 80034b6:	ea20 0101 	bic.w	r1, r0, r1
 80034ba:	40ab      	lsls	r3, r5
 80034bc:	430b      	orrs	r3, r1
 80034be:	6113      	str	r3, [r2, #16]
  if ((sConfig->Channel == ADC_CHANNEL_TEMPSENSOR) ||
 80034c0:	e7d9      	b.n	8003476 <HAL_ADC_ConfigChannel+0x5e>
    if (hadc->Instance == ADC1)
 80034c2:	4b11      	ldr	r3, [pc, #68]	@ (8003508 <HAL_ADC_ConfigChannel+0xf0>)
 80034c4:	429a      	cmp	r2, r3
 80034c6:	d116      	bne.n	80034f6 <HAL_ADC_ConfigChannel+0xde>
      if (READ_BIT(hadc->Instance->CR2, ADC_CR2_TSVREFE) == RESET)
 80034c8:	6893      	ldr	r3, [r2, #8]
 80034ca:	021b      	lsls	r3, r3, #8
 80034cc:	d4d3      	bmi.n	8003476 <HAL_ADC_ConfigChannel+0x5e>
        SET_BIT(hadc->Instance->CR2, ADC_CR2_TSVREFE);
 80034ce:	6893      	ldr	r3, [r2, #8]
        if (sConfig->Channel == ADC_CHANNEL_TEMPSENSOR)
 80034d0:	2810      	cmp	r0, #16
        SET_BIT(hadc->Instance->CR2, ADC_CR2_TSVREFE);
 80034d2:	f443 0300 	orr.w	r3, r3, #8388608	@ 0x800000
 80034d6:	6093      	str	r3, [r2, #8]
        if (sConfig->Channel == ADC_CHANNEL_TEMPSENSOR)
 80034d8:	d1cd      	bne.n	8003476 <HAL_ADC_ConfigChannel+0x5e>
          wait_loop_index = (ADC_TEMPSENSOR_DELAY_US * (SystemCoreClock / 1000000U));
 80034da:	4b0c      	ldr	r3, [pc, #48]	@ (800350c <HAL_ADC_ConfigChannel+0xf4>)
 80034dc:	4a0c      	ldr	r2, [pc, #48]	@ (8003510 <HAL_ADC_ConfigChannel+0xf8>)
 80034de:	681b      	ldr	r3, [r3, #0]
 80034e0:	fbb3 f3f2 	udiv	r3, r3, r2
 80034e4:	220a      	movs	r2, #10
 80034e6:	4353      	muls	r3, r2
            wait_loop_index--;
 80034e8:	9301      	str	r3, [sp, #4]
          while(wait_loop_index != 0U)
 80034ea:	9b01      	ldr	r3, [sp, #4]
 80034ec:	2b00      	cmp	r3, #0
 80034ee:	d0c2      	beq.n	8003476 <HAL_ADC_ConfigChannel+0x5e>
            wait_loop_index--;
 80034f0:	9b01      	ldr	r3, [sp, #4]
 80034f2:	3b01      	subs	r3, #1
 80034f4:	e7f8      	b.n	80034e8 <HAL_ADC_ConfigChannel+0xd0>
      SET_BIT(hadc->State, HAL_ADC_STATE_ERROR_CONFIG);
 80034f6:	6aa3      	ldr	r3, [r4, #40]	@ 0x28
      tmp_hal_status = HAL_ERROR;
 80034f8:	2001      	movs	r0, #1
      SET_BIT(hadc->State, HAL_ADC_STATE_ERROR_CONFIG);
 80034fa:	f043 0320 	orr.w	r3, r3, #32
 80034fe:	62a3      	str	r3, [r4, #40]	@ 0x28
      tmp_hal_status = HAL_ERROR;
 8003500:	e7ba      	b.n	8003478 <HAL_ADC_ConfigChannel+0x60>
  __HAL_LOCK(hadc);
 8003502:	2002      	movs	r0, #2
 8003504:	e7bb      	b.n	800347e <HAL_ADC_ConfigChannel+0x66>
 8003506:	bf00      	nop
 8003508:	40012400 	.word	0x40012400
 800350c:	2000006c 	.word	0x2000006c
 8003510:	000f4240 	.word	0x000f4240

08003514 <ADC_Enable>:
  __IO uint32_t wait_loop_index = 0U;
 8003514:	2300      	movs	r3, #0
{
 8003516:	b537      	push	{r0, r1, r2, r4, r5, lr}
  __IO uint32_t wait_loop_index = 0U;
 8003518:	9301      	str	r3, [sp, #4]
  if (ADC_IS_ENABLE(hadc) == RESET)
 800351a:	6803      	ldr	r3, [r0, #0]
{
 800351c:	4604      	mov	r4, r0
  if (ADC_IS_ENABLE(hadc) == RESET)
 800351e:	689a      	ldr	r2, [r3, #8]
 8003520:	07d2      	lsls	r2, r2, #31
 8003522:	d502      	bpl.n	800352a <ADC_Enable+0x16>
  return HAL_OK;
 8003524:	2000      	movs	r0, #0
}
 8003526:	b003      	add	sp, #12
 8003528:	bd30      	pop	{r4, r5, pc}
    __HAL_ADC_ENABLE(hadc);
 800352a:	689a      	ldr	r2, [r3, #8]
 800352c:	f042 0201 	orr.w	r2, r2, #1
 8003530:	609a      	str	r2, [r3, #8]
    wait_loop_index = (ADC_STAB_DELAY_US * (SystemCoreClock / 1000000U));
 8003532:	4b14      	ldr	r3, [pc, #80]	@ (8003584 <ADC_Enable+0x70>)
 8003534:	4a14      	ldr	r2, [pc, #80]	@ (8003588 <ADC_Enable+0x74>)
 8003536:	681b      	ldr	r3, [r3, #0]
 8003538:	fbb3 f3f2 	udiv	r3, r3, r2
      wait_loop_index--;
 800353c:	9301      	str	r3, [sp, #4]
    while(wait_loop_index != 0U)
 800353e:	9b01      	ldr	r3, [sp, #4]
 8003540:	b9e3      	cbnz	r3, 800357c <ADC_Enable+0x68>
    tickstart = HAL_GetTick();
 8003542:	f7ff fea3 	bl	800328c <HAL_GetTick>
 8003546:	4605      	mov	r5, r0
    while(ADC_IS_ENABLE(hadc) == RESET)
 8003548:	6823      	ldr	r3, [r4, #0]
 800354a:	689b      	ldr	r3, [r3, #8]
 800354c:	07db      	lsls	r3, r3, #31
 800354e:	d4e9      	bmi.n	8003524 <ADC_Enable+0x10>
      if((HAL_GetTick() - tickstart) > ADC_ENABLE_TIMEOUT)
 8003550:	f7ff fe9c 	bl	800328c <HAL_GetTick>
 8003554:	1b40      	subs	r0, r0, r5
 8003556:	2802      	cmp	r0, #2
 8003558:	d9f6      	bls.n	8003548 <ADC_Enable+0x34>
        if(ADC_IS_ENABLE(hadc) == RESET)
 800355a:	6823      	ldr	r3, [r4, #0]
 800355c:	689b      	ldr	r3, [r3, #8]
 800355e:	f013 0301 	ands.w	r3, r3, #1
 8003562:	d1f1      	bne.n	8003548 <ADC_Enable+0x34>
          SET_BIT(hadc->State, HAL_ADC_STATE_ERROR_INTERNAL);
 8003564:	6aa2      	ldr	r2, [r4, #40]	@ 0x28
          return HAL_ERROR;
 8003566:	2001      	movs	r0, #1
          SET_BIT(hadc->State, HAL_ADC_STATE_ERROR_INTERNAL);
 8003568:	f042 0210 	orr.w	r2, r2, #16
 800356c:	62a2      	str	r2, [r4, #40]	@ 0x28
          SET_BIT(hadc->ErrorCode, HAL_ADC_ERROR_INTERNAL);
 800356e:	6ae2      	ldr	r2, [r4, #44]	@ 0x2c
          __HAL_UNLOCK(hadc);
 8003570:	f884 3024 	strb.w	r3, [r4, #36]	@ 0x24
          SET_BIT(hadc->ErrorCode, HAL_ADC_ERROR_INTERNAL);
 8003574:	f042 0201 	orr.w	r2, r2, #1
 8003578:	62e2      	str	r2, [r4, #44]	@ 0x2c
          return HAL_ERROR;
 800357a:	e7d4      	b.n	8003526 <ADC_Enable+0x12>
      wait_loop_index--;
 800357c:	9b01      	ldr	r3, [sp, #4]
 800357e:	3b01      	subs	r3, #1
 8003580:	e7dc      	b.n	800353c <ADC_Enable+0x28>
 8003582:	bf00      	nop
 8003584:	2000006c 	.word	0x2000006c
 8003588:	000f4240 	.word	0x000f4240

0800358c <HAL_ADC_Start_DMA>:
{
 800358c:	e92d 41f0 	stmdb	sp!, {r4, r5, r6, r7, r8, lr}
  if(ADC_MULTIMODE_IS_ENABLE(hadc) == RESET)
 8003590:	4b3f      	ldr	r3, [pc, #252]	@ (8003690 <HAL_ADC_Start_DMA+0x104>)
{
 8003592:	4690      	mov	r8, r2
  if(ADC_MULTIMODE_IS_ENABLE(hadc) == RESET)
 8003594:	6802      	ldr	r2, [r0, #0]
{
 8003596:	4604      	mov	r4, r0
  if(ADC_MULTIMODE_IS_ENABLE(hadc) == RESET)
 8003598:	429a      	cmp	r2, r3
{
 800359a:	460f      	mov	r7, r1
  if(ADC_MULTIMODE_IS_ENABLE(hadc) == RESET)
 800359c:	d002      	beq.n	80035a4 <HAL_ADC_Start_DMA+0x18>
 800359e:	493d      	ldr	r1, [pc, #244]	@ (8003694 <HAL_ADC_Start_DMA+0x108>)
 80035a0:	428a      	cmp	r2, r1
 80035a2:	d103      	bne.n	80035ac <HAL_ADC_Start_DMA+0x20>
 80035a4:	685b      	ldr	r3, [r3, #4]
 80035a6:	f413 2f70 	tst.w	r3, #983040	@ 0xf0000
 80035aa:	d16d      	bne.n	8003688 <HAL_ADC_Start_DMA+0xfc>
    __HAL_LOCK(hadc);
 80035ac:	f894 3024 	ldrb.w	r3, [r4, #36]	@ 0x24
 80035b0:	2b01      	cmp	r3, #1
 80035b2:	d06b      	beq.n	800368c <HAL_ADC_Start_DMA+0x100>
 80035b4:	2301      	movs	r3, #1
    tmp_hal_status = ADC_Enable(hadc);
 80035b6:	4620      	mov	r0, r4
    __HAL_LOCK(hadc);
 80035b8:	f884 3024 	strb.w	r3, [r4, #36]	@ 0x24
    tmp_hal_status = ADC_Enable(hadc);
 80035bc:	f7ff ffaa 	bl	8003514 <ADC_Enable>
    if (tmp_hal_status == HAL_OK)
 80035c0:	4606      	mov	r6, r0
 80035c2:	2800      	cmp	r0, #0
 80035c4:	d15d      	bne.n	8003682 <HAL_ADC_Start_DMA+0xf6>
      ADC_STATE_CLR_SET(hadc->State,
 80035c6:	6aa5      	ldr	r5, [r4, #40]	@ 0x28
    if (ADC_NONMULTIMODE_OR_MULTIMODEMASTER(hadc))
 80035c8:	6821      	ldr	r1, [r4, #0]
 80035ca:	4b32      	ldr	r3, [pc, #200]	@ (8003694 <HAL_ADC_Start_DMA+0x108>)
      ADC_STATE_CLR_SET(hadc->State,
 80035cc:	f425 6570 	bic.w	r5, r5, #3840	@ 0xf00
 80035d0:	f025 0501 	bic.w	r5, r5, #1
 80035d4:	f445 7580 	orr.w	r5, r5, #256	@ 0x100
    if (ADC_NONMULTIMODE_OR_MULTIMODEMASTER(hadc))
 80035d8:	4299      	cmp	r1, r3
      ADC_STATE_CLR_SET(hadc->State,
 80035da:	62a5      	str	r5, [r4, #40]	@ 0x28
    if (ADC_NONMULTIMODE_OR_MULTIMODEMASTER(hadc))
 80035dc:	d104      	bne.n	80035e8 <HAL_ADC_Start_DMA+0x5c>
 80035de:	4a2c      	ldr	r2, [pc, #176]	@ (8003690 <HAL_ADC_Start_DMA+0x104>)
 80035e0:	6853      	ldr	r3, [r2, #4]
 80035e2:	f413 2f70 	tst.w	r3, #983040	@ 0xf0000
 80035e6:	d13e      	bne.n	8003666 <HAL_ADC_Start_DMA+0xda>
      CLEAR_BIT(hadc->State, HAL_ADC_STATE_MULTIMODE_SLAVE);
 80035e8:	6aa3      	ldr	r3, [r4, #40]	@ 0x28
 80035ea:	f423 1380 	bic.w	r3, r3, #1048576	@ 0x100000
 80035ee:	62a3      	str	r3, [r4, #40]	@ 0x28
      if (READ_BIT(hadc->Instance->CR1, ADC_CR1_JAUTO) != RESET)
 80035f0:	684b      	ldr	r3, [r1, #4]
 80035f2:	055a      	lsls	r2, r3, #21
 80035f4:	d505      	bpl.n	8003602 <HAL_ADC_Start_DMA+0x76>
        ADC_STATE_CLR_SET(hadc->State, HAL_ADC_STATE_INJ_EOC, HAL_ADC_STATE_INJ_BUSY);  
 80035f6:	6aa3      	ldr	r3, [r4, #40]	@ 0x28
 80035f8:	f423 5340 	bic.w	r3, r3, #12288	@ 0x3000
 80035fc:	f443 5380 	orr.w	r3, r3, #4096	@ 0x1000
 8003600:	62a3      	str	r3, [r4, #40]	@ 0x28
      if (HAL_IS_BIT_SET(hadc->State, HAL_ADC_STATE_INJ_BUSY))
 8003602:	6aa3      	ldr	r3, [r4, #40]	@ 0x28
      hadc->DMA_Handle->XferCpltCallback = ADC_DMAConvCplt;
 8003604:	6a20      	ldr	r0, [r4, #32]
      if (HAL_IS_BIT_SET(hadc->State, HAL_ADC_STATE_INJ_BUSY))
 8003606:	f413 5380 	ands.w	r3, r3, #4096	@ 0x1000
        CLEAR_BIT(hadc->ErrorCode, (HAL_ADC_ERROR_OVR | HAL_ADC_ERROR_DMA));         
 800360a:	bf18      	it	ne
 800360c:	6ae3      	ldrne	r3, [r4, #44]	@ 0x2c
      HAL_DMA_Start_IT(hadc->DMA_Handle, (uint32_t)&hadc->Instance->DR, (uint32_t)pData, Length);
 800360e:	463a      	mov	r2, r7
        CLEAR_BIT(hadc->ErrorCode, (HAL_ADC_ERROR_OVR | HAL_ADC_ERROR_DMA));         
 8003610:	bf18      	it	ne
 8003612:	f023 0306 	bicne.w	r3, r3, #6
        ADC_CLEAR_ERRORCODE(hadc);
 8003616:	62e3      	str	r3, [r4, #44]	@ 0x2c
      __HAL_UNLOCK(hadc);
 8003618:	2300      	movs	r3, #0
 800361a:	f884 3024 	strb.w	r3, [r4, #36]	@ 0x24
      hadc->DMA_Handle->XferCpltCallback = ADC_DMAConvCplt;
 800361e:	4b1e      	ldr	r3, [pc, #120]	@ (8003698 <HAL_ADC_Start_DMA+0x10c>)
      HAL_DMA_Start_IT(hadc->DMA_Handle, (uint32_t)&hadc->Instance->DR, (uint32_t)pData, Length);
 8003620:	314c      	adds	r1, #76	@ 0x4c
      hadc->DMA_Handle->XferCpltCallback = ADC_DMAConvCplt;
 8003622:	6283      	str	r3, [r0, #40]	@ 0x28
      hadc->DMA_Handle->XferHalfCpltCallback = ADC_DMAHalfConvCplt;
 8003624:	4b1d      	ldr	r3, [pc, #116]	@ (800369c <HAL_ADC_Start_DMA+0x110>)
 8003626:	62c3      	str	r3, [r0, #44]	@ 0x2c
      hadc->DMA_Handle->XferErrorCallback = ADC_DMAError;
 8003628:	4b1d      	ldr	r3, [pc, #116]	@ (80036a0 <HAL_ADC_Start_DMA+0x114>)
 800362a:	6303      	str	r3, [r0, #48]	@ 0x30
      __HAL_ADC_CLEAR_FLAG(hadc, ADC_FLAG_EOC);
 800362c:	f06f 0302 	mvn.w	r3, #2
 8003630:	f841 3c4c 	str.w	r3, [r1, #-76]
      SET_BIT(hadc->Instance->CR2, ADC_CR2_DMA);
 8003634:	f851 3c44 	ldr.w	r3, [r1, #-68]
 8003638:	f443 7380 	orr.w	r3, r3, #256	@ 0x100
 800363c:	f841 3c44 	str.w	r3, [r1, #-68]
      HAL_DMA_Start_IT(hadc->DMA_Handle, (uint32_t)&hadc->Instance->DR, (uint32_t)pData, Length);
 8003640:	4643      	mov	r3, r8
 8003642:	f000 f969 	bl	8003918 <HAL_DMA_Start_IT>
      if (ADC_IS_SOFTWARE_START_REGULAR(hadc))
 8003646:	6823      	ldr	r3, [r4, #0]
 8003648:	689a      	ldr	r2, [r3, #8]
 800364a:	f402 2260 	and.w	r2, r2, #917504	@ 0xe0000
 800364e:	f5b2 2f60 	cmp.w	r2, #917504	@ 0xe0000
        SET_BIT(hadc->Instance->CR2, (ADC_CR2_SWSTART | ADC_CR2_EXTTRIG));
 8003652:	689a      	ldr	r2, [r3, #8]
 8003654:	bf0c      	ite	eq
 8003656:	f442 02a0 	orreq.w	r2, r2, #5242880	@ 0x500000
        SET_BIT(hadc->Instance->CR2, ADC_CR2_EXTTRIG);
 800365a:	f442 1280 	orrne.w	r2, r2, #1048576	@ 0x100000
 800365e:	609a      	str	r2, [r3, #8]
}
 8003660:	4630      	mov	r0, r6
 8003662:	e8bd 81f0 	ldmia.w	sp!, {r4, r5, r6, r7, r8, pc}
      SET_BIT(hadc->State, HAL_ADC_STATE_MULTIMODE_SLAVE);
 8003666:	6aa3      	ldr	r3, [r4, #40]	@ 0x28
 8003668:	f443 1380 	orr.w	r3, r3, #1048576	@ 0x100000
 800366c:	62a3      	str	r3, [r4, #40]	@ 0x28
      if (ADC_MULTIMODE_AUTO_INJECTED(hadc))
 800366e:	6853      	ldr	r3, [r2, #4]
 8003670:	055b      	lsls	r3, r3, #21
        ADC_STATE_CLR_SET(hadc->State, HAL_ADC_STATE_INJ_EOC, HAL_ADC_STATE_INJ_BUSY);
 8003672:	bf41      	itttt	mi
 8003674:	6aa0      	ldrmi	r0, [r4, #40]	@ 0x28
 8003676:	f420 5040 	bicmi.w	r0, r0, #12288	@ 0x3000
 800367a:	f440 5080 	orrmi.w	r0, r0, #4096	@ 0x1000
 800367e:	62a0      	strmi	r0, [r4, #40]	@ 0x28
 8003680:	e7bf      	b.n	8003602 <HAL_ADC_Start_DMA+0x76>
      __HAL_UNLOCK(hadc);
 8003682:	2300      	movs	r3, #0
 8003684:	f884 3024 	strb.w	r3, [r4, #36]	@ 0x24
    tmp_hal_status = HAL_ERROR;
 8003688:	2601      	movs	r6, #1
 800368a:	e7e9      	b.n	8003660 <HAL_ADC_Start_DMA+0xd4>
    __HAL_LOCK(hadc);
 800368c:	2602      	movs	r6, #2
 800368e:	e7e7      	b.n	8003660 <HAL_ADC_Start_DMA+0xd4>
 8003690:	40012400 	.word	0x40012400
 8003694:	40012800 	.word	0x40012800
 8003698:	080032bd 	.word	0x080032bd
 800369c:	0800330d 	.word	0x0800330d
 80036a0:	080033fd 	.word	0x080033fd

080036a4 <ADC_ConversionStop_Disable>:
{
 80036a4:	b538      	push	{r3, r4, r5, lr}
  if (ADC_IS_ENABLE(hadc) != RESET)
 80036a6:	6803      	ldr	r3, [r0, #0]
{
 80036a8:	4604      	mov	r4, r0
  if (ADC_IS_ENABLE(hadc) != RESET)
 80036aa:	689a      	ldr	r2, [r3, #8]
 80036ac:	07d1      	lsls	r1, r2, #31
 80036ae:	d401      	bmi.n	80036b4 <ADC_ConversionStop_Disable+0x10>
  return HAL_OK;
 80036b0:	2000      	movs	r0, #0
}
 80036b2:	bd38      	pop	{r3, r4, r5, pc}
    __HAL_ADC_DISABLE(hadc);
 80036b4:	689a      	ldr	r2, [r3, #8]
 80036b6:	f022 0201 	bic.w	r2, r2, #1
 80036ba:	609a      	str	r2, [r3, #8]
    tickstart = HAL_GetTick();
 80036bc:	f7ff fde6 	bl	800328c <HAL_GetTick>
 80036c0:	4605      	mov	r5, r0
    while(ADC_IS_ENABLE(hadc) != RESET)
 80036c2:	6823      	ldr	r3, [r4, #0]
 80036c4:	689b      	ldr	r3, [r3, #8]
 80036c6:	07db      	lsls	r3, r3, #31
 80036c8:	d5f2      	bpl.n	80036b0 <ADC_ConversionStop_Disable+0xc>
      if((HAL_GetTick() - tickstart) > ADC_DISABLE_TIMEOUT)
 80036ca:	f7ff fddf 	bl	800328c <HAL_GetTick>
 80036ce:	1b40      	subs	r0, r0, r5
 80036d0:	2802      	cmp	r0, #2
 80036d2:	d9f6      	bls.n	80036c2 <ADC_ConversionStop_Disable+0x1e>
        if(ADC_IS_ENABLE(hadc) != RESET)
 80036d4:	6823      	ldr	r3, [r4, #0]
 80036d6:	689b      	ldr	r3, [r3, #8]
 80036d8:	07da      	lsls	r2, r3, #31
 80036da:	d5f2      	bpl.n	80036c2 <ADC_ConversionStop_Disable+0x1e>
          SET_BIT(hadc->State, HAL_ADC_STATE_ERROR_INTERNAL);
 80036dc:	6aa3      	ldr	r3, [r4, #40]	@ 0x28
          return HAL_ERROR;
 80036de:	2001      	movs	r0, #1
          SET_BIT(hadc->State, HAL_ADC_STATE_ERROR_INTERNAL);
 80036e0:	f043 0310 	orr.w	r3, r3, #16
 80036e4:	62a3      	str	r3, [r4, #40]	@ 0x28
          SET_BIT(hadc->ErrorCode, HAL_ADC_ERROR_INTERNAL);
 80036e6:	6ae3      	ldr	r3, [r4, #44]	@ 0x2c
 80036e8:	f043 0301 	orr.w	r3, r3, #1
 80036ec:	62e3      	str	r3, [r4, #44]	@ 0x2c
          return HAL_ERROR;
 80036ee:	e7e0      	b.n	80036b2 <ADC_ConversionStop_Disable+0xe>

080036f0 <HAL_ADC_Init>:
{
 80036f0:	b5f8      	push	{r3, r4, r5, r6, r7, lr}
  if(hadc == NULL)
 80036f2:	4604      	mov	r4, r0
 80036f4:	2800      	cmp	r0, #0
 80036f6:	d06d      	beq.n	80037d4 <HAL_ADC_Init+0xe4>
  if (hadc->State == HAL_ADC_STATE_RESET)
 80036f8:	6a83      	ldr	r3, [r0, #40]	@ 0x28
 80036fa:	b923      	cbnz	r3, 8003706 <HAL_ADC_Init+0x16>
    ADC_CLEAR_ERRORCODE(hadc);
 80036fc:	62c3      	str	r3, [r0, #44]	@ 0x2c
    hadc->Lock = HAL_UNLOCKED;
 80036fe:	f880 3024 	strb.w	r3, [r0, #36]	@ 0x24
    HAL_ADC_MspInit(hadc);
 8003702:	f7ff fa33 	bl	8002b6c <HAL_ADC_MspInit>
  tmp_hal_status = ADC_ConversionStop_Disable(hadc);
 8003706:	4620      	mov	r0, r4
 8003708:	f7ff ffcc 	bl	80036a4 <ADC_ConversionStop_Disable>
  if (HAL_IS_BIT_CLR(hadc->State, HAL_ADC_STATE_ERROR_INTERNAL) &&
 800370c:	6aa3      	ldr	r3, [r4, #40]	@ 0x28
 800370e:	f013 0310 	ands.w	r3, r3, #16
 8003712:	d161      	bne.n	80037d8 <HAL_ADC_Init+0xe8>
 8003714:	2800      	cmp	r0, #0
 8003716:	d15f      	bne.n	80037d8 <HAL_ADC_Init+0xe8>
    ADC_STATE_CLR_SET(hadc->State,
 8003718:	6aa2      	ldr	r2, [r4, #40]	@ 0x28
    tmp_cr2 |= (hadc->Init.DataAlign                                          |
 800371a:	6861      	ldr	r1, [r4, #4]
    ADC_STATE_CLR_SET(hadc->State,
 800371c:	f422 5288 	bic.w	r2, r2, #4352	@ 0x1100
 8003720:	f022 0202 	bic.w	r2, r2, #2
 8003724:	f042 0202 	orr.w	r2, r2, #2
    tmp_cr2 |= (hadc->Init.DataAlign                                          |
 8003728:	69e5      	ldr	r5, [r4, #28]
    tmp_cr1 |= (ADC_CR1_SCAN_SET(hadc->Init.ScanConvMode));
 800372a:	68a6      	ldr	r6, [r4, #8]
    ADC_STATE_CLR_SET(hadc->State,
 800372c:	62a2      	str	r2, [r4, #40]	@ 0x28
                ADC_CR2_CONTINUOUS((uint32_t)hadc->Init.ContinuousConvMode)   );
 800372e:	7b22      	ldrb	r2, [r4, #12]
    tmp_cr2 |= (hadc->Init.DataAlign                                          |
 8003730:	4329      	orrs	r1, r5
    tmp_cr1 |= (ADC_CR1_SCAN_SET(hadc->Init.ScanConvMode));
 8003732:	f5b6 7f80 	cmp.w	r6, #256	@ 0x100
                ADC_CFGR_EXTSEL(hadc, hadc->Init.ExternalTrigConv)            |
 8003736:	ea41 0142 	orr.w	r1, r1, r2, lsl #1
    tmp_cr1 |= (ADC_CR1_SCAN_SET(hadc->Init.ScanConvMode));
 800373a:	d036      	beq.n	80037aa <HAL_ADC_Init+0xba>
 800373c:	1e77      	subs	r7, r6, #1
 800373e:	427d      	negs	r5, r7
 8003740:	417d      	adcs	r5, r7
 8003742:	022d      	lsls	r5, r5, #8
    if (hadc->Init.DiscontinuousConvMode == ENABLE)
 8003744:	7d27      	ldrb	r7, [r4, #20]
 8003746:	2f01      	cmp	r7, #1
 8003748:	d106      	bne.n	8003758 <HAL_ADC_Init+0x68>
      if (hadc->Init.ContinuousConvMode == DISABLE)
 800374a:	bb82      	cbnz	r2, 80037ae <HAL_ADC_Init+0xbe>
        SET_BIT(tmp_cr1, ADC_CR1_DISCEN                                            |
 800374c:	69a2      	ldr	r2, [r4, #24]
 800374e:	3a01      	subs	r2, #1
 8003750:	ea45 3242 	orr.w	r2, r5, r2, lsl #13
 8003754:	f442 6500 	orr.w	r5, r2, #2048	@ 0x800
      MODIFY_REG(hadc->Instance->CR1,
 8003758:	6822      	ldr	r2, [r4, #0]
    if (ADC_CR1_SCAN_SET(hadc->Init.ScanConvMode) == ADC_SCAN_ENABLE)
 800375a:	f5b6 7f80 	cmp.w	r6, #256	@ 0x100
      MODIFY_REG(hadc->Instance->CR1,
 800375e:	6857      	ldr	r7, [r2, #4]
 8003760:	f427 4769 	bic.w	r7, r7, #59648	@ 0xe900
 8003764:	ea45 0507 	orr.w	r5, r5, r7
 8003768:	6055      	str	r5, [r2, #4]
      MODIFY_REG(hadc->Instance->CR2,
 800376a:	6897      	ldr	r7, [r2, #8]
 800376c:	4d1d      	ldr	r5, [pc, #116]	@ (80037e4 <HAL_ADC_Init+0xf4>)
 800376e:	ea05 0507 	and.w	r5, r5, r7
 8003772:	ea45 0501 	orr.w	r5, r5, r1
 8003776:	6095      	str	r5, [r2, #8]
    if (ADC_CR1_SCAN_SET(hadc->Init.ScanConvMode) == ADC_SCAN_ENABLE)
 8003778:	d001      	beq.n	800377e <HAL_ADC_Init+0x8e>
 800377a:	2e01      	cmp	r6, #1
 800377c:	d102      	bne.n	8003784 <HAL_ADC_Init+0x94>
      tmp_sqr1 = ADC_SQR1_L_SHIFT(hadc->Init.NbrOfConversion);
 800377e:	6923      	ldr	r3, [r4, #16]
 8003780:	3b01      	subs	r3, #1
 8003782:	051b      	lsls	r3, r3, #20
    MODIFY_REG(hadc->Instance->SQR1,
 8003784:	6ad5      	ldr	r5, [r2, #44]	@ 0x2c
 8003786:	f425 0570 	bic.w	r5, r5, #15728640	@ 0xf00000
 800378a:	432b      	orrs	r3, r5
 800378c:	62d3      	str	r3, [r2, #44]	@ 0x2c
    if (READ_BIT(hadc->Instance->CR2, ~(ADC_CR2_ADON | ADC_CR2_DMA |
 800378e:	6892      	ldr	r2, [r2, #8]
 8003790:	4b15      	ldr	r3, [pc, #84]	@ (80037e8 <HAL_ADC_Init+0xf8>)
 8003792:	4013      	ands	r3, r2
 8003794:	4299      	cmp	r1, r3
 8003796:	d113      	bne.n	80037c0 <HAL_ADC_Init+0xd0>
      ADC_CLEAR_ERRORCODE(hadc);
 8003798:	2300      	movs	r3, #0
 800379a:	62e3      	str	r3, [r4, #44]	@ 0x2c
      ADC_STATE_CLR_SET(hadc->State,
 800379c:	6aa3      	ldr	r3, [r4, #40]	@ 0x28
 800379e:	f023 0303 	bic.w	r3, r3, #3
 80037a2:	f043 0301 	orr.w	r3, r3, #1
 80037a6:	62a3      	str	r3, [r4, #40]	@ 0x28
}
 80037a8:	bdf8      	pop	{r3, r4, r5, r6, r7, pc}
    tmp_cr1 |= (ADC_CR1_SCAN_SET(hadc->Init.ScanConvMode));
 80037aa:	4635      	mov	r5, r6
 80037ac:	e7ca      	b.n	8003744 <HAL_ADC_Init+0x54>
        SET_BIT(hadc->State, HAL_ADC_STATE_ERROR_CONFIG);
 80037ae:	6aa2      	ldr	r2, [r4, #40]	@ 0x28
 80037b0:	f042 0220 	orr.w	r2, r2, #32
 80037b4:	62a2      	str	r2, [r4, #40]	@ 0x28
        SET_BIT(hadc->ErrorCode, HAL_ADC_ERROR_INTERNAL);
 80037b6:	6ae2      	ldr	r2, [r4, #44]	@ 0x2c
 80037b8:	f042 0201 	orr.w	r2, r2, #1
 80037bc:	62e2      	str	r2, [r4, #44]	@ 0x2c
 80037be:	e7cb      	b.n	8003758 <HAL_ADC_Init+0x68>
      ADC_STATE_CLR_SET(hadc->State,
 80037c0:	6aa3      	ldr	r3, [r4, #40]	@ 0x28
 80037c2:	f023 0312 	bic.w	r3, r3, #18
 80037c6:	f043 0310 	orr.w	r3, r3, #16
 80037ca:	62a3      	str	r3, [r4, #40]	@ 0x28
      SET_BIT(hadc->ErrorCode, HAL_ADC_ERROR_INTERNAL);
 80037cc:	6ae3      	ldr	r3, [r4, #44]	@ 0x2c
 80037ce:	f043 0301 	orr.w	r3, r3, #1
 80037d2:	62e3      	str	r3, [r4, #44]	@ 0x2c
    return HAL_ERROR;
 80037d4:	2001      	movs	r0, #1
 80037d6:	e7e7      	b.n	80037a8 <HAL_ADC_Init+0xb8>
    SET_BIT(hadc->State, HAL_ADC_STATE_ERROR_INTERNAL);
 80037d8:	6aa3      	ldr	r3, [r4, #40]	@ 0x28
 80037da:	f043 0310 	orr.w	r3, r3, #16
 80037de:	62a3      	str	r3, [r4, #40]	@ 0x28
    tmp_hal_status = HAL_ERROR;
 80037e0:	e7f8      	b.n	80037d4 <HAL_ADC_Init+0xe4>
 80037e2:	bf00      	nop
 80037e4:	ffe1f7fd 	.word	0xffe1f7fd
 80037e8:	ff1f0efe 	.word	0xff1f0efe

080037ec <HAL_ADCEx_InjectedConvCpltCallback>:
  /* Prevent unused argument(s) compilation warning */
  UNUSED(hadc);
  /* NOTE : This function Should not be modified, when the callback is needed,
            the HAL_ADCEx_InjectedConvCpltCallback could be implemented in the user file
  */
}
 80037ec:	4770      	bx	lr
	...

080037f0 <HAL_NVIC_SetPriorityGrouping>:
__STATIC_INLINE void __NVIC_SetPriorityGrouping(uint32_t PriorityGroup)
{
  uint32_t reg_value;
  uint32_t PriorityGroupTmp = (PriorityGroup & (uint32_t)0x07UL);             /* only values 0..7 are used          */

  reg_value  =  SCB->AIRCR;                                                   /* read old register configuration    */
 80037f0:	4907      	ldr	r1, [pc, #28]	@ (8003810 <HAL_NVIC_SetPriorityGrouping+0x20>)
  reg_value &= ~((uint32_t)(SCB_AIRCR_VECTKEY_Msk | SCB_AIRCR_PRIGROUP_Msk)); /* clear bits to change               */
  reg_value  =  (reg_value                                   |
                ((uint32_t)0x5FAUL << SCB_AIRCR_VECTKEY_Pos) |
                (PriorityGroupTmp << SCB_AIRCR_PRIGROUP_Pos) );               /* Insert write key and priority group */
 80037f2:	0203      	lsls	r3, r0, #8
  reg_value  =  SCB->AIRCR;                                                   /* read old register configuration    */
 80037f4:	68ca      	ldr	r2, [r1, #12]
                (PriorityGroupTmp << SCB_AIRCR_PRIGROUP_Pos) );               /* Insert write key and priority group */
 80037f6:	f403 63e0 	and.w	r3, r3, #1792	@ 0x700
  reg_value &= ~((uint32_t)(SCB_AIRCR_VECTKEY_Msk | SCB_AIRCR_PRIGROUP_Msk)); /* clear bits to change               */
 80037fa:	f422 62e0 	bic.w	r2, r2, #1792	@ 0x700
 80037fe:	0412      	lsls	r2, r2, #16
 8003800:	0c12      	lsrs	r2, r2, #16
                ((uint32_t)0x5FAUL << SCB_AIRCR_VECTKEY_Pos) |
 8003802:	4313      	orrs	r3, r2
  reg_value  =  (reg_value                                   |
 8003804:	f043 63bf 	orr.w	r3, r3, #100139008	@ 0x5f80000
 8003808:	f443 3300 	orr.w	r3, r3, #131072	@ 0x20000
  SCB->AIRCR =  reg_value;
 800380c:	60cb      	str	r3, [r1, #12]
  /* Check the parameters */
  assert_param(IS_NVIC_PRIORITY_GROUP(PriorityGroup));
  
  /* Set the PRIGROUP[10:8] bits according to the PriorityGroup parameter value */
  NVIC_SetPriorityGrouping(PriorityGroup);
}
 800380e:	4770      	bx	lr
 8003810:	e000ed00 	.word	0xe000ed00

08003814 <HAL_NVIC_SetPriority>:
  \details Reads the priority grouping field from the NVIC Interrupt Controller.
  \return                Priority grouping field (SCB->AIRCR [10:8] PRIGROUP field).
 */
__STATIC_INLINE uint32_t __NVIC_GetPriorityGrouping(void)
{
  return ((uint32_t)((SCB->AIRCR & SCB_AIRCR_PRIGROUP_Msk) >> SCB_AIRCR_PRIGROUP_Pos));
 8003814:	4b15      	ldr	r3, [pc, #84]	@ (800386c <HAL_NVIC_SetPriority+0x58>)
  *         This parameter can be a value between 0 and 15
  *         A lower priority value indicates a higher priority.          
  * @retval None
  */
void HAL_NVIC_SetPriority(IRQn_Type IRQn, uint32_t PreemptPriority, uint32_t SubPriority)
{ 
 8003816:	b530      	push	{r4, r5, lr}
 8003818:	68dc      	ldr	r4, [r3, #12]
 800381a:	f3c4 2402 	ubfx	r4, r4, #8, #3
{
  uint32_t PriorityGroupTmp = (PriorityGroup & (uint32_t)0x07UL);   /* only values 0..7 are used          */
  uint32_t PreemptPriorityBits;
  uint32_t SubPriorityBits;

  PreemptPriorityBits = ((7UL - PriorityGroupTmp) > (uint32_t)(__NVIC_PRIO_BITS)) ? (uint32_t)(__NVIC_PRIO_BITS) : (uint32_t)(7UL - PriorityGroupTmp);
 800381e:	f1c4 0307 	rsb	r3, r4, #7
  SubPriorityBits     = ((PriorityGroupTmp + (uint32_t)(__NVIC_PRIO_BITS)) < (uint32_t)7UL) ? (uint32_t)0UL : (uint32_t)((PriorityGroupTmp - 7UL) + (uint32_t)(__NVIC_PRIO_BITS));
 8003822:	1d25      	adds	r5, r4, #4
  PreemptPriorityBits = ((7UL - PriorityGroupTmp) > (uint32_t)(__NVIC_PRIO_BITS)) ? (uint32_t)(__NVIC_PRIO_BITS) : (uint32_t)(7UL - PriorityGroupTmp);
 8003824:	2b04      	cmp	r3, #4
 8003826:	bf28      	it	cs
 8003828:	2304      	movcs	r3, #4
  SubPriorityBits     = ((PriorityGroupTmp + (uint32_t)(__NVIC_PRIO_BITS)) < (uint32_t)7UL) ? (uint32_t)0UL : (uint32_t)((PriorityGroupTmp - 7UL) + (uint32_t)(__NVIC_PRIO_BITS));
 800382a:	2d06      	cmp	r5, #6

  return (
           ((PreemptPriority & (uint32_t)((1UL << (PreemptPriorityBits)) - 1UL)) << SubPriorityBits) |
 800382c:	f04f 35ff 	mov.w	r5, #4294967295
  SubPriorityBits     = ((PriorityGroupTmp + (uint32_t)(__NVIC_PRIO_BITS)) < (uint32_t)7UL) ? (uint32_t)0UL : (uint32_t)((PriorityGroupTmp - 7UL) + (uint32_t)(__NVIC_PRIO_BITS));
 8003830:	bf94      	ite	ls
 8003832:	2400      	movls	r4, #0
 8003834:	3c03      	subhi	r4, #3
           ((PreemptPriority & (uint32_t)((1UL << (PreemptPriorityBits)) - 1UL)) << SubPriorityBits) |
 8003836:	fa05 f303 	lsl.w	r3, r5, r3
 800383a:	ea21 0303 	bic.w	r3, r1, r3
           ((SubPriority     & (uint32_t)((1UL << (SubPriorityBits    )) - 1UL)))
 800383e:	40a5      	lsls	r5, r4
 8003840:	ea22 0205 	bic.w	r2, r2, r5
           ((PreemptPriority & (uint32_t)((1UL << (PreemptPriorityBits)) - 1UL)) << SubPriorityBits) |
 8003844:	40a3      	lsls	r3, r4
  if ((int32_t)(IRQn) >= 0)
 8003846:	2800      	cmp	r0, #0
           ((PreemptPriority & (uint32_t)((1UL << (PreemptPriorityBits)) - 1UL)) << SubPriorityBits) |
 8003848:	ea43 0302 	orr.w	r3, r3, r2
    NVIC->IP[((uint32_t)IRQn)]               = (uint8_t)((priority << (8U - __NVIC_PRIO_BITS)) & (uint32_t)0xFFUL);
 800384c:	bfac      	ite	ge
 800384e:	f100 4060 	addge.w	r0, r0, #3758096384	@ 0xe0000000
    SCB->SHP[(((uint32_t)IRQn) & 0xFUL)-4UL] = (uint8_t)((priority << (8U - __NVIC_PRIO_BITS)) & (uint32_t)0xFFUL);
 8003852:	4a07      	ldrlt	r2, [pc, #28]	@ (8003870 <HAL_NVIC_SetPriority+0x5c>)
    NVIC->IP[((uint32_t)IRQn)]               = (uint8_t)((priority << (8U - __NVIC_PRIO_BITS)) & (uint32_t)0xFFUL);
 8003854:	ea4f 1303 	mov.w	r3, r3, lsl #4
 8003858:	b2db      	uxtb	r3, r3
 800385a:	bfab      	itete	ge
 800385c:	f500 4061 	addge.w	r0, r0, #57600	@ 0xe100
    SCB->SHP[(((uint32_t)IRQn) & 0xFUL)-4UL] = (uint8_t)((priority << (8U - __NVIC_PRIO_BITS)) & (uint32_t)0xFFUL);
 8003860:	f000 000f 	andlt.w	r0, r0, #15
    NVIC->IP[((uint32_t)IRQn)]               = (uint8_t)((priority << (8U - __NVIC_PRIO_BITS)) & (uint32_t)0xFFUL);
 8003864:	f880 3300 	strbge.w	r3, [r0, #768]	@ 0x300
    SCB->SHP[(((uint32_t)IRQn) & 0xFUL)-4UL] = (uint8_t)((priority << (8U - __NVIC_PRIO_BITS)) & (uint32_t)0xFFUL);
 8003868:	5413      	strblt	r3, [r2, r0]
  assert_param(IS_NVIC_PREEMPTION_PRIORITY(PreemptPriority));
  
  prioritygroup = NVIC_GetPriorityGrouping();
  
  NVIC_SetPriority(IRQn, NVIC_EncodePriority(prioritygroup, PreemptPriority, SubPriority));
}
 800386a:	bd30      	pop	{r4, r5, pc}
 800386c:	e000ed00 	.word	0xe000ed00
 8003870:	e000ed14 	.word	0xe000ed14

08003874 <HAL_NVIC_EnableIRQ>:
  if ((int32_t)(IRQn) >= 0)
 8003874:	2800      	cmp	r0, #0
 8003876:	db07      	blt.n	8003888 <HAL_NVIC_EnableIRQ+0x14>
    NVIC->ISER[(((uint32_t)IRQn) >> 5UL)] = (uint32_t)(1UL << (((uint32_t)IRQn) & 0x1FUL));
 8003878:	2301      	movs	r3, #1
 800387a:	0941      	lsrs	r1, r0, #5
 800387c:	4a03      	ldr	r2, [pc, #12]	@ (800388c <HAL_NVIC_EnableIRQ+0x18>)
 800387e:	f000 001f 	and.w	r0, r0, #31
 8003882:	4083      	lsls	r3, r0
 8003884:	f842 3021 	str.w	r3, [r2, r1, lsl #2]
  /* Check the parameters */
  assert_param(IS_NVIC_DEVICE_IRQ(IRQn));

  /* Enable interrupt */
  NVIC_EnableIRQ(IRQn);
}
 8003888:	4770      	bx	lr
 800388a:	bf00      	nop
 800388c:	e000e100 	.word	0xe000e100

08003890 <HAL_SYSTICK_Config>:
           function <b>SysTick_Config</b> is not included. In this case, the file <b><i>device</i>.h</b>
           must contain a vendor-specific implementation of this function.
 */
__STATIC_INLINE uint32_t SysTick_Config(uint32_t ticks)
{
  if ((ticks - 1UL) > SysTick_LOAD_RELOAD_Msk)
 8003890:	3801      	subs	r0, #1
 8003892:	f1b0 7f80 	cmp.w	r0, #16777216	@ 0x1000000
 8003896:	d20b      	bcs.n	80038b0 <HAL_SYSTICK_Config+0x20>
  {
    return (1UL);                                                   /* Reload value impossible */
  }

  SysTick->LOAD  = (uint32_t)(ticks - 1UL);                         /* set reload register */
 8003898:	f04f 23e0 	mov.w	r3, #3758153728	@ 0xe000e000
    SCB->SHP[(((uint32_t)IRQn) & 0xFUL)-4UL] = (uint8_t)((priority << (8U - __NVIC_PRIO_BITS)) & (uint32_t)0xFFUL);
 800389c:	21f0      	movs	r1, #240	@ 0xf0
 800389e:	4a05      	ldr	r2, [pc, #20]	@ (80038b4 <HAL_SYSTICK_Config+0x24>)
  SysTick->LOAD  = (uint32_t)(ticks - 1UL);                         /* set reload register */
 80038a0:	6158      	str	r0, [r3, #20]
    SCB->SHP[(((uint32_t)IRQn) & 0xFUL)-4UL] = (uint8_t)((priority << (8U - __NVIC_PRIO_BITS)) & (uint32_t)0xFFUL);
 80038a2:	f882 1023 	strb.w	r1, [r2, #35]	@ 0x23
  NVIC_SetPriority (SysTick_IRQn, (1UL << __NVIC_PRIO_BITS) - 1UL); /* set Priority for Systick Interrupt */
  SysTick->VAL   = 0UL;                                             /* Load the SysTick Counter Value */
 80038a6:	2000      	movs	r0, #0
  SysTick->CTRL  = SysTick_CTRL_CLKSOURCE_Msk |
 80038a8:	2207      	movs	r2, #7
  SysTick->VAL   = 0UL;                                             /* Load the SysTick Counter Value */
 80038aa:	6198      	str	r0, [r3, #24]
  SysTick->CTRL  = SysTick_CTRL_CLKSOURCE_Msk |
 80038ac:	611a      	str	r2, [r3, #16]
                   SysTick_CTRL_TICKINT_Msk   |
                   SysTick_CTRL_ENABLE_Msk;                         /* Enable SysTick IRQ and SysTick Timer */
  return (0UL);                                                     /* Function successful */
 80038ae:	4770      	bx	lr
    return (1UL);                                                   /* Reload value impossible */
 80038b0:	2001      	movs	r0, #1
  *                  - 1  Function failed.
  */
uint32_t HAL_SYSTICK_Config(uint32_t TicksNumb)
{
   return SysTick_Config(TicksNumb);
}
 80038b2:	4770      	bx	lr
 80038b4:	e000ed00 	.word	0xe000ed00

080038b8 <HAL_DMA_Init>:
HAL_StatusTypeDef HAL_DMA_Init(DMA_HandleTypeDef *hdma)
{
  uint32_t tmp = 0U;

  /* Check the DMA handle allocation */
  if(hdma == NULL)
 80038b8:	4603      	mov	r3, r0
{
 80038ba:	b510      	push	{r4, lr}
  if(hdma == NULL)
 80038bc:	b330      	cbz	r0, 800390c <HAL_DMA_Init+0x54>
    hdma->ChannelIndex = (((uint32_t)hdma->Instance - (uint32_t)DMA2_Channel1) / ((uint32_t)DMA2_Channel2 - (uint32_t)DMA2_Channel1)) << 2;
    hdma->DmaBaseAddress = DMA2;
  }
#else
  /* DMA1 */
  hdma->ChannelIndex = (((uint32_t)hdma->Instance - (uint32_t)DMA1_Channel1) / ((uint32_t)DMA1_Channel2 - (uint32_t)DMA1_Channel1)) << 2;
 80038be:	6801      	ldr	r1, [r0, #0]
 80038c0:	2014      	movs	r0, #20
 80038c2:	4a13      	ldr	r2, [pc, #76]	@ (8003910 <HAL_DMA_Init+0x58>)
 80038c4:	440a      	add	r2, r1
 80038c6:	fbb2 f2f0 	udiv	r2, r2, r0
 80038ca:	0092      	lsls	r2, r2, #2
 80038cc:	641a      	str	r2, [r3, #64]	@ 0x40
  hdma->DmaBaseAddress = DMA1;
 80038ce:	4a11      	ldr	r2, [pc, #68]	@ (8003914 <HAL_DMA_Init+0x5c>)
 80038d0:	63da      	str	r2, [r3, #60]	@ 0x3c
#endif /* DMA2 */

  /* Change DMA peripheral state */
  hdma->State = HAL_DMA_STATE_BUSY;
 80038d2:	2202      	movs	r2, #2
 80038d4:	f883 2021 	strb.w	r2, [r3, #33]	@ 0x21
  tmp &= ((uint32_t)~(DMA_CCR_PL    | DMA_CCR_MSIZE  | DMA_CCR_PSIZE  | \
                      DMA_CCR_MINC  | DMA_CCR_PINC   | DMA_CCR_CIRC   | \
                      DMA_CCR_DIR));

  /* Prepare the DMA Channel configuration */
  tmp |=  hdma->Init.Direction        |
 80038d8:	e9d3 2401 	ldrd	r2, r4, [r3, #4]
 80038dc:	4322      	orrs	r2, r4
          hdma->Init.PeriphInc           | hdma->Init.MemInc           |
 80038de:	68dc      	ldr	r4, [r3, #12]
  tmp = hdma->Instance->CCR;
 80038e0:	6808      	ldr	r0, [r1, #0]
          hdma->Init.PeriphInc           | hdma->Init.MemInc           |
 80038e2:	4322      	orrs	r2, r4
 80038e4:	691c      	ldr	r4, [r3, #16]
  tmp &= ((uint32_t)~(DMA_CCR_PL    | DMA_CCR_MSIZE  | DMA_CCR_PSIZE  | \
 80038e6:	f36f 100d 	bfc	r0, #4, #10
          hdma->Init.PeriphInc           | hdma->Init.MemInc           |
 80038ea:	4322      	orrs	r2, r4
          hdma->Init.PeriphDataAlignment | hdma->Init.MemDataAlignment |
 80038ec:	695c      	ldr	r4, [r3, #20]
 80038ee:	4322      	orrs	r2, r4
 80038f0:	699c      	ldr	r4, [r3, #24]
 80038f2:	4322      	orrs	r2, r4
          hdma->Init.Mode                | hdma->Init.Priority;
 80038f4:	69dc      	ldr	r4, [r3, #28]
 80038f6:	4322      	orrs	r2, r4
  tmp |=  hdma->Init.Direction        |
 80038f8:	4302      	orrs	r2, r0

  /* Write to DMA Channel CR register */
  hdma->Instance->CCR = tmp;
 80038fa:	600a      	str	r2, [r1, #0]

  /* Initialise the error code */
  hdma->ErrorCode = HAL_DMA_ERROR_NONE;
 80038fc:	2000      	movs	r0, #0

  /* Initialize the DMA state*/
  hdma->State = HAL_DMA_STATE_READY;
 80038fe:	2201      	movs	r2, #1
  hdma->ErrorCode = HAL_DMA_ERROR_NONE;
 8003900:	6398      	str	r0, [r3, #56]	@ 0x38
  /* Allocate lock resource and initialize it */
  hdma->Lock = HAL_UNLOCKED;
 8003902:	f883 0020 	strb.w	r0, [r3, #32]
  hdma->State = HAL_DMA_STATE_READY;
 8003906:	f883 2021 	strb.w	r2, [r3, #33]	@ 0x21

  return HAL_OK;
}
 800390a:	bd10      	pop	{r4, pc}
    return HAL_ERROR;
 800390c:	2001      	movs	r0, #1
 800390e:	e7fc      	b.n	800390a <HAL_DMA_Init+0x52>
 8003910:	bffdfff8 	.word	0xbffdfff8
 8003914:	40020000 	.word	0x40020000

08003918 <HAL_DMA_Start_IT>:
  * @param  DstAddress: The destination memory Buffer address
  * @param  DataLength: The length of data to be transferred from source to destination
  * @retval HAL status
  */
HAL_StatusTypeDef HAL_DMA_Start_IT(DMA_HandleTypeDef *hdma, uint32_t SrcAddress, uint32_t DstAddress, uint32_t DataLength)
{
 8003918:	b5f0      	push	{r4, r5, r6, r7, lr}

  /* Check the parameters */
  assert_param(IS_DMA_BUFFER_SIZE(DataLength));

  /* Process locked */
  __HAL_LOCK(hdma);
 800391a:	f890 4020 	ldrb.w	r4, [r0, #32]
 800391e:	2c01      	cmp	r4, #1
 8003920:	d034      	beq.n	800398c <HAL_DMA_Start_IT+0x74>
 8003922:	2401      	movs	r4, #1
 8003924:	f880 4020 	strb.w	r4, [r0, #32]
  
  if(HAL_DMA_STATE_READY == hdma->State)
 8003928:	f890 4021 	ldrb.w	r4, [r0, #33]	@ 0x21
 800392c:	2c01      	cmp	r4, #1
 800392e:	b2e5      	uxtb	r5, r4
 8003930:	f04f 0400 	mov.w	r4, #0
 8003934:	d128      	bne.n	8003988 <HAL_DMA_Start_IT+0x70>
  {
    /* Change DMA peripheral state */
    hdma->State = HAL_DMA_STATE_BUSY;
 8003936:	2602      	movs	r6, #2
 8003938:	f880 6021 	strb.w	r6, [r0, #33]	@ 0x21
    hdma->ErrorCode = HAL_DMA_ERROR_NONE;
 800393c:	6384      	str	r4, [r0, #56]	@ 0x38
    
    /* Disable the peripheral */
    __HAL_DMA_DISABLE(hdma);
 800393e:	6804      	ldr	r4, [r0, #0]
 8003940:	6826      	ldr	r6, [r4, #0]
 8003942:	f026 0601 	bic.w	r6, r6, #1
 8003946:	6026      	str	r6, [r4, #0]
  * @retval HAL status
  */
static void DMA_SetConfig(DMA_HandleTypeDef *hdma, uint32_t SrcAddress, uint32_t DstAddress, uint32_t DataLength)
{
  /* Clear all flags */
  hdma->DmaBaseAddress->IFCR = (DMA_ISR_GIF1 << hdma->ChannelIndex);
 8003948:	e9d0 670f 	ldrd	r6, r7, [r0, #60]	@ 0x3c
 800394c:	40bd      	lsls	r5, r7
 800394e:	6075      	str	r5, [r6, #4]

  /* Configure DMA Channel data length */
  hdma->Instance->CNDTR = DataLength;
 8003950:	6063      	str	r3, [r4, #4]

  /* Memory to Peripheral */
  if((hdma->Init.Direction) == DMA_MEMORY_TO_PERIPH)
 8003952:	6843      	ldr	r3, [r0, #4]
 8003954:	2b10      	cmp	r3, #16
    if(NULL != hdma->XferHalfCpltCallback)
 8003956:	6ac3      	ldr	r3, [r0, #44]	@ 0x2c
  {
    /* Configure DMA Channel destination address */
    hdma->Instance->CPAR = DstAddress;
 8003958:	bf0b      	itete	eq
 800395a:	60a2      	streq	r2, [r4, #8]
  }
  /* Peripheral to Memory */
  else
  {
    /* Configure DMA Channel source address */
    hdma->Instance->CPAR = SrcAddress;
 800395c:	60a1      	strne	r1, [r4, #8]
    hdma->Instance->CMAR = SrcAddress;
 800395e:	60e1      	streq	r1, [r4, #12]

    /* Configure DMA Channel destination address */
    hdma->Instance->CMAR = DstAddress;
 8003960:	60e2      	strne	r2, [r4, #12]
    if(NULL != hdma->XferHalfCpltCallback)
 8003962:	b14b      	cbz	r3, 8003978 <HAL_DMA_Start_IT+0x60>
      __HAL_DMA_ENABLE_IT(hdma, (DMA_IT_TC | DMA_IT_HT | DMA_IT_TE));
 8003964:	6823      	ldr	r3, [r4, #0]
 8003966:	f043 030e 	orr.w	r3, r3, #14
  HAL_StatusTypeDef status = HAL_OK;
 800396a:	2000      	movs	r0, #0
      __HAL_DMA_ENABLE_IT(hdma, (DMA_IT_TC | DMA_IT_TE));
 800396c:	6023      	str	r3, [r4, #0]
    __HAL_DMA_ENABLE(hdma);
 800396e:	6823      	ldr	r3, [r4, #0]
 8003970:	f043 0301 	orr.w	r3, r3, #1
 8003974:	6023      	str	r3, [r4, #0]
}
 8003976:	bdf0      	pop	{r4, r5, r6, r7, pc}
      __HAL_DMA_DISABLE_IT(hdma, DMA_IT_HT);
 8003978:	6823      	ldr	r3, [r4, #0]
 800397a:	f023 0304 	bic.w	r3, r3, #4
 800397e:	6023      	str	r3, [r4, #0]
      __HAL_DMA_ENABLE_IT(hdma, (DMA_IT_TC | DMA_IT_TE));
 8003980:	6823      	ldr	r3, [r4, #0]
 8003982:	f043 030a 	orr.w	r3, r3, #10
 8003986:	e7f0      	b.n	800396a <HAL_DMA_Start_IT+0x52>
    __HAL_UNLOCK(hdma); 
 8003988:	f880 4020 	strb.w	r4, [r0, #32]
  __HAL_LOCK(hdma);
 800398c:	2002      	movs	r0, #2
 800398e:	e7f2      	b.n	8003976 <HAL_DMA_Start_IT+0x5e>

08003990 <HAL_DMA_Abort>:
  if(hdma->State != HAL_DMA_STATE_BUSY)
 8003990:	f890 2021 	ldrb.w	r2, [r0, #33]	@ 0x21
{
 8003994:	4603      	mov	r3, r0
  if(hdma->State != HAL_DMA_STATE_BUSY)
 8003996:	2a02      	cmp	r2, #2
 8003998:	d006      	beq.n	80039a8 <HAL_DMA_Abort+0x18>
    hdma->ErrorCode = HAL_DMA_ERROR_NO_XFER;
 800399a:	2204      	movs	r2, #4
 800399c:	6382      	str	r2, [r0, #56]	@ 0x38
    return HAL_ERROR;
 800399e:	2001      	movs	r0, #1
    __HAL_UNLOCK(hdma);
 80039a0:	2200      	movs	r2, #0
 80039a2:	f883 2020 	strb.w	r2, [r3, #32]
}
 80039a6:	4770      	bx	lr
    __HAL_DMA_DISABLE_IT(hdma, (DMA_IT_TC | DMA_IT_HT | DMA_IT_TE));
 80039a8:	6802      	ldr	r2, [r0, #0]
    hdma->DmaBaseAddress->IFCR = (DMA_ISR_GIF1 << hdma->ChannelIndex);
 80039aa:	6bc0      	ldr	r0, [r0, #60]	@ 0x3c
    __HAL_DMA_DISABLE_IT(hdma, (DMA_IT_TC | DMA_IT_HT | DMA_IT_TE));
 80039ac:	6811      	ldr	r1, [r2, #0]
 80039ae:	f021 010e 	bic.w	r1, r1, #14
 80039b2:	6011      	str	r1, [r2, #0]
    __HAL_DMA_DISABLE(hdma);
 80039b4:	6811      	ldr	r1, [r2, #0]
 80039b6:	f021 0101 	bic.w	r1, r1, #1
 80039ba:	6011      	str	r1, [r2, #0]
    hdma->DmaBaseAddress->IFCR = (DMA_ISR_GIF1 << hdma->ChannelIndex);
 80039bc:	2101      	movs	r1, #1
 80039be:	6c1a      	ldr	r2, [r3, #64]	@ 0x40
 80039c0:	fa01 f202 	lsl.w	r2, r1, r2
 80039c4:	6042      	str	r2, [r0, #4]
  return status; 
 80039c6:	2000      	movs	r0, #0
  hdma->State = HAL_DMA_STATE_READY;
 80039c8:	f883 1021 	strb.w	r1, [r3, #33]	@ 0x21
  return status; 
 80039cc:	e7e8      	b.n	80039a0 <HAL_DMA_Abort+0x10>
	...

080039d0 <HAL_DMA_Abort_IT>:
{  
 80039d0:	b508      	push	{r3, lr}
  if(HAL_DMA_STATE_BUSY != hdma->State)
 80039d2:	f890 3021 	ldrb.w	r3, [r0, #33]	@ 0x21
 80039d6:	2b02      	cmp	r3, #2
 80039d8:	d003      	beq.n	80039e2 <HAL_DMA_Abort_IT+0x12>
    hdma->ErrorCode = HAL_DMA_ERROR_NO_XFER;
 80039da:	2304      	movs	r3, #4
 80039dc:	6383      	str	r3, [r0, #56]	@ 0x38
    status = HAL_ERROR;
 80039de:	2001      	movs	r0, #1
}
 80039e0:	bd08      	pop	{r3, pc}
    __HAL_DMA_DISABLE_IT(hdma, (DMA_IT_TC | DMA_IT_HT | DMA_IT_TE));
 80039e2:	6803      	ldr	r3, [r0, #0]
 80039e4:	681a      	ldr	r2, [r3, #0]
 80039e6:	f022 020e 	bic.w	r2, r2, #14
 80039ea:	601a      	str	r2, [r3, #0]
    __HAL_DMA_DISABLE(hdma);
 80039ec:	681a      	ldr	r2, [r3, #0]
 80039ee:	f022 0201 	bic.w	r2, r2, #1
 80039f2:	601a      	str	r2, [r3, #0]
    __HAL_DMA_CLEAR_FLAG(hdma, __HAL_DMA_GET_GI_FLAG_INDEX(hdma));
 80039f4:	4a17      	ldr	r2, [pc, #92]	@ (8003a54 <HAL_DMA_Abort_IT+0x84>)
 80039f6:	4293      	cmp	r3, r2
 80039f8:	d01f      	beq.n	8003a3a <HAL_DMA_Abort_IT+0x6a>
 80039fa:	3214      	adds	r2, #20
 80039fc:	4293      	cmp	r3, r2
 80039fe:	d01e      	beq.n	8003a3e <HAL_DMA_Abort_IT+0x6e>
 8003a00:	3214      	adds	r2, #20
 8003a02:	4293      	cmp	r3, r2
 8003a04:	d01d      	beq.n	8003a42 <HAL_DMA_Abort_IT+0x72>
 8003a06:	3214      	adds	r2, #20
 8003a08:	4293      	cmp	r3, r2
 8003a0a:	d01d      	beq.n	8003a48 <HAL_DMA_Abort_IT+0x78>
 8003a0c:	3214      	adds	r2, #20
 8003a0e:	4293      	cmp	r3, r2
 8003a10:	d01d      	beq.n	8003a4e <HAL_DMA_Abort_IT+0x7e>
 8003a12:	3214      	adds	r2, #20
 8003a14:	4293      	cmp	r3, r2
 8003a16:	bf14      	ite	ne
 8003a18:	f04f 7380 	movne.w	r3, #16777216	@ 0x1000000
 8003a1c:	f44f 1380 	moveq.w	r3, #1048576	@ 0x100000
 8003a20:	4a0d      	ldr	r2, [pc, #52]	@ (8003a58 <HAL_DMA_Abort_IT+0x88>)
 8003a22:	6053      	str	r3, [r2, #4]
    hdma->State = HAL_DMA_STATE_READY;
 8003a24:	2301      	movs	r3, #1
 8003a26:	f880 3021 	strb.w	r3, [r0, #33]	@ 0x21
    __HAL_UNLOCK(hdma);
 8003a2a:	2300      	movs	r3, #0
 8003a2c:	f880 3020 	strb.w	r3, [r0, #32]
    if(hdma->XferAbortCallback != NULL)
 8003a30:	6b43      	ldr	r3, [r0, #52]	@ 0x34
 8003a32:	b103      	cbz	r3, 8003a36 <HAL_DMA_Abort_IT+0x66>
      hdma->XferAbortCallback(hdma);
 8003a34:	4798      	blx	r3
  HAL_StatusTypeDef status = HAL_OK;
 8003a36:	2000      	movs	r0, #0
 8003a38:	e7d2      	b.n	80039e0 <HAL_DMA_Abort_IT+0x10>
    __HAL_DMA_CLEAR_FLAG(hdma, __HAL_DMA_GET_GI_FLAG_INDEX(hdma));
 8003a3a:	2301      	movs	r3, #1
 8003a3c:	e7f0      	b.n	8003a20 <HAL_DMA_Abort_IT+0x50>
 8003a3e:	2310      	movs	r3, #16
 8003a40:	e7ee      	b.n	8003a20 <HAL_DMA_Abort_IT+0x50>
 8003a42:	f44f 7380 	mov.w	r3, #256	@ 0x100
 8003a46:	e7eb      	b.n	8003a20 <HAL_DMA_Abort_IT+0x50>
 8003a48:	f44f 5380 	mov.w	r3, #4096	@ 0x1000
 8003a4c:	e7e8      	b.n	8003a20 <HAL_DMA_Abort_IT+0x50>
 8003a4e:	f44f 3380 	mov.w	r3, #65536	@ 0x10000
 8003a52:	e7e5      	b.n	8003a20 <HAL_DMA_Abort_IT+0x50>
 8003a54:	40020008 	.word	0x40020008
 8003a58:	40020000 	.word	0x40020000

08003a5c <HAL_DMA_IRQHandler>:
{
 8003a5c:	b470      	push	{r4, r5, r6}
  if (((flag_it & (DMA_FLAG_HT1 << hdma->ChannelIndex)) != RESET) && ((source_it & DMA_IT_HT) != RESET))
 8003a5e:	2504      	movs	r5, #4
  uint32_t flag_it = hdma->DmaBaseAddress->ISR;
 8003a60:	6bc6      	ldr	r6, [r0, #60]	@ 0x3c
  if (((flag_it & (DMA_FLAG_HT1 << hdma->ChannelIndex)) != RESET) && ((source_it & DMA_IT_HT) != RESET))
 8003a62:	6c02      	ldr	r2, [r0, #64]	@ 0x40
  uint32_t flag_it = hdma->DmaBaseAddress->ISR;
 8003a64:	6834      	ldr	r4, [r6, #0]
  uint32_t source_it = hdma->Instance->CCR;
 8003a66:	6803      	ldr	r3, [r0, #0]
  if (((flag_it & (DMA_FLAG_HT1 << hdma->ChannelIndex)) != RESET) && ((source_it & DMA_IT_HT) != RESET))
 8003a68:	4095      	lsls	r5, r2
 8003a6a:	4225      	tst	r5, r4
  uint32_t source_it = hdma->Instance->CCR;
 8003a6c:	6819      	ldr	r1, [r3, #0]
  if (((flag_it & (DMA_FLAG_HT1 << hdma->ChannelIndex)) != RESET) && ((source_it & DMA_IT_HT) != RESET))
 8003a6e:	d032      	beq.n	8003ad6 <HAL_DMA_IRQHandler+0x7a>
 8003a70:	074d      	lsls	r5, r1, #29
 8003a72:	d530      	bpl.n	8003ad6 <HAL_DMA_IRQHandler+0x7a>
    if((hdma->Instance->CCR & DMA_CCR_CIRC) == 0U)
 8003a74:	681a      	ldr	r2, [r3, #0]
 8003a76:	0696      	lsls	r6, r2, #26
      __HAL_DMA_DISABLE_IT(hdma, DMA_IT_HT);
 8003a78:	bf5e      	ittt	pl
 8003a7a:	681a      	ldrpl	r2, [r3, #0]
 8003a7c:	f022 0204 	bicpl.w	r2, r2, #4
 8003a80:	601a      	strpl	r2, [r3, #0]
    __HAL_DMA_CLEAR_FLAG(hdma, __HAL_DMA_GET_HT_FLAG_INDEX(hdma));
 8003a82:	4a3e      	ldr	r2, [pc, #248]	@ (8003b7c <HAL_DMA_IRQHandler+0x120>)
 8003a84:	4293      	cmp	r3, r2
 8003a86:	d019      	beq.n	8003abc <HAL_DMA_IRQHandler+0x60>
 8003a88:	3214      	adds	r2, #20
 8003a8a:	4293      	cmp	r3, r2
 8003a8c:	d018      	beq.n	8003ac0 <HAL_DMA_IRQHandler+0x64>
 8003a8e:	3214      	adds	r2, #20
 8003a90:	4293      	cmp	r3, r2
 8003a92:	d017      	beq.n	8003ac4 <HAL_DMA_IRQHandler+0x68>
 8003a94:	3214      	adds	r2, #20
 8003a96:	4293      	cmp	r3, r2
 8003a98:	d017      	beq.n	8003aca <HAL_DMA_IRQHandler+0x6e>
 8003a9a:	3214      	adds	r2, #20
 8003a9c:	4293      	cmp	r3, r2
 8003a9e:	d017      	beq.n	8003ad0 <HAL_DMA_IRQHandler+0x74>
 8003aa0:	3214      	adds	r2, #20
 8003aa2:	4293      	cmp	r3, r2
 8003aa4:	bf14      	ite	ne
 8003aa6:	f04f 6380 	movne.w	r3, #67108864	@ 0x4000000
 8003aaa:	f44f 0380 	moveq.w	r3, #4194304	@ 0x400000
 8003aae:	4a34      	ldr	r2, [pc, #208]	@ (8003b80 <HAL_DMA_IRQHandler+0x124>)
 8003ab0:	6053      	str	r3, [r2, #4]
    if(hdma->XferHalfCpltCallback != NULL)
 8003ab2:	6ac3      	ldr	r3, [r0, #44]	@ 0x2c
    if (hdma->XferErrorCallback != NULL)
 8003ab4:	2b00      	cmp	r3, #0
 8003ab6:	d05e      	beq.n	8003b76 <HAL_DMA_IRQHandler+0x11a>
}
 8003ab8:	bc70      	pop	{r4, r5, r6}
      hdma->XferErrorCallback(hdma);
 8003aba:	4718      	bx	r3
    __HAL_DMA_CLEAR_FLAG(hdma, __HAL_DMA_GET_HT_FLAG_INDEX(hdma));
 8003abc:	2304      	movs	r3, #4
 8003abe:	e7f6      	b.n	8003aae <HAL_DMA_IRQHandler+0x52>
 8003ac0:	2340      	movs	r3, #64	@ 0x40
 8003ac2:	e7f4      	b.n	8003aae <HAL_DMA_IRQHandler+0x52>
 8003ac4:	f44f 6380 	mov.w	r3, #1024	@ 0x400
 8003ac8:	e7f1      	b.n	8003aae <HAL_DMA_IRQHandler+0x52>
 8003aca:	f44f 4380 	mov.w	r3, #16384	@ 0x4000
 8003ace:	e7ee      	b.n	8003aae <HAL_DMA_IRQHandler+0x52>
 8003ad0:	f44f 2380 	mov.w	r3, #262144	@ 0x40000
 8003ad4:	e7eb      	b.n	8003aae <HAL_DMA_IRQHandler+0x52>
  else if (((flag_it & (DMA_FLAG_TC1 << hdma->ChannelIndex)) != RESET) && ((source_it & DMA_IT_TC) != RESET))
 8003ad6:	2502      	movs	r5, #2
 8003ad8:	4095      	lsls	r5, r2
 8003ada:	4225      	tst	r5, r4
 8003adc:	d035      	beq.n	8003b4a <HAL_DMA_IRQHandler+0xee>
 8003ade:	078d      	lsls	r5, r1, #30
 8003ae0:	d533      	bpl.n	8003b4a <HAL_DMA_IRQHandler+0xee>
    if((hdma->Instance->CCR & DMA_CCR_CIRC) == 0U)
 8003ae2:	681a      	ldr	r2, [r3, #0]
 8003ae4:	0694      	lsls	r4, r2, #26
 8003ae6:	d406      	bmi.n	8003af6 <HAL_DMA_IRQHandler+0x9a>
      __HAL_DMA_DISABLE_IT(hdma, DMA_IT_TE | DMA_IT_TC);  
 8003ae8:	681a      	ldr	r2, [r3, #0]
 8003aea:	f022 020a 	bic.w	r2, r2, #10
 8003aee:	601a      	str	r2, [r3, #0]
      hdma->State = HAL_DMA_STATE_READY;
 8003af0:	2201      	movs	r2, #1
 8003af2:	f880 2021 	strb.w	r2, [r0, #33]	@ 0x21
      __HAL_DMA_CLEAR_FLAG(hdma, __HAL_DMA_GET_TC_FLAG_INDEX(hdma));
 8003af6:	4a21      	ldr	r2, [pc, #132]	@ (8003b7c <HAL_DMA_IRQHandler+0x120>)
 8003af8:	4293      	cmp	r3, r2
 8003afa:	d019      	beq.n	8003b30 <HAL_DMA_IRQHandler+0xd4>
 8003afc:	3214      	adds	r2, #20
 8003afe:	4293      	cmp	r3, r2
 8003b00:	d018      	beq.n	8003b34 <HAL_DMA_IRQHandler+0xd8>
 8003b02:	3214      	adds	r2, #20
 8003b04:	4293      	cmp	r3, r2
 8003b06:	d017      	beq.n	8003b38 <HAL_DMA_IRQHandler+0xdc>
 8003b08:	3214      	adds	r2, #20
 8003b0a:	4293      	cmp	r3, r2
 8003b0c:	d017      	beq.n	8003b3e <HAL_DMA_IRQHandler+0xe2>
 8003b0e:	3214      	adds	r2, #20
 8003b10:	4293      	cmp	r3, r2
 8003b12:	d017      	beq.n	8003b44 <HAL_DMA_IRQHandler+0xe8>
 8003b14:	3214      	adds	r2, #20
 8003b16:	4293      	cmp	r3, r2
 8003b18:	bf14      	ite	ne
 8003b1a:	f04f 7300 	movne.w	r3, #33554432	@ 0x2000000
 8003b1e:	f44f 1300 	moveq.w	r3, #2097152	@ 0x200000
 8003b22:	4a17      	ldr	r2, [pc, #92]	@ (8003b80 <HAL_DMA_IRQHandler+0x124>)
 8003b24:	6053      	str	r3, [r2, #4]
    __HAL_UNLOCK(hdma);
 8003b26:	2300      	movs	r3, #0
 8003b28:	f880 3020 	strb.w	r3, [r0, #32]
    if(hdma->XferCpltCallback != NULL)
 8003b2c:	6a83      	ldr	r3, [r0, #40]	@ 0x28
 8003b2e:	e7c1      	b.n	8003ab4 <HAL_DMA_IRQHandler+0x58>
      __HAL_DMA_CLEAR_FLAG(hdma, __HAL_DMA_GET_TC_FLAG_INDEX(hdma));
 8003b30:	2302      	movs	r3, #2
 8003b32:	e7f6      	b.n	8003b22 <HAL_DMA_IRQHandler+0xc6>
 8003b34:	2320      	movs	r3, #32
 8003b36:	e7f4      	b.n	8003b22 <HAL_DMA_IRQHandler+0xc6>
 8003b38:	f44f 7300 	mov.w	r3, #512	@ 0x200
 8003b3c:	e7f1      	b.n	8003b22 <HAL_DMA_IRQHandler+0xc6>
 8003b3e:	f44f 5300 	mov.w	r3, #8192	@ 0x2000
 8003b42:	e7ee      	b.n	8003b22 <HAL_DMA_IRQHandler+0xc6>
 8003b44:	f44f 3300 	mov.w	r3, #131072	@ 0x20000
 8003b48:	e7eb      	b.n	8003b22 <HAL_DMA_IRQHandler+0xc6>
  else if (( RESET != (flag_it & (DMA_FLAG_TE1 << hdma->ChannelIndex))) && (RESET != (source_it & DMA_IT_TE)))
 8003b4a:	2508      	movs	r5, #8
 8003b4c:	4095      	lsls	r5, r2
 8003b4e:	4225      	tst	r5, r4
 8003b50:	d011      	beq.n	8003b76 <HAL_DMA_IRQHandler+0x11a>
 8003b52:	0709      	lsls	r1, r1, #28
 8003b54:	d50f      	bpl.n	8003b76 <HAL_DMA_IRQHandler+0x11a>
    __HAL_DMA_DISABLE_IT(hdma, (DMA_IT_TC | DMA_IT_HT | DMA_IT_TE));
 8003b56:	6819      	ldr	r1, [r3, #0]
 8003b58:	f021 010e 	bic.w	r1, r1, #14
 8003b5c:	6019      	str	r1, [r3, #0]
    hdma->DmaBaseAddress->IFCR = (DMA_ISR_GIF1 << hdma->ChannelIndex);
 8003b5e:	2301      	movs	r3, #1
 8003b60:	fa03 f202 	lsl.w	r2, r3, r2
 8003b64:	6072      	str	r2, [r6, #4]
    hdma->ErrorCode = HAL_DMA_ERROR_TE;
 8003b66:	6383      	str	r3, [r0, #56]	@ 0x38
    hdma->State = HAL_DMA_STATE_READY;
 8003b68:	f880 3021 	strb.w	r3, [r0, #33]	@ 0x21
    __HAL_UNLOCK(hdma);
 8003b6c:	2300      	movs	r3, #0
 8003b6e:	f880 3020 	strb.w	r3, [r0, #32]
    if (hdma->XferErrorCallback != NULL)
 8003b72:	6b03      	ldr	r3, [r0, #48]	@ 0x30
 8003b74:	e79e      	b.n	8003ab4 <HAL_DMA_IRQHandler+0x58>
}
 8003b76:	bc70      	pop	{r4, r5, r6}
 8003b78:	4770      	bx	lr
 8003b7a:	bf00      	nop
 8003b7c:	40020008 	.word	0x40020008
 8003b80:	40020000 	.word	0x40020000

08003b84 <HAL_DMA_GetState>:
  return hdma->State;
 8003b84:	f890 0021 	ldrb.w	r0, [r0, #33]	@ 0x21
}
 8003b88:	4770      	bx	lr
	...

08003b8c <HAL_GPIO_Init>:
  * @param  GPIO_Init: pointer to a GPIO_InitTypeDef structure that contains
  *         the configuration information for the specified GPIO peripheral.
  * @retval None
  */
void HAL_GPIO_Init(GPIO_TypeDef  *GPIOx, GPIO_InitTypeDef *GPIO_Init)
{
 8003b8c:	e92d 4ff7 	stmdb	sp!, {r0, r1, r2, r4, r5, r6, r7, r8, r9, sl, fp, lr}
  uint32_t position = 0x00u;
  uint32_t ioposition;
  uint32_t iocurrent;
  uint32_t temp;
  uint32_t config = 0x00u;
 8003b90:	2400      	movs	r4, #0
       in order to address CRH or CRL register*/
      configregister = (iocurrent < GPIO_PIN_8) ? &GPIOx->CRL     : &GPIOx->CRH;
      registeroffset = (iocurrent < GPIO_PIN_8) ? (position << 2u) : ((position - 8u) << 2u);

      /* Apply the new configuration of the pin to the register */
      MODIFY_REG((*configregister), ((GPIO_CRL_MODE0 | GPIO_CRL_CNF0) << registeroffset), (config << registeroffset));
 8003b92:	f04f 0e0f 	mov.w	lr, #15
  uint32_t position = 0x00u;
 8003b96:	4626      	mov	r6, r4
      /*--------------------- EXTI Mode Configuration ------------------------*/
      /* Configure the External Interrupt or event for the current IO */
      if ((GPIO_Init->Mode & EXTI_MODE) == EXTI_MODE)
      {
        /* Enable AFIO Clock */
        __HAL_RCC_AFIO_CLK_ENABLE();
 8003b98:	f8df c184 	ldr.w	ip, [pc, #388]	@ 8003d20 <HAL_GPIO_Init+0x194>
 8003b9c:	4b61      	ldr	r3, [pc, #388]	@ (8003d24 <HAL_GPIO_Init+0x198>)
      configregister = (iocurrent < GPIO_PIN_8) ? &GPIOx->CRL     : &GPIOx->CRH;
 8003b9e:	f100 0804 	add.w	r8, r0, #4
  while (((GPIO_Init->Pin) >> position) != 0x00u)
 8003ba2:	680a      	ldr	r2, [r1, #0]
 8003ba4:	fa32 f506 	lsrs.w	r5, r2, r6
 8003ba8:	d102      	bne.n	8003bb0 <HAL_GPIO_Init+0x24>
      }
    }

	position++;
  }
}
 8003baa:	b003      	add	sp, #12
 8003bac:	e8bd 8ff0 	ldmia.w	sp!, {r4, r5, r6, r7, r8, r9, sl, fp, pc}
    ioposition = (0x01uL << position);
 8003bb0:	2501      	movs	r5, #1
 8003bb2:	fa05 f706 	lsl.w	r7, r5, r6
    iocurrent = (uint32_t)(GPIO_Init->Pin) & ioposition;
 8003bb6:	ea02 0507 	and.w	r5, r2, r7
    if (iocurrent == ioposition)
 8003bba:	ea37 0202 	bics.w	r2, r7, r2
 8003bbe:	d176      	bne.n	8003cae <HAL_GPIO_Init+0x122>
      switch (GPIO_Init->Mode)
 8003bc0:	684a      	ldr	r2, [r1, #4]
 8003bc2:	2a03      	cmp	r2, #3
 8003bc4:	d807      	bhi.n	8003bd6 <HAL_GPIO_Init+0x4a>
 8003bc6:	3a01      	subs	r2, #1
 8003bc8:	2a02      	cmp	r2, #2
 8003bca:	f200 8083 	bhi.w	8003cd4 <HAL_GPIO_Init+0x148>
 8003bce:	e8df f002 	tbb	[pc, r2]
 8003bd2:	9691      	.short	0x9691
 8003bd4:	9c          	.byte	0x9c
 8003bd5:	00          	.byte	0x00
 8003bd6:	2a12      	cmp	r2, #18
 8003bd8:	f000 8094 	beq.w	8003d04 <HAL_GPIO_Init+0x178>
 8003bdc:	d869      	bhi.n	8003cb2 <HAL_GPIO_Init+0x126>
 8003bde:	2a11      	cmp	r2, #17
 8003be0:	f000 808a 	beq.w	8003cf8 <HAL_GPIO_Init+0x16c>
      configregister = (iocurrent < GPIO_PIN_8) ? &GPIOx->CRL     : &GPIOx->CRH;
 8003be4:	2dff      	cmp	r5, #255	@ 0xff
 8003be6:	bf94      	ite	ls
 8003be8:	4681      	movls	r9, r0
 8003bea:	46c1      	movhi	r9, r8
      registeroffset = (iocurrent < GPIO_PIN_8) ? (position << 2u) : ((position - 8u) << 2u);
 8003bec:	ea4f 0286 	mov.w	r2, r6, lsl #2
      MODIFY_REG((*configregister), ((GPIO_CRL_MODE0 | GPIO_CRL_CNF0) << registeroffset), (config << registeroffset));
 8003bf0:	f8d9 7000 	ldr.w	r7, [r9]
      registeroffset = (iocurrent < GPIO_PIN_8) ? (position << 2u) : ((position - 8u) << 2u);
 8003bf4:	bf88      	it	hi
 8003bf6:	3a20      	subhi	r2, #32
      MODIFY_REG((*configregister), ((GPIO_CRL_MODE0 | GPIO_CRL_CNF0) << registeroffset), (config << registeroffset));
 8003bf8:	fa0e fa02 	lsl.w	sl, lr, r2
 8003bfc:	ea27 070a 	bic.w	r7, r7, sl
 8003c00:	fa04 f202 	lsl.w	r2, r4, r2
 8003c04:	4317      	orrs	r7, r2
 8003c06:	f8c9 7000 	str.w	r7, [r9]
      if ((GPIO_Init->Mode & EXTI_MODE) == EXTI_MODE)
 8003c0a:	f8d1 9004 	ldr.w	r9, [r1, #4]
 8003c0e:	f019 5f80 	tst.w	r9, #268435456	@ 0x10000000
 8003c12:	d04c      	beq.n	8003cae <HAL_GPIO_Init+0x122>
        __HAL_RCC_AFIO_CLK_ENABLE();
 8003c14:	f8dc 2018 	ldr.w	r2, [ip, #24]
 8003c18:	f026 0703 	bic.w	r7, r6, #3
 8003c1c:	f042 0201 	orr.w	r2, r2, #1
 8003c20:	f8cc 2018 	str.w	r2, [ip, #24]
 8003c24:	f8dc 2018 	ldr.w	r2, [ip, #24]
 8003c28:	f107 4780 	add.w	r7, r7, #1073741824	@ 0x40000000
 8003c2c:	f002 0201 	and.w	r2, r2, #1
 8003c30:	9201      	str	r2, [sp, #4]
 8003c32:	f507 3780 	add.w	r7, r7, #65536	@ 0x10000
        CLEAR_BIT(temp, (0x0Fu) << (4u * (position & 0x03u)));
 8003c36:	f006 0a03 	and.w	sl, r6, #3
        __HAL_RCC_AFIO_CLK_ENABLE();
 8003c3a:	9a01      	ldr	r2, [sp, #4]
        CLEAR_BIT(temp, (0x0Fu) << (4u * (position & 0x03u)));
 8003c3c:	ea4f 0a8a 	mov.w	sl, sl, lsl #2
        temp = AFIO->EXTICR[position >> 2u];
 8003c40:	68ba      	ldr	r2, [r7, #8]
        CLEAR_BIT(temp, (0x0Fu) << (4u * (position & 0x03u)));
 8003c42:	fa0e fb0a 	lsl.w	fp, lr, sl
 8003c46:	ea22 0b0b 	bic.w	fp, r2, fp
        SET_BIT(temp, (GPIO_GET_INDEX(GPIOx)) << (4u * (position & 0x03u)));
 8003c4a:	4a37      	ldr	r2, [pc, #220]	@ (8003d28 <HAL_GPIO_Init+0x19c>)
 8003c4c:	4290      	cmp	r0, r2
 8003c4e:	d060      	beq.n	8003d12 <HAL_GPIO_Init+0x186>
 8003c50:	f502 6280 	add.w	r2, r2, #1024	@ 0x400
 8003c54:	4290      	cmp	r0, r2
 8003c56:	d05e      	beq.n	8003d16 <HAL_GPIO_Init+0x18a>
 8003c58:	f502 6280 	add.w	r2, r2, #1024	@ 0x400
 8003c5c:	4290      	cmp	r0, r2
 8003c5e:	d05c      	beq.n	8003d1a <HAL_GPIO_Init+0x18e>
 8003c60:	f502 6280 	add.w	r2, r2, #1024	@ 0x400
 8003c64:	4290      	cmp	r0, r2
 8003c66:	bf14      	ite	ne
 8003c68:	2204      	movne	r2, #4
 8003c6a:	2203      	moveq	r2, #3
 8003c6c:	fa02 f20a 	lsl.w	r2, r2, sl
 8003c70:	ea42 020b 	orr.w	r2, r2, fp
        AFIO->EXTICR[position >> 2u] = temp;
 8003c74:	60ba      	str	r2, [r7, #8]
          SET_BIT(EXTI->RTSR, iocurrent);
 8003c76:	689a      	ldr	r2, [r3, #8]
        if ((GPIO_Init->Mode & RISING_EDGE) == RISING_EDGE)
 8003c78:	f419 1f80 	tst.w	r9, #1048576	@ 0x100000
          SET_BIT(EXTI->RTSR, iocurrent);
 8003c7c:	bf14      	ite	ne
 8003c7e:	432a      	orrne	r2, r5
          CLEAR_BIT(EXTI->RTSR, iocurrent);
 8003c80:	43aa      	biceq	r2, r5
 8003c82:	609a      	str	r2, [r3, #8]
          SET_BIT(EXTI->FTSR, iocurrent);
 8003c84:	68da      	ldr	r2, [r3, #12]
        if ((GPIO_Init->Mode & FALLING_EDGE) == FALLING_EDGE)
 8003c86:	f419 1f00 	tst.w	r9, #2097152	@ 0x200000
          SET_BIT(EXTI->FTSR, iocurrent);
 8003c8a:	bf14      	ite	ne
 8003c8c:	432a      	orrne	r2, r5
          CLEAR_BIT(EXTI->FTSR, iocurrent);
 8003c8e:	43aa      	biceq	r2, r5
 8003c90:	60da      	str	r2, [r3, #12]
          SET_BIT(EXTI->EMR, iocurrent);
 8003c92:	685a      	ldr	r2, [r3, #4]
        if ((GPIO_Init->Mode & GPIO_MODE_EVT) == GPIO_MODE_EVT)
 8003c94:	f419 3f00 	tst.w	r9, #131072	@ 0x20000
          SET_BIT(EXTI->EMR, iocurrent);
 8003c98:	bf14      	ite	ne
 8003c9a:	432a      	orrne	r2, r5
          CLEAR_BIT(EXTI->EMR, iocurrent);
 8003c9c:	43aa      	biceq	r2, r5
 8003c9e:	605a      	str	r2, [r3, #4]
          SET_BIT(EXTI->IMR, iocurrent);
 8003ca0:	681a      	ldr	r2, [r3, #0]
        if ((GPIO_Init->Mode & GPIO_MODE_IT) == GPIO_MODE_IT)
 8003ca2:	f419 3f80 	tst.w	r9, #65536	@ 0x10000
          SET_BIT(EXTI->IMR, iocurrent);
 8003ca6:	bf14      	ite	ne
 8003ca8:	432a      	orrne	r2, r5
          CLEAR_BIT(EXTI->IMR, iocurrent);
 8003caa:	43aa      	biceq	r2, r5
 8003cac:	601a      	str	r2, [r3, #0]
	position++;
 8003cae:	3601      	adds	r6, #1
 8003cb0:	e777      	b.n	8003ba2 <HAL_GPIO_Init+0x16>
      switch (GPIO_Init->Mode)
 8003cb2:	f8df 9078 	ldr.w	r9, [pc, #120]	@ 8003d2c <HAL_GPIO_Init+0x1a0>
 8003cb6:	454a      	cmp	r2, r9
 8003cb8:	d00c      	beq.n	8003cd4 <HAL_GPIO_Init+0x148>
 8003cba:	d814      	bhi.n	8003ce6 <HAL_GPIO_Init+0x15a>
 8003cbc:	f5a9 1980 	sub.w	r9, r9, #1048576	@ 0x100000
 8003cc0:	454a      	cmp	r2, r9
 8003cc2:	d007      	beq.n	8003cd4 <HAL_GPIO_Init+0x148>
 8003cc4:	f509 2970 	add.w	r9, r9, #983040	@ 0xf0000
 8003cc8:	454a      	cmp	r2, r9
 8003cca:	d003      	beq.n	8003cd4 <HAL_GPIO_Init+0x148>
 8003ccc:	f5a9 1980 	sub.w	r9, r9, #1048576	@ 0x100000
 8003cd0:	454a      	cmp	r2, r9
 8003cd2:	d187      	bne.n	8003be4 <HAL_GPIO_Init+0x58>
          if (GPIO_Init->Pull == GPIO_NOPULL)
 8003cd4:	688a      	ldr	r2, [r1, #8]
 8003cd6:	b1d2      	cbz	r2, 8003d0e <HAL_GPIO_Init+0x182>
          else if (GPIO_Init->Pull == GPIO_PULLUP)
 8003cd8:	2a01      	cmp	r2, #1
            config = GPIO_CR_MODE_INPUT + GPIO_CR_CNF_INPUT_PU_PD;
 8003cda:	f04f 0408 	mov.w	r4, #8
            GPIOx->BSRR = ioposition;
 8003cde:	bf0c      	ite	eq
 8003ce0:	6107      	streq	r7, [r0, #16]
            GPIOx->BRR = ioposition;
 8003ce2:	6147      	strne	r7, [r0, #20]
 8003ce4:	e77e      	b.n	8003be4 <HAL_GPIO_Init+0x58>
      switch (GPIO_Init->Mode)
 8003ce6:	f8df 9048 	ldr.w	r9, [pc, #72]	@ 8003d30 <HAL_GPIO_Init+0x1a4>
 8003cea:	454a      	cmp	r2, r9
 8003cec:	d0f2      	beq.n	8003cd4 <HAL_GPIO_Init+0x148>
 8003cee:	f509 3980 	add.w	r9, r9, #65536	@ 0x10000
 8003cf2:	e7ed      	b.n	8003cd0 <HAL_GPIO_Init+0x144>
          config = GPIO_Init->Speed + GPIO_CR_CNF_GP_OUTPUT_PP;
 8003cf4:	68cc      	ldr	r4, [r1, #12]
          break;
 8003cf6:	e775      	b.n	8003be4 <HAL_GPIO_Init+0x58>
          config = GPIO_Init->Speed + GPIO_CR_CNF_GP_OUTPUT_OD;
 8003cf8:	68cc      	ldr	r4, [r1, #12]
 8003cfa:	3404      	adds	r4, #4
          break;
 8003cfc:	e772      	b.n	8003be4 <HAL_GPIO_Init+0x58>
          config = GPIO_Init->Speed + GPIO_CR_CNF_AF_OUTPUT_PP;
 8003cfe:	68cc      	ldr	r4, [r1, #12]
 8003d00:	3408      	adds	r4, #8
          break;
 8003d02:	e76f      	b.n	8003be4 <HAL_GPIO_Init+0x58>
          config = GPIO_Init->Speed + GPIO_CR_CNF_AF_OUTPUT_OD;
 8003d04:	68cc      	ldr	r4, [r1, #12]
 8003d06:	340c      	adds	r4, #12
          break;
 8003d08:	e76c      	b.n	8003be4 <HAL_GPIO_Init+0x58>
      switch (GPIO_Init->Mode)
 8003d0a:	2400      	movs	r4, #0
 8003d0c:	e76a      	b.n	8003be4 <HAL_GPIO_Init+0x58>
            config = GPIO_CR_MODE_INPUT + GPIO_CR_CNF_INPUT_FLOATING;
 8003d0e:	2404      	movs	r4, #4
 8003d10:	e768      	b.n	8003be4 <HAL_GPIO_Init+0x58>
        SET_BIT(temp, (GPIO_GET_INDEX(GPIOx)) << (4u * (position & 0x03u)));
 8003d12:	2200      	movs	r2, #0
 8003d14:	e7aa      	b.n	8003c6c <HAL_GPIO_Init+0xe0>
 8003d16:	2201      	movs	r2, #1
 8003d18:	e7a8      	b.n	8003c6c <HAL_GPIO_Init+0xe0>
 8003d1a:	2202      	movs	r2, #2
 8003d1c:	e7a6      	b.n	8003c6c <HAL_GPIO_Init+0xe0>
 8003d1e:	bf00      	nop
 8003d20:	40021000 	.word	0x40021000
 8003d24:	40010400 	.word	0x40010400
 8003d28:	40010800 	.word	0x40010800
 8003d2c:	10220000 	.word	0x10220000
 8003d30:	10310000 	.word	0x10310000

08003d34 <HAL_GPIO_ReadPin>:
  GPIO_PinState bitstatus;

  /* Check the parameters */
  assert_param(IS_GPIO_PIN(GPIO_Pin));

  if ((GPIOx->IDR & GPIO_Pin) != (uint32_t)GPIO_PIN_RESET)
 8003d34:	6880      	ldr	r0, [r0, #8]
 8003d36:	4008      	ands	r0, r1
  else
  {
    bitstatus = GPIO_PIN_RESET;
  }
  return bitstatus;
}
 8003d38:	3800      	subs	r0, #0
 8003d3a:	bf18      	it	ne
 8003d3c:	2001      	movne	r0, #1
 8003d3e:	4770      	bx	lr

08003d40 <HAL_GPIO_WritePin>:
{
  /* Check the parameters */
  assert_param(IS_GPIO_PIN(GPIO_Pin));
  assert_param(IS_GPIO_PIN_ACTION(PinState));

  if (PinState != GPIO_PIN_RESET)
 8003d40:	b10a      	cbz	r2, 8003d46 <HAL_GPIO_WritePin+0x6>
  {
    GPIOx->BSRR = GPIO_Pin;
  }
  else
  {
    GPIOx->BSRR = (uint32_t)GPIO_Pin << 16u;
 8003d42:	6101      	str	r1, [r0, #16]
  }
}
 8003d44:	4770      	bx	lr
    GPIOx->BSRR = (uint32_t)GPIO_Pin << 16u;
 8003d46:	0409      	lsls	r1, r1, #16
 8003d48:	e7fb      	b.n	8003d42 <HAL_GPIO_WritePin+0x2>

08003d4a <I2C_IsAcknowledgeFailed>:
  *                the configuration information for the specified I2C.
  * @retval HAL status
  */
static HAL_StatusTypeDef I2C_IsAcknowledgeFailed(I2C_HandleTypeDef *hi2c)
{
  if (__HAL_I2C_GET_FLAG(hi2c, I2C_FLAG_AF) == SET)
 8003d4a:	6801      	ldr	r1, [r0, #0]
 8003d4c:	2200      	movs	r2, #0
 8003d4e:	694b      	ldr	r3, [r1, #20]
 8003d50:	f413 6380 	ands.w	r3, r3, #1024	@ 0x400
 8003d54:	d010      	beq.n	8003d78 <I2C_IsAcknowledgeFailed+0x2e>
  {
    /* Clear NACKF Flag */
    __HAL_I2C_CLEAR_FLAG(hi2c, I2C_FLAG_AF);
 8003d56:	f46f 6380 	mvn.w	r3, #1024	@ 0x400
 8003d5a:	614b      	str	r3, [r1, #20]

    hi2c->PreviousState       = I2C_STATE_NONE;
    hi2c->State               = HAL_I2C_STATE_READY;
 8003d5c:	2320      	movs	r3, #32
    hi2c->PreviousState       = I2C_STATE_NONE;
 8003d5e:	6302      	str	r2, [r0, #48]	@ 0x30
    hi2c->State               = HAL_I2C_STATE_READY;
 8003d60:	f880 303d 	strb.w	r3, [r0, #61]	@ 0x3d
    hi2c->Mode                = HAL_I2C_MODE_NONE;
 8003d64:	f880 203e 	strb.w	r2, [r0, #62]	@ 0x3e
    hi2c->ErrorCode           |= HAL_I2C_ERROR_AF;
 8003d68:	6c03      	ldr	r3, [r0, #64]	@ 0x40

    /* Process Unlocked */
    __HAL_UNLOCK(hi2c);
 8003d6a:	f880 203c 	strb.w	r2, [r0, #60]	@ 0x3c
    hi2c->ErrorCode           |= HAL_I2C_ERROR_AF;
 8003d6e:	f043 0304 	orr.w	r3, r3, #4
 8003d72:	6403      	str	r3, [r0, #64]	@ 0x40

    return HAL_ERROR;
 8003d74:	2001      	movs	r0, #1
 8003d76:	4770      	bx	lr
  }
  return HAL_OK;
 8003d78:	4618      	mov	r0, r3
}
 8003d7a:	4770      	bx	lr

08003d7c <I2C_WaitOnFlagUntilTimeout>:
{
 8003d7c:	e92d 46f8 	stmdb	sp!, {r3, r4, r5, r6, r7, r9, sl, lr}
 8003d80:	4606      	mov	r6, r0
 8003d82:	460f      	mov	r7, r1
 8003d84:	4691      	mov	r9, r2
 8003d86:	461d      	mov	r5, r3
  while (__HAL_I2C_GET_FLAG(hi2c, Flag) == Status)
 8003d88:	ea4f 4a11 	mov.w	sl, r1, lsr #16
 8003d8c:	6833      	ldr	r3, [r6, #0]
 8003d8e:	f1ba 0f01 	cmp.w	sl, #1
 8003d92:	d139      	bne.n	8003e08 <I2C_WaitOnFlagUntilTimeout+0x8c>
 8003d94:	695c      	ldr	r4, [r3, #20]
 8003d96:	ea27 0404 	bic.w	r4, r7, r4
 8003d9a:	b2a4      	uxth	r4, r4
 8003d9c:	fab4 f484 	clz	r4, r4
 8003da0:	0964      	lsrs	r4, r4, #5
 8003da2:	45a1      	cmp	r9, r4
 8003da4:	d001      	beq.n	8003daa <I2C_WaitOnFlagUntilTimeout+0x2e>
  return HAL_OK;
 8003da6:	2000      	movs	r0, #0
 8003da8:	e024      	b.n	8003df4 <I2C_WaitOnFlagUntilTimeout+0x78>
    if (Timeout != HAL_MAX_DELAY)
 8003daa:	1c6a      	adds	r2, r5, #1
 8003dac:	d0ef      	beq.n	8003d8e <I2C_WaitOnFlagUntilTimeout+0x12>
      if (((HAL_GetTick() - Tickstart) > Timeout) || (Timeout == 0U))
 8003dae:	f7ff fa6d 	bl	800328c <HAL_GetTick>
 8003db2:	9b08      	ldr	r3, [sp, #32]
 8003db4:	1ac0      	subs	r0, r0, r3
 8003db6:	42a8      	cmp	r0, r5
 8003db8:	d801      	bhi.n	8003dbe <I2C_WaitOnFlagUntilTimeout+0x42>
 8003dba:	2d00      	cmp	r5, #0
 8003dbc:	d1e6      	bne.n	8003d8c <I2C_WaitOnFlagUntilTimeout+0x10>
        if ((__HAL_I2C_GET_FLAG(hi2c, Flag) == Status))
 8003dbe:	f1ba 0f01 	cmp.w	sl, #1
 8003dc2:	6833      	ldr	r3, [r6, #0]
 8003dc4:	d118      	bne.n	8003df8 <I2C_WaitOnFlagUntilTimeout+0x7c>
 8003dc6:	695b      	ldr	r3, [r3, #20]
 8003dc8:	ea27 0303 	bic.w	r3, r7, r3
 8003dcc:	b29b      	uxth	r3, r3
 8003dce:	fab3 f383 	clz	r3, r3
 8003dd2:	095b      	lsrs	r3, r3, #5
 8003dd4:	4599      	cmp	r9, r3
 8003dd6:	d1d9      	bne.n	8003d8c <I2C_WaitOnFlagUntilTimeout+0x10>
          hi2c->PreviousState     = I2C_STATE_NONE;
 8003dd8:	2300      	movs	r3, #0
          hi2c->State             = HAL_I2C_STATE_READY;
 8003dda:	2220      	movs	r2, #32
          return HAL_ERROR;
 8003ddc:	2001      	movs	r0, #1
          hi2c->PreviousState     = I2C_STATE_NONE;
 8003dde:	6333      	str	r3, [r6, #48]	@ 0x30
          hi2c->State             = HAL_I2C_STATE_READY;
 8003de0:	f886 203d 	strb.w	r2, [r6, #61]	@ 0x3d
          hi2c->Mode              = HAL_I2C_MODE_NONE;
 8003de4:	f886 303e 	strb.w	r3, [r6, #62]	@ 0x3e
          hi2c->ErrorCode         |= HAL_I2C_ERROR_TIMEOUT;
 8003de8:	6c32      	ldr	r2, [r6, #64]	@ 0x40
          __HAL_UNLOCK(hi2c);
 8003dea:	f886 303c 	strb.w	r3, [r6, #60]	@ 0x3c
          hi2c->ErrorCode         |= HAL_I2C_ERROR_TIMEOUT;
 8003dee:	f042 0220 	orr.w	r2, r2, #32
 8003df2:	6432      	str	r2, [r6, #64]	@ 0x40
}
 8003df4:	e8bd 86f8 	ldmia.w	sp!, {r3, r4, r5, r6, r7, r9, sl, pc}
        if ((__HAL_I2C_GET_FLAG(hi2c, Flag) == Status))
 8003df8:	699b      	ldr	r3, [r3, #24]
 8003dfa:	43db      	mvns	r3, r3
 8003dfc:	f3c3 0340 	ubfx	r3, r3, #1, #1
 8003e00:	f083 0301 	eor.w	r3, r3, #1
 8003e04:	b2db      	uxtb	r3, r3
 8003e06:	e7e5      	b.n	8003dd4 <I2C_WaitOnFlagUntilTimeout+0x58>
  while (__HAL_I2C_GET_FLAG(hi2c, Flag) == Status)
 8003e08:	699c      	ldr	r4, [r3, #24]
 8003e0a:	43e4      	mvns	r4, r4
 8003e0c:	f3c4 0440 	ubfx	r4, r4, #1, #1
 8003e10:	f084 0401 	eor.w	r4, r4, #1
 8003e14:	b2e4      	uxtb	r4, r4
 8003e16:	e7c4      	b.n	8003da2 <I2C_WaitOnFlagUntilTimeout+0x26>

08003e18 <I2C_WaitOnMasterAddressFlagUntilTimeout>:
{
 8003e18:	e92d 41f0 	stmdb	sp!, {r4, r5, r6, r7, r8, lr}
 8003e1c:	4604      	mov	r4, r0
 8003e1e:	460f      	mov	r7, r1
 8003e20:	4616      	mov	r6, r2
 8003e22:	4698      	mov	r8, r3
  while (__HAL_I2C_GET_FLAG(hi2c, Flag) == RESET)
 8003e24:	6825      	ldr	r5, [r4, #0]
 8003e26:	6968      	ldr	r0, [r5, #20]
 8003e28:	ea27 0000 	bic.w	r0, r7, r0
 8003e2c:	b280      	uxth	r0, r0
 8003e2e:	b1c0      	cbz	r0, 8003e62 <I2C_WaitOnMasterAddressFlagUntilTimeout+0x4a>
    if (__HAL_I2C_GET_FLAG(hi2c, I2C_FLAG_AF) == SET)
 8003e30:	696b      	ldr	r3, [r5, #20]
 8003e32:	055a      	lsls	r2, r3, #21
 8003e34:	d517      	bpl.n	8003e66 <I2C_WaitOnMasterAddressFlagUntilTimeout+0x4e>
      SET_BIT(hi2c->Instance->CR1, I2C_CR1_STOP);
 8003e36:	682b      	ldr	r3, [r5, #0]
      hi2c->State               = HAL_I2C_STATE_READY;
 8003e38:	2220      	movs	r2, #32
      SET_BIT(hi2c->Instance->CR1, I2C_CR1_STOP);
 8003e3a:	f443 7300 	orr.w	r3, r3, #512	@ 0x200
 8003e3e:	602b      	str	r3, [r5, #0]
      __HAL_I2C_CLEAR_FLAG(hi2c, I2C_FLAG_AF);
 8003e40:	f46f 6380 	mvn.w	r3, #1024	@ 0x400
 8003e44:	616b      	str	r3, [r5, #20]
      hi2c->PreviousState       = I2C_STATE_NONE;
 8003e46:	2300      	movs	r3, #0
 8003e48:	6323      	str	r3, [r4, #48]	@ 0x30
      hi2c->State               = HAL_I2C_STATE_READY;
 8003e4a:	f884 203d 	strb.w	r2, [r4, #61]	@ 0x3d
      hi2c->Mode                = HAL_I2C_MODE_NONE;
 8003e4e:	f884 303e 	strb.w	r3, [r4, #62]	@ 0x3e
      hi2c->ErrorCode           |= HAL_I2C_ERROR_AF;
 8003e52:	6c23      	ldr	r3, [r4, #64]	@ 0x40
 8003e54:	f043 0304 	orr.w	r3, r3, #4
          hi2c->ErrorCode           |= HAL_I2C_ERROR_TIMEOUT;
 8003e58:	6423      	str	r3, [r4, #64]	@ 0x40
          __HAL_UNLOCK(hi2c);
 8003e5a:	2300      	movs	r3, #0
      return HAL_ERROR;
 8003e5c:	2001      	movs	r0, #1
          __HAL_UNLOCK(hi2c);
 8003e5e:	f884 303c 	strb.w	r3, [r4, #60]	@ 0x3c
}
 8003e62:	e8bd 81f0 	ldmia.w	sp!, {r4, r5, r6, r7, r8, pc}
    if (Timeout != HAL_MAX_DELAY)
 8003e66:	1c73      	adds	r3, r6, #1
 8003e68:	d0dd      	beq.n	8003e26 <I2C_WaitOnMasterAddressFlagUntilTimeout+0xe>
      if (((HAL_GetTick() - Tickstart) > Timeout) || (Timeout == 0U))
 8003e6a:	f7ff fa0f 	bl	800328c <HAL_GetTick>
 8003e6e:	eba0 0008 	sub.w	r0, r0, r8
 8003e72:	42b0      	cmp	r0, r6
 8003e74:	d801      	bhi.n	8003e7a <I2C_WaitOnMasterAddressFlagUntilTimeout+0x62>
 8003e76:	2e00      	cmp	r6, #0
 8003e78:	d1d4      	bne.n	8003e24 <I2C_WaitOnMasterAddressFlagUntilTimeout+0xc>
        if ((__HAL_I2C_GET_FLAG(hi2c, Flag) == RESET))
 8003e7a:	6823      	ldr	r3, [r4, #0]
 8003e7c:	695a      	ldr	r2, [r3, #20]
 8003e7e:	ea27 0202 	bic.w	r2, r7, r2
 8003e82:	b292      	uxth	r2, r2
 8003e84:	2a00      	cmp	r2, #0
 8003e86:	d0cd      	beq.n	8003e24 <I2C_WaitOnMasterAddressFlagUntilTimeout+0xc>
          hi2c->PreviousState       = I2C_STATE_NONE;
 8003e88:	2300      	movs	r3, #0
          hi2c->State               = HAL_I2C_STATE_READY;
 8003e8a:	2220      	movs	r2, #32
          hi2c->PreviousState       = I2C_STATE_NONE;
 8003e8c:	6323      	str	r3, [r4, #48]	@ 0x30
          hi2c->State               = HAL_I2C_STATE_READY;
 8003e8e:	f884 203d 	strb.w	r2, [r4, #61]	@ 0x3d
          hi2c->Mode                = HAL_I2C_MODE_NONE;
 8003e92:	f884 303e 	strb.w	r3, [r4, #62]	@ 0x3e
          hi2c->ErrorCode           |= HAL_I2C_ERROR_TIMEOUT;
 8003e96:	6c23      	ldr	r3, [r4, #64]	@ 0x40
 8003e98:	4313      	orrs	r3, r2
 8003e9a:	e7dd      	b.n	8003e58 <I2C_WaitOnMasterAddressFlagUntilTimeout+0x40>

08003e9c <I2C_WaitOnTXEFlagUntilTimeout>:
{
 8003e9c:	b570      	push	{r4, r5, r6, lr}
 8003e9e:	4604      	mov	r4, r0
 8003ea0:	460d      	mov	r5, r1
 8003ea2:	4616      	mov	r6, r2
  while (__HAL_I2C_GET_FLAG(hi2c, I2C_FLAG_TXE) == RESET)
 8003ea4:	6823      	ldr	r3, [r4, #0]
 8003ea6:	695b      	ldr	r3, [r3, #20]
 8003ea8:	061b      	lsls	r3, r3, #24
 8003eaa:	d501      	bpl.n	8003eb0 <I2C_WaitOnTXEFlagUntilTimeout+0x14>
  return HAL_OK;
 8003eac:	2000      	movs	r0, #0
 8003eae:	e01e      	b.n	8003eee <I2C_WaitOnTXEFlagUntilTimeout+0x52>
    if (I2C_IsAcknowledgeFailed(hi2c) != HAL_OK)
 8003eb0:	4620      	mov	r0, r4
 8003eb2:	f7ff ff4a 	bl	8003d4a <I2C_IsAcknowledgeFailed>
 8003eb6:	b9c8      	cbnz	r0, 8003eec <I2C_WaitOnTXEFlagUntilTimeout+0x50>
    if (Timeout != HAL_MAX_DELAY)
 8003eb8:	1c6a      	adds	r2, r5, #1
 8003eba:	d0f3      	beq.n	8003ea4 <I2C_WaitOnTXEFlagUntilTimeout+0x8>
      if (((HAL_GetTick() - Tickstart) > Timeout) || (Timeout == 0U))
 8003ebc:	f7ff f9e6 	bl	800328c <HAL_GetTick>
 8003ec0:	1b80      	subs	r0, r0, r6
 8003ec2:	42a8      	cmp	r0, r5
 8003ec4:	d801      	bhi.n	8003eca <I2C_WaitOnTXEFlagUntilTimeout+0x2e>
 8003ec6:	2d00      	cmp	r5, #0
 8003ec8:	d1ec      	bne.n	8003ea4 <I2C_WaitOnTXEFlagUntilTimeout+0x8>
        if ((__HAL_I2C_GET_FLAG(hi2c, I2C_FLAG_TXE) == RESET))
 8003eca:	6823      	ldr	r3, [r4, #0]
 8003ecc:	695b      	ldr	r3, [r3, #20]
 8003ece:	f013 0380 	ands.w	r3, r3, #128	@ 0x80
 8003ed2:	d1e7      	bne.n	8003ea4 <I2C_WaitOnTXEFlagUntilTimeout+0x8>
          hi2c->State               = HAL_I2C_STATE_READY;
 8003ed4:	2220      	movs	r2, #32
          hi2c->PreviousState       = I2C_STATE_NONE;
 8003ed6:	6323      	str	r3, [r4, #48]	@ 0x30
          hi2c->State               = HAL_I2C_STATE_READY;
 8003ed8:	f884 203d 	strb.w	r2, [r4, #61]	@ 0x3d
          hi2c->Mode                = HAL_I2C_MODE_NONE;
 8003edc:	f884 303e 	strb.w	r3, [r4, #62]	@ 0x3e
          hi2c->ErrorCode           |= HAL_I2C_ERROR_TIMEOUT;
 8003ee0:	6c22      	ldr	r2, [r4, #64]	@ 0x40
          __HAL_UNLOCK(hi2c);
 8003ee2:	f884 303c 	strb.w	r3, [r4, #60]	@ 0x3c
          hi2c->ErrorCode           |= HAL_I2C_ERROR_TIMEOUT;
 8003ee6:	f042 0220 	orr.w	r2, r2, #32
 8003eea:	6422      	str	r2, [r4, #64]	@ 0x40
      return HAL_ERROR;
 8003eec:	2001      	movs	r0, #1
}
 8003eee:	bd70      	pop	{r4, r5, r6, pc}

08003ef0 <I2C_RequestMemoryWrite>:
{
 8003ef0:	e92d 43f0 	stmdb	sp!, {r4, r5, r6, r7, r8, r9, lr}
 8003ef4:	4615      	mov	r5, r2
  SET_BIT(hi2c->Instance->CR1, I2C_CR1_START);
 8003ef6:	6802      	ldr	r2, [r0, #0]
{
 8003ef8:	4699      	mov	r9, r3
  SET_BIT(hi2c->Instance->CR1, I2C_CR1_START);
 8003efa:	6813      	ldr	r3, [r2, #0]
{
 8003efc:	b085      	sub	sp, #20
  SET_BIT(hi2c->Instance->CR1, I2C_CR1_START);
 8003efe:	f443 7380 	orr.w	r3, r3, #256	@ 0x100
 8003f02:	6013      	str	r3, [r2, #0]
{
 8003f04:	e9dd 780c 	ldrd	r7, r8, [sp, #48]	@ 0x30
 8003f08:	460e      	mov	r6, r1
  if (I2C_WaitOnFlagUntilTimeout(hi2c, I2C_FLAG_SB, RESET, Timeout, Tickstart) != HAL_OK)
 8003f0a:	463b      	mov	r3, r7
 8003f0c:	2200      	movs	r2, #0
 8003f0e:	f04f 1101 	mov.w	r1, #65537	@ 0x10001
 8003f12:	f8cd 8000 	str.w	r8, [sp]
{
 8003f16:	4604      	mov	r4, r0
  if (I2C_WaitOnFlagUntilTimeout(hi2c, I2C_FLAG_SB, RESET, Timeout, Tickstart) != HAL_OK)
 8003f18:	f7ff ff30 	bl	8003d7c <I2C_WaitOnFlagUntilTimeout>
    if (READ_BIT(hi2c->Instance->CR1, I2C_CR1_START) == I2C_CR1_START)
 8003f1c:	6823      	ldr	r3, [r4, #0]
  if (I2C_WaitOnFlagUntilTimeout(hi2c, I2C_FLAG_SB, RESET, Timeout, Tickstart) != HAL_OK)
 8003f1e:	b138      	cbz	r0, 8003f30 <I2C_RequestMemoryWrite+0x40>
    if (READ_BIT(hi2c->Instance->CR1, I2C_CR1_START) == I2C_CR1_START)
 8003f20:	681b      	ldr	r3, [r3, #0]
 8003f22:	05db      	lsls	r3, r3, #23
 8003f24:	d502      	bpl.n	8003f2c <I2C_RequestMemoryWrite+0x3c>
      hi2c->ErrorCode = HAL_I2C_WRONG_START;
 8003f26:	f44f 7300 	mov.w	r3, #512	@ 0x200
 8003f2a:	6423      	str	r3, [r4, #64]	@ 0x40
    return HAL_TIMEOUT;
 8003f2c:	2603      	movs	r6, #3
 8003f2e:	e020      	b.n	8003f72 <I2C_RequestMemoryWrite+0x82>
  hi2c->Instance->DR = I2C_7BIT_ADD_WRITE(DevAddress);
 8003f30:	f006 06fe 	and.w	r6, r6, #254	@ 0xfe
 8003f34:	611e      	str	r6, [r3, #16]
  if (I2C_WaitOnMasterAddressFlagUntilTimeout(hi2c, I2C_FLAG_ADDR, Timeout, Tickstart) != HAL_OK)
 8003f36:	463a      	mov	r2, r7
 8003f38:	4643      	mov	r3, r8
 8003f3a:	4620      	mov	r0, r4
 8003f3c:	4918      	ldr	r1, [pc, #96]	@ (8003fa0 <I2C_RequestMemoryWrite+0xb0>)
 8003f3e:	f7ff ff6b 	bl	8003e18 <I2C_WaitOnMasterAddressFlagUntilTimeout>
 8003f42:	b9a8      	cbnz	r0, 8003f70 <I2C_RequestMemoryWrite+0x80>
  __HAL_I2C_CLEAR_ADDRFLAG(hi2c);
 8003f44:	6823      	ldr	r3, [r4, #0]
 8003f46:	9003      	str	r0, [sp, #12]
 8003f48:	695a      	ldr	r2, [r3, #20]
  if (I2C_WaitOnTXEFlagUntilTimeout(hi2c, Timeout, Tickstart) != HAL_OK)
 8003f4a:	4639      	mov	r1, r7
  __HAL_I2C_CLEAR_ADDRFLAG(hi2c);
 8003f4c:	9203      	str	r2, [sp, #12]
 8003f4e:	699b      	ldr	r3, [r3, #24]
  if (I2C_WaitOnTXEFlagUntilTimeout(hi2c, Timeout, Tickstart) != HAL_OK)
 8003f50:	4642      	mov	r2, r8
  __HAL_I2C_CLEAR_ADDRFLAG(hi2c);
 8003f52:	9303      	str	r3, [sp, #12]
  if (I2C_WaitOnTXEFlagUntilTimeout(hi2c, Timeout, Tickstart) != HAL_OK)
 8003f54:	4620      	mov	r0, r4
  __HAL_I2C_CLEAR_ADDRFLAG(hi2c);
 8003f56:	9b03      	ldr	r3, [sp, #12]
  if (I2C_WaitOnTXEFlagUntilTimeout(hi2c, Timeout, Tickstart) != HAL_OK)
 8003f58:	f7ff ffa0 	bl	8003e9c <I2C_WaitOnTXEFlagUntilTimeout>
 8003f5c:	4606      	mov	r6, r0
 8003f5e:	b160      	cbz	r0, 8003f7a <I2C_RequestMemoryWrite+0x8a>
    if (hi2c->ErrorCode == HAL_I2C_ERROR_AF)
 8003f60:	6c23      	ldr	r3, [r4, #64]	@ 0x40
 8003f62:	2b04      	cmp	r3, #4
      SET_BIT(hi2c->Instance->CR1, I2C_CR1_STOP);
 8003f64:	bf01      	itttt	eq
 8003f66:	6822      	ldreq	r2, [r4, #0]
 8003f68:	6813      	ldreq	r3, [r2, #0]
 8003f6a:	f443 7300 	orreq.w	r3, r3, #512	@ 0x200
 8003f6e:	6013      	streq	r3, [r2, #0]
    return HAL_ERROR;
 8003f70:	2601      	movs	r6, #1
}
 8003f72:	4630      	mov	r0, r6
 8003f74:	b005      	add	sp, #20
 8003f76:	e8bd 83f0 	ldmia.w	sp!, {r4, r5, r6, r7, r8, r9, pc}
  if (MemAddSize == I2C_MEMADD_SIZE_8BIT)
 8003f7a:	f1b9 0f01 	cmp.w	r9, #1
      SET_BIT(hi2c->Instance->CR1, I2C_CR1_STOP);
 8003f7e:	6823      	ldr	r3, [r4, #0]
  if (MemAddSize == I2C_MEMADD_SIZE_8BIT)
 8003f80:	d102      	bne.n	8003f88 <I2C_RequestMemoryWrite+0x98>
    hi2c->Instance->DR = I2C_MEM_ADD_LSB(MemAddress);
 8003f82:	b2ed      	uxtb	r5, r5
 8003f84:	611d      	str	r5, [r3, #16]
 8003f86:	e7f4      	b.n	8003f72 <I2C_RequestMemoryWrite+0x82>
    hi2c->Instance->DR = I2C_MEM_ADD_MSB(MemAddress);
 8003f88:	0a2a      	lsrs	r2, r5, #8
 8003f8a:	611a      	str	r2, [r3, #16]
    if (I2C_WaitOnTXEFlagUntilTimeout(hi2c, Timeout, Tickstart) != HAL_OK)
 8003f8c:	4639      	mov	r1, r7
 8003f8e:	4642      	mov	r2, r8
 8003f90:	4620      	mov	r0, r4
 8003f92:	f7ff ff83 	bl	8003e9c <I2C_WaitOnTXEFlagUntilTimeout>
 8003f96:	2800      	cmp	r0, #0
 8003f98:	d1e2      	bne.n	8003f60 <I2C_RequestMemoryWrite+0x70>
    hi2c->Instance->DR = I2C_MEM_ADD_LSB(MemAddress);
 8003f9a:	6823      	ldr	r3, [r4, #0]
 8003f9c:	e7f1      	b.n	8003f82 <I2C_RequestMemoryWrite+0x92>
 8003f9e:	bf00      	nop
 8003fa0:	00010002 	.word	0x00010002

08003fa4 <I2C_RequestMemoryRead>:
{
 8003fa4:	e92d 47ff 	stmdb	sp!, {r0, r1, r2, r3, r4, r5, r6, r7, r8, r9, sl, lr}
 8003fa8:	469a      	mov	sl, r3
 8003faa:	e9dd 780c 	ldrd	r7, r8, [sp, #48]	@ 0x30
  SET_BIT(hi2c->Instance->CR1, I2C_CR1_ACK);
 8003fae:	6803      	ldr	r3, [r0, #0]
{
 8003fb0:	4615      	mov	r5, r2
  SET_BIT(hi2c->Instance->CR1, I2C_CR1_ACK);
 8003fb2:	681a      	ldr	r2, [r3, #0]
{
 8003fb4:	460e      	mov	r6, r1
  SET_BIT(hi2c->Instance->CR1, I2C_CR1_ACK);
 8003fb6:	f442 6280 	orr.w	r2, r2, #1024	@ 0x400
 8003fba:	601a      	str	r2, [r3, #0]
  SET_BIT(hi2c->Instance->CR1, I2C_CR1_START);
 8003fbc:	681a      	ldr	r2, [r3, #0]
  if (I2C_WaitOnFlagUntilTimeout(hi2c, I2C_FLAG_SB, RESET, Timeout, Tickstart) != HAL_OK)
 8003fbe:	f04f 1101 	mov.w	r1, #65537	@ 0x10001
  SET_BIT(hi2c->Instance->CR1, I2C_CR1_START);
 8003fc2:	f442 7280 	orr.w	r2, r2, #256	@ 0x100
 8003fc6:	601a      	str	r2, [r3, #0]
  if (I2C_WaitOnFlagUntilTimeout(hi2c, I2C_FLAG_SB, RESET, Timeout, Tickstart) != HAL_OK)
 8003fc8:	463b      	mov	r3, r7
 8003fca:	2200      	movs	r2, #0
 8003fcc:	f8cd 8000 	str.w	r8, [sp]
{
 8003fd0:	4604      	mov	r4, r0
  if (I2C_WaitOnFlagUntilTimeout(hi2c, I2C_FLAG_SB, RESET, Timeout, Tickstart) != HAL_OK)
 8003fd2:	f7ff fed3 	bl	8003d7c <I2C_WaitOnFlagUntilTimeout>
    if (READ_BIT(hi2c->Instance->CR1, I2C_CR1_START) == I2C_CR1_START)
 8003fd6:	6823      	ldr	r3, [r4, #0]
  if (I2C_WaitOnFlagUntilTimeout(hi2c, I2C_FLAG_SB, RESET, Timeout, Tickstart) != HAL_OK)
 8003fd8:	b148      	cbz	r0, 8003fee <I2C_RequestMemoryRead+0x4a>
    if (READ_BIT(hi2c->Instance->CR1, I2C_CR1_START) == I2C_CR1_START)
 8003fda:	681b      	ldr	r3, [r3, #0]
    if (READ_BIT(hi2c->Instance->CR1, I2C_CR1_START) == I2C_CR1_START)
 8003fdc:	05db      	lsls	r3, r3, #23
      hi2c->ErrorCode = HAL_I2C_WRONG_START;
 8003fde:	bf48      	it	mi
 8003fe0:	f44f 7300 	movmi.w	r3, #512	@ 0x200
    return HAL_TIMEOUT;
 8003fe4:	f04f 0003 	mov.w	r0, #3
      hi2c->ErrorCode = HAL_I2C_WRONG_START;
 8003fe8:	bf48      	it	mi
 8003fea:	6423      	strmi	r3, [r4, #64]	@ 0x40
 8003fec:	e021      	b.n	8004032 <I2C_RequestMemoryRead+0x8e>
  hi2c->Instance->DR = I2C_7BIT_ADD_WRITE(DevAddress);
 8003fee:	fa5f f986 	uxtb.w	r9, r6
 8003ff2:	f006 06fe 	and.w	r6, r6, #254	@ 0xfe
 8003ff6:	611e      	str	r6, [r3, #16]
  if (I2C_WaitOnMasterAddressFlagUntilTimeout(hi2c, I2C_FLAG_ADDR, Timeout, Tickstart) != HAL_OK)
 8003ff8:	463a      	mov	r2, r7
 8003ffa:	4643      	mov	r3, r8
 8003ffc:	4620      	mov	r0, r4
 8003ffe:	4929      	ldr	r1, [pc, #164]	@ (80040a4 <I2C_RequestMemoryRead+0x100>)
 8004000:	f7ff ff0a 	bl	8003e18 <I2C_WaitOnMasterAddressFlagUntilTimeout>
 8004004:	b9a0      	cbnz	r0, 8004030 <I2C_RequestMemoryRead+0x8c>
  __HAL_I2C_CLEAR_ADDRFLAG(hi2c);
 8004006:	6823      	ldr	r3, [r4, #0]
 8004008:	9003      	str	r0, [sp, #12]
 800400a:	695a      	ldr	r2, [r3, #20]
  if (I2C_WaitOnTXEFlagUntilTimeout(hi2c, Timeout, Tickstart) != HAL_OK)
 800400c:	4639      	mov	r1, r7
  __HAL_I2C_CLEAR_ADDRFLAG(hi2c);
 800400e:	9203      	str	r2, [sp, #12]
 8004010:	699b      	ldr	r3, [r3, #24]
  if (I2C_WaitOnTXEFlagUntilTimeout(hi2c, Timeout, Tickstart) != HAL_OK)
 8004012:	4642      	mov	r2, r8
  __HAL_I2C_CLEAR_ADDRFLAG(hi2c);
 8004014:	9303      	str	r3, [sp, #12]
  if (I2C_WaitOnTXEFlagUntilTimeout(hi2c, Timeout, Tickstart) != HAL_OK)
 8004016:	4620      	mov	r0, r4
  __HAL_I2C_CLEAR_ADDRFLAG(hi2c);
 8004018:	9b03      	ldr	r3, [sp, #12]
  if (I2C_WaitOnTXEFlagUntilTimeout(hi2c, Timeout, Tickstart) != HAL_OK)
 800401a:	f7ff ff3f 	bl	8003e9c <I2C_WaitOnTXEFlagUntilTimeout>
 800401e:	b158      	cbz	r0, 8004038 <I2C_RequestMemoryRead+0x94>
    if (hi2c->ErrorCode == HAL_I2C_ERROR_AF)
 8004020:	6c23      	ldr	r3, [r4, #64]	@ 0x40
 8004022:	2b04      	cmp	r3, #4
      SET_BIT(hi2c->Instance->CR1, I2C_CR1_STOP);
 8004024:	bf01      	itttt	eq
 8004026:	6822      	ldreq	r2, [r4, #0]
 8004028:	6813      	ldreq	r3, [r2, #0]
 800402a:	f443 7300 	orreq.w	r3, r3, #512	@ 0x200
 800402e:	6013      	streq	r3, [r2, #0]
    return HAL_ERROR;
 8004030:	2001      	movs	r0, #1
}
 8004032:	b004      	add	sp, #16
 8004034:	e8bd 87f0 	ldmia.w	sp!, {r4, r5, r6, r7, r8, r9, sl, pc}
  if (MemAddSize == I2C_MEMADD_SIZE_8BIT)
 8004038:	f1ba 0f01 	cmp.w	sl, #1
      SET_BIT(hi2c->Instance->CR1, I2C_CR1_STOP);
 800403c:	6823      	ldr	r3, [r4, #0]
  if (MemAddSize == I2C_MEMADD_SIZE_8BIT)
 800403e:	d11a      	bne.n	8004076 <I2C_RequestMemoryRead+0xd2>
    hi2c->Instance->DR = I2C_MEM_ADD_LSB(MemAddress);
 8004040:	b2ed      	uxtb	r5, r5
  if (I2C_WaitOnTXEFlagUntilTimeout(hi2c, Timeout, Tickstart) != HAL_OK)
 8004042:	4642      	mov	r2, r8
 8004044:	4639      	mov	r1, r7
 8004046:	4620      	mov	r0, r4
    hi2c->Instance->DR = I2C_MEM_ADD_LSB(MemAddress);
 8004048:	611d      	str	r5, [r3, #16]
  if (I2C_WaitOnTXEFlagUntilTimeout(hi2c, Timeout, Tickstart) != HAL_OK)
 800404a:	f7ff ff27 	bl	8003e9c <I2C_WaitOnTXEFlagUntilTimeout>
 800404e:	4602      	mov	r2, r0
 8004050:	2800      	cmp	r0, #0
 8004052:	d1e5      	bne.n	8004020 <I2C_RequestMemoryRead+0x7c>
  SET_BIT(hi2c->Instance->CR1, I2C_CR1_START);
 8004054:	6821      	ldr	r1, [r4, #0]
  if (I2C_WaitOnFlagUntilTimeout(hi2c, I2C_FLAG_SB, RESET, Timeout, Tickstart) != HAL_OK)
 8004056:	4620      	mov	r0, r4
  SET_BIT(hi2c->Instance->CR1, I2C_CR1_START);
 8004058:	680b      	ldr	r3, [r1, #0]
 800405a:	f443 7380 	orr.w	r3, r3, #256	@ 0x100
 800405e:	600b      	str	r3, [r1, #0]
  if (I2C_WaitOnFlagUntilTimeout(hi2c, I2C_FLAG_SB, RESET, Timeout, Tickstart) != HAL_OK)
 8004060:	463b      	mov	r3, r7
 8004062:	f04f 1101 	mov.w	r1, #65537	@ 0x10001
 8004066:	f8cd 8000 	str.w	r8, [sp]
 800406a:	f7ff fe87 	bl	8003d7c <I2C_WaitOnFlagUntilTimeout>
    if (READ_BIT(hi2c->Instance->CR1, I2C_CR1_START) == I2C_CR1_START)
 800406e:	6822      	ldr	r2, [r4, #0]
  if (I2C_WaitOnFlagUntilTimeout(hi2c, I2C_FLAG_SB, RESET, Timeout, Tickstart) != HAL_OK)
 8004070:	b160      	cbz	r0, 800408c <I2C_RequestMemoryRead+0xe8>
    if (READ_BIT(hi2c->Instance->CR1, I2C_CR1_START) == I2C_CR1_START)
 8004072:	6813      	ldr	r3, [r2, #0]
 8004074:	e7b2      	b.n	8003fdc <I2C_RequestMemoryRead+0x38>
    hi2c->Instance->DR = I2C_MEM_ADD_MSB(MemAddress);
 8004076:	0a2a      	lsrs	r2, r5, #8
 8004078:	611a      	str	r2, [r3, #16]
    if (I2C_WaitOnTXEFlagUntilTimeout(hi2c, Timeout, Tickstart) != HAL_OK)
 800407a:	4639      	mov	r1, r7
 800407c:	4642      	mov	r2, r8
 800407e:	4620      	mov	r0, r4
 8004080:	f7ff ff0c 	bl	8003e9c <I2C_WaitOnTXEFlagUntilTimeout>
 8004084:	2800      	cmp	r0, #0
 8004086:	d1cb      	bne.n	8004020 <I2C_RequestMemoryRead+0x7c>
    hi2c->Instance->DR = I2C_MEM_ADD_LSB(MemAddress);
 8004088:	6823      	ldr	r3, [r4, #0]
 800408a:	e7d9      	b.n	8004040 <I2C_RequestMemoryRead+0x9c>
  hi2c->Instance->DR = I2C_7BIT_ADD_READ(DevAddress);
 800408c:	f049 0301 	orr.w	r3, r9, #1
 8004090:	6113      	str	r3, [r2, #16]
  if (I2C_WaitOnMasterAddressFlagUntilTimeout(hi2c, I2C_FLAG_ADDR, Timeout, Tickstart) != HAL_OK)
 8004092:	4620      	mov	r0, r4
 8004094:	4643      	mov	r3, r8
 8004096:	463a      	mov	r2, r7
 8004098:	4902      	ldr	r1, [pc, #8]	@ (80040a4 <I2C_RequestMemoryRead+0x100>)
}
 800409a:	b004      	add	sp, #16
 800409c:	e8bd 47f0 	ldmia.w	sp!, {r4, r5, r6, r7, r8, r9, sl, lr}
  if (I2C_WaitOnMasterAddressFlagUntilTimeout(hi2c, I2C_FLAG_ADDR, Timeout, Tickstart) != HAL_OK)
 80040a0:	f7ff beba 	b.w	8003e18 <I2C_WaitOnMasterAddressFlagUntilTimeout>
 80040a4:	00010002 	.word	0x00010002

080040a8 <I2C_WaitOnBTFFlagUntilTimeout>:
{
 80040a8:	b570      	push	{r4, r5, r6, lr}
 80040aa:	4604      	mov	r4, r0
 80040ac:	460d      	mov	r5, r1
 80040ae:	4616      	mov	r6, r2
  while (__HAL_I2C_GET_FLAG(hi2c, I2C_FLAG_BTF) == RESET)
 80040b0:	6823      	ldr	r3, [r4, #0]
 80040b2:	695b      	ldr	r3, [r3, #20]
 80040b4:	075b      	lsls	r3, r3, #29
 80040b6:	d501      	bpl.n	80040bc <I2C_WaitOnBTFFlagUntilTimeout+0x14>
  return HAL_OK;
 80040b8:	2000      	movs	r0, #0
 80040ba:	e01e      	b.n	80040fa <I2C_WaitOnBTFFlagUntilTimeout+0x52>
    if (I2C_IsAcknowledgeFailed(hi2c) != HAL_OK)
 80040bc:	4620      	mov	r0, r4
 80040be:	f7ff fe44 	bl	8003d4a <I2C_IsAcknowledgeFailed>
 80040c2:	b9c8      	cbnz	r0, 80040f8 <I2C_WaitOnBTFFlagUntilTimeout+0x50>
    if (Timeout != HAL_MAX_DELAY)
 80040c4:	1c6a      	adds	r2, r5, #1
 80040c6:	d0f3      	beq.n	80040b0 <I2C_WaitOnBTFFlagUntilTimeout+0x8>
      if (((HAL_GetTick() - Tickstart) > Timeout) || (Timeout == 0U))
 80040c8:	f7ff f8e0 	bl	800328c <HAL_GetTick>
 80040cc:	1b80      	subs	r0, r0, r6
 80040ce:	42a8      	cmp	r0, r5
 80040d0:	d801      	bhi.n	80040d6 <I2C_WaitOnBTFFlagUntilTimeout+0x2e>
 80040d2:	2d00      	cmp	r5, #0
 80040d4:	d1ec      	bne.n	80040b0 <I2C_WaitOnBTFFlagUntilTimeout+0x8>
        if ((__HAL_I2C_GET_FLAG(hi2c, I2C_FLAG_BTF) == RESET))
 80040d6:	6823      	ldr	r3, [r4, #0]
 80040d8:	695b      	ldr	r3, [r3, #20]
 80040da:	f013 0304 	ands.w	r3, r3, #4
 80040de:	d1e7      	bne.n	80040b0 <I2C_WaitOnBTFFlagUntilTimeout+0x8>
          hi2c->State               = HAL_I2C_STATE_READY;
 80040e0:	2220      	movs	r2, #32
          hi2c->PreviousState       = I2C_STATE_NONE;
 80040e2:	6323      	str	r3, [r4, #48]	@ 0x30
          hi2c->State               = HAL_I2C_STATE_READY;
 80040e4:	f884 203d 	strb.w	r2, [r4, #61]	@ 0x3d
          hi2c->Mode                = HAL_I2C_MODE_NONE;
 80040e8:	f884 303e 	strb.w	r3, [r4, #62]	@ 0x3e
          hi2c->ErrorCode           |= HAL_I2C_ERROR_TIMEOUT;
 80040ec:	6c22      	ldr	r2, [r4, #64]	@ 0x40
          __HAL_UNLOCK(hi2c);
 80040ee:	f884 303c 	strb.w	r3, [r4, #60]	@ 0x3c
          hi2c->ErrorCode           |= HAL_I2C_ERROR_TIMEOUT;
 80040f2:	f042 0220 	orr.w	r2, r2, #32
 80040f6:	6422      	str	r2, [r4, #64]	@ 0x40
      return HAL_ERROR;
 80040f8:	2001      	movs	r0, #1
}
 80040fa:	bd70      	pop	{r4, r5, r6, pc}

080040fc <HAL_I2C_Init>:
{
 80040fc:	b570      	push	{r4, r5, r6, lr}
  if (hi2c == NULL)
 80040fe:	4604      	mov	r4, r0
 8004100:	b908      	cbnz	r0, 8004106 <HAL_I2C_Init+0xa>
    return HAL_ERROR;
 8004102:	2001      	movs	r0, #1
}
 8004104:	bd70      	pop	{r4, r5, r6, pc}
  if (hi2c->State == HAL_I2C_STATE_RESET)
 8004106:	f890 303d 	ldrb.w	r3, [r0, #61]	@ 0x3d
 800410a:	f003 02ff 	and.w	r2, r3, #255	@ 0xff
 800410e:	b91b      	cbnz	r3, 8004118 <HAL_I2C_Init+0x1c>
    hi2c->Lock = HAL_UNLOCKED;
 8004110:	f880 203c 	strb.w	r2, [r0, #60]	@ 0x3c
    HAL_I2C_MspInit(hi2c);
 8004114:	f7fe fd7c 	bl	8002c10 <HAL_I2C_MspInit>
  hi2c->State = HAL_I2C_STATE_BUSY;
 8004118:	2324      	movs	r3, #36	@ 0x24
 800411a:	f884 303d 	strb.w	r3, [r4, #61]	@ 0x3d
  __HAL_I2C_DISABLE(hi2c);
 800411e:	6823      	ldr	r3, [r4, #0]
 8004120:	681a      	ldr	r2, [r3, #0]
 8004122:	f022 0201 	bic.w	r2, r2, #1
 8004126:	601a      	str	r2, [r3, #0]
  hi2c->Instance->CR1 |= I2C_CR1_SWRST;
 8004128:	681a      	ldr	r2, [r3, #0]
 800412a:	f442 4200 	orr.w	r2, r2, #32768	@ 0x8000
 800412e:	601a      	str	r2, [r3, #0]
  hi2c->Instance->CR1 &= ~I2C_CR1_SWRST;
 8004130:	681a      	ldr	r2, [r3, #0]
 8004132:	f422 4200 	bic.w	r2, r2, #32768	@ 0x8000
 8004136:	601a      	str	r2, [r3, #0]
  pclk1 = HAL_RCC_GetPCLK1Freq();
 8004138:	f002 faac 	bl	8006694 <HAL_RCC_GetPCLK1Freq>
  if (I2C_MIN_PCLK_FREQ(pclk1, hi2c->Init.ClockSpeed) == 1U)
 800413c:	4b3f      	ldr	r3, [pc, #252]	@ (800423c <HAL_I2C_Init+0x140>)
 800413e:	6865      	ldr	r5, [r4, #4]
 8004140:	429d      	cmp	r5, r3
 8004142:	bf94      	ite	ls
 8004144:	4b3e      	ldrls	r3, [pc, #248]	@ (8004240 <HAL_I2C_Init+0x144>)
 8004146:	4b3f      	ldrhi	r3, [pc, #252]	@ (8004244 <HAL_I2C_Init+0x148>)
 8004148:	4298      	cmp	r0, r3
 800414a:	bf8c      	ite	hi
 800414c:	2300      	movhi	r3, #0
 800414e:	2301      	movls	r3, #1
 8004150:	2b00      	cmp	r3, #0
 8004152:	d1d6      	bne.n	8004102 <HAL_I2C_Init+0x6>
  MODIFY_REG(hi2c->Instance->TRISE, I2C_TRISE_TRISE, I2C_RISE_TIME(freqrange, hi2c->Init.ClockSpeed));
 8004154:	4e39      	ldr	r6, [pc, #228]	@ (800423c <HAL_I2C_Init+0x140>)
  freqrange = I2C_FREQRANGE(pclk1);
 8004156:	4b3c      	ldr	r3, [pc, #240]	@ (8004248 <HAL_I2C_Init+0x14c>)
  MODIFY_REG(hi2c->Instance->TRISE, I2C_TRISE_TRISE, I2C_RISE_TIME(freqrange, hi2c->Init.ClockSpeed));
 8004158:	42b5      	cmp	r5, r6
  freqrange = I2C_FREQRANGE(pclk1);
 800415a:	fbb0 f3f3 	udiv	r3, r0, r3
  MODIFY_REG(hi2c->Instance->TRISE, I2C_TRISE_TRISE, I2C_RISE_TIME(freqrange, hi2c->Init.ClockSpeed));
 800415e:	bf88      	it	hi
 8004160:	f44f 7696 	movhi.w	r6, #300	@ 0x12c
  MODIFY_REG(hi2c->Instance->CR2, I2C_CR2_FREQ, freqrange);
 8004164:	6822      	ldr	r2, [r4, #0]
 8004166:	6851      	ldr	r1, [r2, #4]
 8004168:	f021 013f 	bic.w	r1, r1, #63	@ 0x3f
 800416c:	ea41 0103 	orr.w	r1, r1, r3
  MODIFY_REG(hi2c->Instance->TRISE, I2C_TRISE_TRISE, I2C_RISE_TIME(freqrange, hi2c->Init.ClockSpeed));
 8004170:	bf82      	ittt	hi
 8004172:	4373      	mulhi	r3, r6
 8004174:	f44f 767a 	movhi.w	r6, #1000	@ 0x3e8
 8004178:	fbb3 f3f6 	udivhi	r3, r3, r6
  MODIFY_REG(hi2c->Instance->CR2, I2C_CR2_FREQ, freqrange);
 800417c:	6051      	str	r1, [r2, #4]
  MODIFY_REG(hi2c->Instance->TRISE, I2C_TRISE_TRISE, I2C_RISE_TIME(freqrange, hi2c->Init.ClockSpeed));
 800417e:	6a11      	ldr	r1, [r2, #32]
 8004180:	3301      	adds	r3, #1
 8004182:	f021 013f 	bic.w	r1, r1, #63	@ 0x3f
 8004186:	430b      	orrs	r3, r1
 8004188:	6213      	str	r3, [r2, #32]
  MODIFY_REG(hi2c->Instance->CCR, (I2C_CCR_FS | I2C_CCR_DUTY | I2C_CCR_CCR), I2C_SPEED(pclk1, hi2c->Init.ClockSpeed, hi2c->Init.DutyCycle));
 800418a:	69d1      	ldr	r1, [r2, #28]
 800418c:	1e43      	subs	r3, r0, #1
 800418e:	482b      	ldr	r0, [pc, #172]	@ (800423c <HAL_I2C_Init+0x140>)
 8004190:	f421 414f 	bic.w	r1, r1, #52992	@ 0xcf00
 8004194:	4285      	cmp	r5, r0
 8004196:	f021 01ff 	bic.w	r1, r1, #255	@ 0xff
 800419a:	d832      	bhi.n	8004202 <HAL_I2C_Init+0x106>
 800419c:	006d      	lsls	r5, r5, #1
 800419e:	fbb3 f3f5 	udiv	r3, r3, r5
 80041a2:	f640 70fc 	movw	r0, #4092	@ 0xffc
 80041a6:	3301      	adds	r3, #1
 80041a8:	4203      	tst	r3, r0
 80041aa:	d042      	beq.n	8004232 <HAL_I2C_Init+0x136>
 80041ac:	f3c3 030b 	ubfx	r3, r3, #0, #12
 80041b0:	4319      	orrs	r1, r3
 80041b2:	61d1      	str	r1, [r2, #28]
  MODIFY_REG(hi2c->Instance->CR1, (I2C_CR1_ENGC | I2C_CR1_NOSTRETCH), (hi2c->Init.GeneralCallMode | hi2c->Init.NoStretchMode));
 80041b4:	6811      	ldr	r1, [r2, #0]
 80041b6:	e9d4 3007 	ldrd	r3, r0, [r4, #28]
 80041ba:	f021 01c0 	bic.w	r1, r1, #192	@ 0xc0
 80041be:	4303      	orrs	r3, r0
 80041c0:	430b      	orrs	r3, r1
 80041c2:	6013      	str	r3, [r2, #0]
  MODIFY_REG(hi2c->Instance->OAR1, (I2C_OAR1_ADDMODE | I2C_OAR1_ADD8_9 | I2C_OAR1_ADD1_7 | I2C_OAR1_ADD0), (hi2c->Init.AddressingMode | hi2c->Init.OwnAddress1));
 80041c4:	6891      	ldr	r1, [r2, #8]
 80041c6:	e9d4 0303 	ldrd	r0, r3, [r4, #12]
 80041ca:	f421 4103 	bic.w	r1, r1, #33536	@ 0x8300
 80041ce:	4303      	orrs	r3, r0
 80041d0:	f021 01ff 	bic.w	r1, r1, #255	@ 0xff
 80041d4:	430b      	orrs	r3, r1
 80041d6:	6093      	str	r3, [r2, #8]
  MODIFY_REG(hi2c->Instance->OAR2, (I2C_OAR2_ENDUAL | I2C_OAR2_ADD2), (hi2c->Init.DualAddressMode | hi2c->Init.OwnAddress2));
 80041d8:	68d1      	ldr	r1, [r2, #12]
 80041da:	e9d4 3005 	ldrd	r3, r0, [r4, #20]
 80041de:	f021 01ff 	bic.w	r1, r1, #255	@ 0xff
 80041e2:	4303      	orrs	r3, r0
 80041e4:	430b      	orrs	r3, r1
 80041e6:	60d3      	str	r3, [r2, #12]
  __HAL_I2C_ENABLE(hi2c);
 80041e8:	6813      	ldr	r3, [r2, #0]
  hi2c->ErrorCode = HAL_I2C_ERROR_NONE;
 80041ea:	2000      	movs	r0, #0
  __HAL_I2C_ENABLE(hi2c);
 80041ec:	f043 0301 	orr.w	r3, r3, #1
 80041f0:	6013      	str	r3, [r2, #0]
  hi2c->State = HAL_I2C_STATE_READY;
 80041f2:	2320      	movs	r3, #32
  hi2c->ErrorCode = HAL_I2C_ERROR_NONE;
 80041f4:	6420      	str	r0, [r4, #64]	@ 0x40
  hi2c->State = HAL_I2C_STATE_READY;
 80041f6:	f884 303d 	strb.w	r3, [r4, #61]	@ 0x3d
  hi2c->PreviousState = I2C_STATE_NONE;
 80041fa:	6320      	str	r0, [r4, #48]	@ 0x30
  hi2c->Mode = HAL_I2C_MODE_NONE;
 80041fc:	f884 003e 	strb.w	r0, [r4, #62]	@ 0x3e
  return HAL_OK;
 8004200:	e780      	b.n	8004104 <HAL_I2C_Init+0x8>
  MODIFY_REG(hi2c->Instance->CCR, (I2C_CCR_FS | I2C_CCR_DUTY | I2C_CCR_CCR), I2C_SPEED(pclk1, hi2c->Init.ClockSpeed, hi2c->Init.DutyCycle));
 8004202:	68a0      	ldr	r0, [r4, #8]
 8004204:	b950      	cbnz	r0, 800421c <HAL_I2C_Init+0x120>
 8004206:	eb05 0545 	add.w	r5, r5, r5, lsl #1
 800420a:	fbb3 f3f5 	udiv	r3, r3, r5
 800420e:	3301      	adds	r3, #1
 8004210:	f3c3 030b 	ubfx	r3, r3, #0, #12
 8004214:	b17b      	cbz	r3, 8004236 <HAL_I2C_Init+0x13a>
 8004216:	f443 4300 	orr.w	r3, r3, #32768	@ 0x8000
 800421a:	e7c9      	b.n	80041b0 <HAL_I2C_Init+0xb4>
 800421c:	2019      	movs	r0, #25
 800421e:	4368      	muls	r0, r5
 8004220:	fbb3 f3f0 	udiv	r3, r3, r0
 8004224:	3301      	adds	r3, #1
 8004226:	f3c3 030b 	ubfx	r3, r3, #0, #12
 800422a:	b123      	cbz	r3, 8004236 <HAL_I2C_Init+0x13a>
 800422c:	f443 4340 	orr.w	r3, r3, #49152	@ 0xc000
 8004230:	e7be      	b.n	80041b0 <HAL_I2C_Init+0xb4>
 8004232:	2304      	movs	r3, #4
 8004234:	e7bc      	b.n	80041b0 <HAL_I2C_Init+0xb4>
 8004236:	2301      	movs	r3, #1
 8004238:	e7ba      	b.n	80041b0 <HAL_I2C_Init+0xb4>
 800423a:	bf00      	nop
 800423c:	000186a0 	.word	0x000186a0
 8004240:	001e847f 	.word	0x001e847f
 8004244:	003d08ff 	.word	0x003d08ff
 8004248:	000f4240 	.word	0x000f4240

0800424c <HAL_I2C_Mem_Write>:
{
 800424c:	e92d 43f7 	stmdb	sp!, {r0, r1, r2, r4, r5, r6, r7, r8, r9, lr}
 8004250:	4604      	mov	r4, r0
 8004252:	4699      	mov	r9, r3
 8004254:	460f      	mov	r7, r1
 8004256:	4690      	mov	r8, r2
 8004258:	9e0c      	ldr	r6, [sp, #48]	@ 0x30
  uint32_t tickstart = HAL_GetTick();
 800425a:	f7ff f817 	bl	800328c <HAL_GetTick>
  if (hi2c->State == HAL_I2C_STATE_READY)
 800425e:	f894 303d 	ldrb.w	r3, [r4, #61]	@ 0x3d
  uint32_t tickstart = HAL_GetTick();
 8004262:	4605      	mov	r5, r0
  if (hi2c->State == HAL_I2C_STATE_READY)
 8004264:	2b20      	cmp	r3, #32
 8004266:	d003      	beq.n	8004270 <HAL_I2C_Mem_Write+0x24>
      return HAL_BUSY;
 8004268:	2002      	movs	r0, #2
}
 800426a:	b003      	add	sp, #12
 800426c:	e8bd 83f0 	ldmia.w	sp!, {r4, r5, r6, r7, r8, r9, pc}
    if (I2C_WaitOnFlagUntilTimeout(hi2c, I2C_FLAG_BUSY, SET, I2C_TIMEOUT_BUSY_FLAG, tickstart) != HAL_OK)
 8004270:	9000      	str	r0, [sp, #0]
 8004272:	2319      	movs	r3, #25
 8004274:	2201      	movs	r2, #1
 8004276:	4620      	mov	r0, r4
 8004278:	493a      	ldr	r1, [pc, #232]	@ (8004364 <HAL_I2C_Mem_Write+0x118>)
 800427a:	f7ff fd7f 	bl	8003d7c <I2C_WaitOnFlagUntilTimeout>
 800427e:	2800      	cmp	r0, #0
 8004280:	d1f2      	bne.n	8004268 <HAL_I2C_Mem_Write+0x1c>
    __HAL_LOCK(hi2c);
 8004282:	f894 303c 	ldrb.w	r3, [r4, #60]	@ 0x3c
 8004286:	2b01      	cmp	r3, #1
 8004288:	d0ee      	beq.n	8004268 <HAL_I2C_Mem_Write+0x1c>
 800428a:	2301      	movs	r3, #1
    if ((hi2c->Instance->CR1 & I2C_CR1_PE) != I2C_CR1_PE)
 800428c:	6820      	ldr	r0, [r4, #0]
    __HAL_LOCK(hi2c);
 800428e:	f884 303c 	strb.w	r3, [r4, #60]	@ 0x3c
    if ((hi2c->Instance->CR1 & I2C_CR1_PE) != I2C_CR1_PE)
 8004292:	6803      	ldr	r3, [r0, #0]
    if (I2C_RequestMemoryWrite(hi2c, DevAddress, MemAddress, MemAddSize, Timeout, tickstart) != HAL_OK)
 8004294:	4642      	mov	r2, r8
    if ((hi2c->Instance->CR1 & I2C_CR1_PE) != I2C_CR1_PE)
 8004296:	07d9      	lsls	r1, r3, #31
      __HAL_I2C_ENABLE(hi2c);
 8004298:	bf58      	it	pl
 800429a:	6803      	ldrpl	r3, [r0, #0]
    if (I2C_RequestMemoryWrite(hi2c, DevAddress, MemAddress, MemAddSize, Timeout, tickstart) != HAL_OK)
 800429c:	4639      	mov	r1, r7
      __HAL_I2C_ENABLE(hi2c);
 800429e:	bf5c      	itt	pl
 80042a0:	f043 0301 	orrpl.w	r3, r3, #1
 80042a4:	6003      	strpl	r3, [r0, #0]
    CLEAR_BIT(hi2c->Instance->CR1, I2C_CR1_POS);
 80042a6:	6803      	ldr	r3, [r0, #0]
 80042a8:	f423 6300 	bic.w	r3, r3, #2048	@ 0x800
 80042ac:	6003      	str	r3, [r0, #0]
    hi2c->State     = HAL_I2C_STATE_BUSY_TX;
 80042ae:	2321      	movs	r3, #33	@ 0x21
 80042b0:	f884 303d 	strb.w	r3, [r4, #61]	@ 0x3d
    hi2c->Mode      = HAL_I2C_MODE_MEM;
 80042b4:	2340      	movs	r3, #64	@ 0x40
 80042b6:	f884 303e 	strb.w	r3, [r4, #62]	@ 0x3e
    hi2c->ErrorCode = HAL_I2C_ERROR_NONE;
 80042ba:	2300      	movs	r3, #0
 80042bc:	6423      	str	r3, [r4, #64]	@ 0x40
    hi2c->pBuffPtr    = pData;
 80042be:	9b0a      	ldr	r3, [sp, #40]	@ 0x28
    if (I2C_RequestMemoryWrite(hi2c, DevAddress, MemAddress, MemAddSize, Timeout, tickstart) != HAL_OK)
 80042c0:	4620      	mov	r0, r4
    hi2c->pBuffPtr    = pData;
 80042c2:	6263      	str	r3, [r4, #36]	@ 0x24
    hi2c->XferCount   = Size;
 80042c4:	f8bd 302c 	ldrh.w	r3, [sp, #44]	@ 0x2c
 80042c8:	8563      	strh	r3, [r4, #42]	@ 0x2a
    hi2c->XferSize    = hi2c->XferCount;
 80042ca:	8d63      	ldrh	r3, [r4, #42]	@ 0x2a
 80042cc:	8523      	strh	r3, [r4, #40]	@ 0x28
    hi2c->XferOptions = I2C_NO_OPTION_FRAME;
 80042ce:	4b26      	ldr	r3, [pc, #152]	@ (8004368 <HAL_I2C_Mem_Write+0x11c>)
 80042d0:	62e3      	str	r3, [r4, #44]	@ 0x2c
    if (I2C_RequestMemoryWrite(hi2c, DevAddress, MemAddress, MemAddSize, Timeout, tickstart) != HAL_OK)
 80042d2:	464b      	mov	r3, r9
 80042d4:	e9cd 6500 	strd	r6, r5, [sp]
 80042d8:	f7ff fe0a 	bl	8003ef0 <I2C_RequestMemoryWrite>
 80042dc:	2800      	cmp	r0, #0
 80042de:	d02a      	beq.n	8004336 <HAL_I2C_Mem_Write+0xea>
      return HAL_ERROR;
 80042e0:	2001      	movs	r0, #1
 80042e2:	e7c2      	b.n	800426a <HAL_I2C_Mem_Write+0x1e>
      if (I2C_WaitOnTXEFlagUntilTimeout(hi2c, Timeout, tickstart) != HAL_OK)
 80042e4:	f7ff fdda 	bl	8003e9c <I2C_WaitOnTXEFlagUntilTimeout>
 80042e8:	b140      	cbz	r0, 80042fc <HAL_I2C_Mem_Write+0xb0>
        if (hi2c->ErrorCode == HAL_I2C_ERROR_AF)
 80042ea:	6c23      	ldr	r3, [r4, #64]	@ 0x40
 80042ec:	2b04      	cmp	r3, #4
          SET_BIT(hi2c->Instance->CR1, I2C_CR1_STOP);
 80042ee:	bf01      	itttt	eq
 80042f0:	6822      	ldreq	r2, [r4, #0]
 80042f2:	6813      	ldreq	r3, [r2, #0]
 80042f4:	f443 7300 	orreq.w	r3, r3, #512	@ 0x200
 80042f8:	6013      	streq	r3, [r2, #0]
 80042fa:	e7f1      	b.n	80042e0 <HAL_I2C_Mem_Write+0x94>
      hi2c->Instance->DR = *hi2c->pBuffPtr;
 80042fc:	6a63      	ldr	r3, [r4, #36]	@ 0x24
 80042fe:	6827      	ldr	r7, [r4, #0]
 8004300:	461a      	mov	r2, r3
 8004302:	f812 1b01 	ldrb.w	r1, [r2], #1
 8004306:	6139      	str	r1, [r7, #16]
      hi2c->pBuffPtr++;
 8004308:	6262      	str	r2, [r4, #36]	@ 0x24
      hi2c->XferCount--;
 800430a:	8d62      	ldrh	r2, [r4, #42]	@ 0x2a
      hi2c->XferSize--;
 800430c:	8d21      	ldrh	r1, [r4, #40]	@ 0x28
      hi2c->XferCount--;
 800430e:	3a01      	subs	r2, #1
 8004310:	b292      	uxth	r2, r2
 8004312:	8562      	strh	r2, [r4, #42]	@ 0x2a
      if ((__HAL_I2C_GET_FLAG(hi2c, I2C_FLAG_BTF) == SET) && (hi2c->XferSize != 0U))
 8004314:	697a      	ldr	r2, [r7, #20]
      hi2c->XferSize--;
 8004316:	1e48      	subs	r0, r1, #1
 8004318:	b280      	uxth	r0, r0
      if ((__HAL_I2C_GET_FLAG(hi2c, I2C_FLAG_BTF) == SET) && (hi2c->XferSize != 0U))
 800431a:	0752      	lsls	r2, r2, #29
      hi2c->XferSize--;
 800431c:	8520      	strh	r0, [r4, #40]	@ 0x28
      if ((__HAL_I2C_GET_FLAG(hi2c, I2C_FLAG_BTF) == SET) && (hi2c->XferSize != 0U))
 800431e:	d50a      	bpl.n	8004336 <HAL_I2C_Mem_Write+0xea>
 8004320:	b148      	cbz	r0, 8004336 <HAL_I2C_Mem_Write+0xea>
        hi2c->Instance->DR = *hi2c->pBuffPtr;
 8004322:	785a      	ldrb	r2, [r3, #1]
        hi2c->pBuffPtr++;
 8004324:	3302      	adds	r3, #2
        hi2c->Instance->DR = *hi2c->pBuffPtr;
 8004326:	613a      	str	r2, [r7, #16]
        hi2c->pBuffPtr++;
 8004328:	6263      	str	r3, [r4, #36]	@ 0x24
        hi2c->XferCount--;
 800432a:	8d63      	ldrh	r3, [r4, #42]	@ 0x2a
        hi2c->XferSize--;
 800432c:	3902      	subs	r1, #2
        hi2c->XferCount--;
 800432e:	3b01      	subs	r3, #1
 8004330:	b29b      	uxth	r3, r3
        hi2c->XferSize--;
 8004332:	8521      	strh	r1, [r4, #40]	@ 0x28
        hi2c->XferCount--;
 8004334:	8563      	strh	r3, [r4, #42]	@ 0x2a
    while (hi2c->XferSize > 0U)
 8004336:	8d23      	ldrh	r3, [r4, #40]	@ 0x28
      if (I2C_WaitOnTXEFlagUntilTimeout(hi2c, Timeout, tickstart) != HAL_OK)
 8004338:	462a      	mov	r2, r5
 800433a:	4631      	mov	r1, r6
 800433c:	4620      	mov	r0, r4
    while (hi2c->XferSize > 0U)
 800433e:	2b00      	cmp	r3, #0
 8004340:	d1d0      	bne.n	80042e4 <HAL_I2C_Mem_Write+0x98>
    if (I2C_WaitOnBTFFlagUntilTimeout(hi2c, Timeout, tickstart) != HAL_OK)
 8004342:	f7ff feb1 	bl	80040a8 <I2C_WaitOnBTFFlagUntilTimeout>
 8004346:	2800      	cmp	r0, #0
 8004348:	d1cf      	bne.n	80042ea <HAL_I2C_Mem_Write+0x9e>
    SET_BIT(hi2c->Instance->CR1, I2C_CR1_STOP);
 800434a:	6822      	ldr	r2, [r4, #0]
 800434c:	6813      	ldr	r3, [r2, #0]
 800434e:	f443 7300 	orr.w	r3, r3, #512	@ 0x200
 8004352:	6013      	str	r3, [r2, #0]
    hi2c->State = HAL_I2C_STATE_READY;
 8004354:	2320      	movs	r3, #32
    __HAL_UNLOCK(hi2c);
 8004356:	f884 003c 	strb.w	r0, [r4, #60]	@ 0x3c
    hi2c->State = HAL_I2C_STATE_READY;
 800435a:	f884 303d 	strb.w	r3, [r4, #61]	@ 0x3d
    hi2c->Mode = HAL_I2C_MODE_NONE;
 800435e:	f884 003e 	strb.w	r0, [r4, #62]	@ 0x3e
    return HAL_OK;
 8004362:	e782      	b.n	800426a <HAL_I2C_Mem_Write+0x1e>
 8004364:	00100002 	.word	0x00100002
 8004368:	ffff0000 	.word	0xffff0000

0800436c <HAL_I2C_Mem_Write_DMA>:
{
 800436c:	e92d 47ff 	stmdb	sp!, {r0, r1, r2, r3, r4, r5, r6, r7, r8, r9, sl, lr}
 8004370:	4699      	mov	r9, r3
  __IO uint32_t count = 0U;
 8004372:	2300      	movs	r3, #0
{
 8004374:	4604      	mov	r4, r0
  __IO uint32_t count = 0U;
 8004376:	9302      	str	r3, [sp, #8]
{
 8004378:	460f      	mov	r7, r1
 800437a:	4690      	mov	r8, r2
 800437c:	9e0c      	ldr	r6, [sp, #48]	@ 0x30
  uint32_t tickstart = HAL_GetTick();
 800437e:	f7fe ff85 	bl	800328c <HAL_GetTick>
  if (hi2c->State == HAL_I2C_STATE_READY)
 8004382:	f894 303d 	ldrb.w	r3, [r4, #61]	@ 0x3d
  uint32_t tickstart = HAL_GetTick();
 8004386:	4682      	mov	sl, r0
  if (hi2c->State == HAL_I2C_STATE_READY)
 8004388:	2b20      	cmp	r3, #32
 800438a:	d116      	bne.n	80043ba <HAL_I2C_Mem_Write_DMA+0x4e>
    count = I2C_TIMEOUT_BUSY_FLAG * (SystemCoreClock / 25U / 1000U);
 800438c:	f246 12a8 	movw	r2, #25000	@ 0x61a8
 8004390:	4b55      	ldr	r3, [pc, #340]	@ (80044e8 <HAL_I2C_Mem_Write_DMA+0x17c>)
 8004392:	681b      	ldr	r3, [r3, #0]
 8004394:	fbb3 f3f2 	udiv	r3, r3, r2
 8004398:	2219      	movs	r2, #25
 800439a:	4353      	muls	r3, r2
 800439c:	9302      	str	r3, [sp, #8]
      count--;
 800439e:	9b02      	ldr	r3, [sp, #8]
 80043a0:	3b01      	subs	r3, #1
 80043a2:	9302      	str	r3, [sp, #8]
      if (count == 0U)
 80043a4:	9b02      	ldr	r3, [sp, #8]
 80043a6:	b953      	cbnz	r3, 80043be <HAL_I2C_Mem_Write_DMA+0x52>
        hi2c->State               = HAL_I2C_STATE_READY;
 80043a8:	2220      	movs	r2, #32
        hi2c->PreviousState       = I2C_STATE_NONE;
 80043aa:	6323      	str	r3, [r4, #48]	@ 0x30
        hi2c->State               = HAL_I2C_STATE_READY;
 80043ac:	f884 203d 	strb.w	r2, [r4, #61]	@ 0x3d
        hi2c->Mode                = HAL_I2C_MODE_NONE;
 80043b0:	f884 303e 	strb.w	r3, [r4, #62]	@ 0x3e
        hi2c->ErrorCode           |= HAL_I2C_ERROR_TIMEOUT;
 80043b4:	6c23      	ldr	r3, [r4, #64]	@ 0x40
 80043b6:	4313      	orrs	r3, r2
 80043b8:	6423      	str	r3, [r4, #64]	@ 0x40
        return HAL_BUSY;
 80043ba:	2002      	movs	r0, #2
 80043bc:	e066      	b.n	800448c <HAL_I2C_Mem_Write_DMA+0x120>
    while (__HAL_I2C_GET_FLAG(hi2c, I2C_FLAG_BUSY) != RESET);
 80043be:	6822      	ldr	r2, [r4, #0]
 80043c0:	6993      	ldr	r3, [r2, #24]
 80043c2:	0799      	lsls	r1, r3, #30
 80043c4:	d4eb      	bmi.n	800439e <HAL_I2C_Mem_Write_DMA+0x32>
    __HAL_LOCK(hi2c);
 80043c6:	f894 303c 	ldrb.w	r3, [r4, #60]	@ 0x3c
 80043ca:	2b01      	cmp	r3, #1
 80043cc:	d0f5      	beq.n	80043ba <HAL_I2C_Mem_Write_DMA+0x4e>
 80043ce:	2301      	movs	r3, #1
 80043d0:	f884 303c 	strb.w	r3, [r4, #60]	@ 0x3c
    if ((hi2c->Instance->CR1 & I2C_CR1_PE) != I2C_CR1_PE)
 80043d4:	6813      	ldr	r3, [r2, #0]
    hi2c->ErrorCode = HAL_I2C_ERROR_NONE;
 80043d6:	2500      	movs	r5, #0
    if ((hi2c->Instance->CR1 & I2C_CR1_PE) != I2C_CR1_PE)
 80043d8:	07db      	lsls	r3, r3, #31
      __HAL_I2C_ENABLE(hi2c);
 80043da:	bf58      	it	pl
 80043dc:	6813      	ldrpl	r3, [r2, #0]
    hi2c->XferOptions = I2C_NO_OPTION_FRAME;
 80043de:	4943      	ldr	r1, [pc, #268]	@ (80044ec <HAL_I2C_Mem_Write_DMA+0x180>)
      __HAL_I2C_ENABLE(hi2c);
 80043e0:	bf5c      	itt	pl
 80043e2:	f043 0301 	orrpl.w	r3, r3, #1
 80043e6:	6013      	strpl	r3, [r2, #0]
    CLEAR_BIT(hi2c->Instance->CR1, I2C_CR1_POS);
 80043e8:	6813      	ldr	r3, [r2, #0]
 80043ea:	f423 6300 	bic.w	r3, r3, #2048	@ 0x800
 80043ee:	6013      	str	r3, [r2, #0]
    hi2c->State     = HAL_I2C_STATE_BUSY_TX;
 80043f0:	2321      	movs	r3, #33	@ 0x21
 80043f2:	f884 303d 	strb.w	r3, [r4, #61]	@ 0x3d
    hi2c->Mode      = HAL_I2C_MODE_MEM;
 80043f6:	2340      	movs	r3, #64	@ 0x40
 80043f8:	f884 303e 	strb.w	r3, [r4, #62]	@ 0x3e
    hi2c->XferCount   = Size;
 80043fc:	f8bd 3034 	ldrh.w	r3, [sp, #52]	@ 0x34
    hi2c->ErrorCode = HAL_I2C_ERROR_NONE;
 8004400:	6425      	str	r5, [r4, #64]	@ 0x40
    hi2c->XferCount   = Size;
 8004402:	8563      	strh	r3, [r4, #42]	@ 0x2a
    hi2c->XferSize    = hi2c->XferCount;
 8004404:	8d63      	ldrh	r3, [r4, #42]	@ 0x2a
    hi2c->pBuffPtr    = pData;
 8004406:	6266      	str	r6, [r4, #36]	@ 0x24
    hi2c->XferSize    = hi2c->XferCount;
 8004408:	b29b      	uxth	r3, r3
    hi2c->XferOptions = I2C_NO_OPTION_FRAME;
 800440a:	62e1      	str	r1, [r4, #44]	@ 0x2c
    hi2c->XferSize    = hi2c->XferCount;
 800440c:	8523      	strh	r3, [r4, #40]	@ 0x28
    hi2c->Devaddress  = DevAddress;
 800440e:	6467      	str	r7, [r4, #68]	@ 0x44
    hi2c->Memaddress  = MemAddress;
 8004410:	f8c4 8048 	str.w	r8, [r4, #72]	@ 0x48
    hi2c->MemaddSize  = MemAddSize;
 8004414:	f8c4 904c 	str.w	r9, [r4, #76]	@ 0x4c
    hi2c->EventCount  = 0U;
 8004418:	6525      	str	r5, [r4, #80]	@ 0x50
    if (hi2c->XferSize > 0U)
 800441a:	2b00      	cmp	r3, #0
 800441c:	d057      	beq.n	80044ce <HAL_I2C_Mem_Write_DMA+0x162>
      if (hi2c->hdmatx != NULL)
 800441e:	6b60      	ldr	r0, [r4, #52]	@ 0x34
 8004420:	b340      	cbz	r0, 8004474 <HAL_I2C_Mem_Write_DMA+0x108>
        hi2c->hdmatx->XferCpltCallback = I2C_DMAXferCplt;
 8004422:	4933      	ldr	r1, [pc, #204]	@ (80044f0 <HAL_I2C_Mem_Write_DMA+0x184>)
        hi2c->hdmatx->XferAbortCallback = NULL;
 8004424:	6345      	str	r5, [r0, #52]	@ 0x34
        hi2c->hdmatx->XferCpltCallback = I2C_DMAXferCplt;
 8004426:	6281      	str	r1, [r0, #40]	@ 0x28
        hi2c->hdmatx->XferErrorCallback = I2C_DMAError;
 8004428:	4932      	ldr	r1, [pc, #200]	@ (80044f4 <HAL_I2C_Mem_Write_DMA+0x188>)
        dmaxferstatus = HAL_DMA_Start_IT(hi2c->hdmatx, (uint32_t)hi2c->pBuffPtr, (uint32_t)&hi2c->Instance->DR, hi2c->XferSize);
 800442a:	3210      	adds	r2, #16
        hi2c->hdmatx->XferHalfCpltCallback = NULL;
 800442c:	e9c0 510b 	strd	r5, r1, [r0, #44]	@ 0x2c
        dmaxferstatus = HAL_DMA_Start_IT(hi2c->hdmatx, (uint32_t)hi2c->pBuffPtr, (uint32_t)&hi2c->Instance->DR, hi2c->XferSize);
 8004430:	4631      	mov	r1, r6
 8004432:	f7ff fa71 	bl	8003918 <HAL_DMA_Start_IT>
      if (dmaxferstatus == HAL_OK)
 8004436:	4606      	mov	r6, r0
 8004438:	2800      	cmp	r0, #0
 800443a:	d13c      	bne.n	80044b6 <HAL_I2C_Mem_Write_DMA+0x14a>
        if (I2C_RequestMemoryWrite(hi2c, DevAddress, MemAddress, MemAddSize, I2C_TIMEOUT_FLAG, tickstart) != HAL_OK)
 800443c:	2323      	movs	r3, #35	@ 0x23
 800443e:	4642      	mov	r2, r8
 8004440:	9300      	str	r3, [sp, #0]
 8004442:	4639      	mov	r1, r7
 8004444:	464b      	mov	r3, r9
 8004446:	4620      	mov	r0, r4
 8004448:	f8cd a004 	str.w	sl, [sp, #4]
 800444c:	f7ff fd50 	bl	8003ef0 <I2C_RequestMemoryWrite>
 8004450:	b1f8      	cbz	r0, 8004492 <HAL_I2C_Mem_Write_DMA+0x126>
          dmaxferstatus = HAL_DMA_Abort_IT(hi2c->hdmatx);
 8004452:	6b60      	ldr	r0, [r4, #52]	@ 0x34
 8004454:	f7ff fabc 	bl	80039d0 <HAL_DMA_Abort_IT>
          hi2c->hdmatx->XferCpltCallback = NULL;
 8004458:	6b63      	ldr	r3, [r4, #52]	@ 0x34
 800445a:	629e      	str	r6, [r3, #40]	@ 0x28
          CLEAR_BIT(hi2c->Instance->CR1, I2C_CR1_ACK);
 800445c:	6823      	ldr	r3, [r4, #0]
 800445e:	681a      	ldr	r2, [r3, #0]
 8004460:	f422 6280 	bic.w	r2, r2, #1024	@ 0x400
 8004464:	601a      	str	r2, [r3, #0]
          hi2c->XferCount = 0U;
 8004466:	8566      	strh	r6, [r4, #42]	@ 0x2a
          __HAL_I2C_DISABLE(hi2c);
 8004468:	681a      	ldr	r2, [r3, #0]
          hi2c->XferSize = 0U;
 800446a:	8526      	strh	r6, [r4, #40]	@ 0x28
          __HAL_I2C_DISABLE(hi2c);
 800446c:	f022 0201 	bic.w	r2, r2, #1
 8004470:	601a      	str	r2, [r3, #0]
          return HAL_ERROR;
 8004472:	e00a      	b.n	800448a <HAL_I2C_Mem_Write_DMA+0x11e>
        hi2c->State     = HAL_I2C_STATE_READY;
 8004474:	2320      	movs	r3, #32
 8004476:	f884 303d 	strb.w	r3, [r4, #61]	@ 0x3d
        hi2c->Mode      = HAL_I2C_MODE_NONE;
 800447a:	f884 003e 	strb.w	r0, [r4, #62]	@ 0x3e
        hi2c->ErrorCode |= HAL_I2C_ERROR_DMA_PARAM;
 800447e:	6c23      	ldr	r3, [r4, #64]	@ 0x40
        __HAL_UNLOCK(hi2c);
 8004480:	f884 003c 	strb.w	r0, [r4, #60]	@ 0x3c
        hi2c->ErrorCode |= HAL_I2C_ERROR_DMA_PARAM;
 8004484:	f043 0380 	orr.w	r3, r3, #128	@ 0x80
 8004488:	6423      	str	r3, [r4, #64]	@ 0x40
        return HAL_ERROR;
 800448a:	2001      	movs	r0, #1
}
 800448c:	b004      	add	sp, #16
 800448e:	e8bd 87f0 	ldmia.w	sp!, {r4, r5, r6, r7, r8, r9, sl, pc}
        __HAL_I2C_CLEAR_ADDRFLAG(hi2c);
 8004492:	6823      	ldr	r3, [r4, #0]
 8004494:	9003      	str	r0, [sp, #12]
 8004496:	695a      	ldr	r2, [r3, #20]
 8004498:	9203      	str	r2, [sp, #12]
 800449a:	699a      	ldr	r2, [r3, #24]
        __HAL_UNLOCK(hi2c);
 800449c:	f884 003c 	strb.w	r0, [r4, #60]	@ 0x3c
        __HAL_I2C_CLEAR_ADDRFLAG(hi2c);
 80044a0:	9203      	str	r2, [sp, #12]
 80044a2:	9a03      	ldr	r2, [sp, #12]
        __HAL_I2C_ENABLE_IT(hi2c, I2C_IT_ERR);
 80044a4:	685a      	ldr	r2, [r3, #4]
 80044a6:	f442 7280 	orr.w	r2, r2, #256	@ 0x100
 80044aa:	605a      	str	r2, [r3, #4]
        SET_BIT(hi2c->Instance->CR2, I2C_CR2_DMAEN);
 80044ac:	685a      	ldr	r2, [r3, #4]
 80044ae:	f442 6200 	orr.w	r2, r2, #2048	@ 0x800
 80044b2:	605a      	str	r2, [r3, #4]
        return HAL_OK;
 80044b4:	e7ea      	b.n	800448c <HAL_I2C_Mem_Write_DMA+0x120>
        hi2c->State     = HAL_I2C_STATE_READY;
 80044b6:	2320      	movs	r3, #32
 80044b8:	f884 303d 	strb.w	r3, [r4, #61]	@ 0x3d
        hi2c->Mode      = HAL_I2C_MODE_NONE;
 80044bc:	f884 503e 	strb.w	r5, [r4, #62]	@ 0x3e
        hi2c->ErrorCode |= HAL_I2C_ERROR_DMA;
 80044c0:	6c23      	ldr	r3, [r4, #64]	@ 0x40
        __HAL_UNLOCK(hi2c);
 80044c2:	f884 503c 	strb.w	r5, [r4, #60]	@ 0x3c
        hi2c->ErrorCode |= HAL_I2C_ERROR_DMA;
 80044c6:	f043 0310 	orr.w	r3, r3, #16
 80044ca:	6423      	str	r3, [r4, #64]	@ 0x40
        return HAL_ERROR;
 80044cc:	e7dd      	b.n	800448a <HAL_I2C_Mem_Write_DMA+0x11e>
      hi2c->State     = HAL_I2C_STATE_READY;
 80044ce:	2220      	movs	r2, #32
 80044d0:	f884 203d 	strb.w	r2, [r4, #61]	@ 0x3d
      hi2c->Mode      = HAL_I2C_MODE_NONE;
 80044d4:	f884 303e 	strb.w	r3, [r4, #62]	@ 0x3e
      hi2c->ErrorCode |= HAL_I2C_ERROR_SIZE;
 80044d8:	6c22      	ldr	r2, [r4, #64]	@ 0x40
      __HAL_UNLOCK(hi2c);
 80044da:	f884 303c 	strb.w	r3, [r4, #60]	@ 0x3c
      hi2c->ErrorCode |= HAL_I2C_ERROR_SIZE;
 80044de:	f042 0240 	orr.w	r2, r2, #64	@ 0x40
 80044e2:	6422      	str	r2, [r4, #64]	@ 0x40
      return HAL_ERROR;
 80044e4:	e7d1      	b.n	800448a <HAL_I2C_Mem_Write_DMA+0x11e>
 80044e6:	bf00      	nop
 80044e8:	2000006c 	.word	0x2000006c
 80044ec:	ffff0000 	.word	0xffff0000
 80044f0:	080047c5 	.word	0x080047c5
 80044f4:	0800478b 	.word	0x0800478b

080044f8 <HAL_I2C_Mem_Read_DMA>:
{
 80044f8:	e92d 47f0 	stmdb	sp!, {r4, r5, r6, r7, r8, r9, sl, lr}
 80044fc:	b086      	sub	sp, #24
 80044fe:	4604      	mov	r4, r0
 8004500:	4698      	mov	r8, r3
 8004502:	460e      	mov	r6, r1
 8004504:	4617      	mov	r7, r2
 8004506:	f8dd a038 	ldr.w	sl, [sp, #56]	@ 0x38
  uint32_t tickstart = HAL_GetTick();
 800450a:	f7fe febf 	bl	800328c <HAL_GetTick>
  __IO uint32_t count = 0U;
 800450e:	2300      	movs	r3, #0
 8004510:	9303      	str	r3, [sp, #12]
  if (hi2c->State == HAL_I2C_STATE_READY)
 8004512:	f894 303d 	ldrb.w	r3, [r4, #61]	@ 0x3d
  uint32_t tickstart = HAL_GetTick();
 8004516:	4681      	mov	r9, r0
  if (hi2c->State == HAL_I2C_STATE_READY)
 8004518:	2b20      	cmp	r3, #32
 800451a:	d003      	beq.n	8004524 <HAL_I2C_Mem_Read_DMA+0x2c>
        return HAL_BUSY;
 800451c:	2002      	movs	r0, #2
}
 800451e:	b006      	add	sp, #24
 8004520:	e8bd 87f0 	ldmia.w	sp!, {r4, r5, r6, r7, r8, r9, sl, pc}
    count = I2C_TIMEOUT_BUSY_FLAG * (SystemCoreClock / 25U / 1000U);
 8004524:	f246 12a8 	movw	r2, #25000	@ 0x61a8
 8004528:	4b64      	ldr	r3, [pc, #400]	@ (80046bc <HAL_I2C_Mem_Read_DMA+0x1c4>)
 800452a:	681b      	ldr	r3, [r3, #0]
 800452c:	fbb3 f3f2 	udiv	r3, r3, r2
 8004530:	2219      	movs	r2, #25
 8004532:	4353      	muls	r3, r2
 8004534:	9303      	str	r3, [sp, #12]
      count--;
 8004536:	9b03      	ldr	r3, [sp, #12]
 8004538:	3b01      	subs	r3, #1
 800453a:	9303      	str	r3, [sp, #12]
      if (count == 0U)
 800453c:	9b03      	ldr	r3, [sp, #12]
 800453e:	b94b      	cbnz	r3, 8004554 <HAL_I2C_Mem_Read_DMA+0x5c>
        hi2c->State               = HAL_I2C_STATE_READY;
 8004540:	2220      	movs	r2, #32
        hi2c->PreviousState       = I2C_STATE_NONE;
 8004542:	6323      	str	r3, [r4, #48]	@ 0x30
        hi2c->State               = HAL_I2C_STATE_READY;
 8004544:	f884 203d 	strb.w	r2, [r4, #61]	@ 0x3d
        hi2c->Mode                = HAL_I2C_MODE_NONE;
 8004548:	f884 303e 	strb.w	r3, [r4, #62]	@ 0x3e
        hi2c->ErrorCode           |= HAL_I2C_ERROR_TIMEOUT;
 800454c:	6c23      	ldr	r3, [r4, #64]	@ 0x40
 800454e:	4313      	orrs	r3, r2
 8004550:	6423      	str	r3, [r4, #64]	@ 0x40
        return HAL_BUSY;
 8004552:	e7e3      	b.n	800451c <HAL_I2C_Mem_Read_DMA+0x24>
    while (__HAL_I2C_GET_FLAG(hi2c, I2C_FLAG_BUSY) != RESET);
 8004554:	6821      	ldr	r1, [r4, #0]
 8004556:	698b      	ldr	r3, [r1, #24]
 8004558:	079a      	lsls	r2, r3, #30
 800455a:	d4ec      	bmi.n	8004536 <HAL_I2C_Mem_Read_DMA+0x3e>
    __HAL_LOCK(hi2c);
 800455c:	f894 303c 	ldrb.w	r3, [r4, #60]	@ 0x3c
 8004560:	2b01      	cmp	r3, #1
 8004562:	d0db      	beq.n	800451c <HAL_I2C_Mem_Read_DMA+0x24>
 8004564:	2301      	movs	r3, #1
 8004566:	f884 303c 	strb.w	r3, [r4, #60]	@ 0x3c
    if ((hi2c->Instance->CR1 & I2C_CR1_PE) != I2C_CR1_PE)
 800456a:	680b      	ldr	r3, [r1, #0]
    hi2c->ErrorCode = HAL_I2C_ERROR_NONE;
 800456c:	2500      	movs	r5, #0
    if ((hi2c->Instance->CR1 & I2C_CR1_PE) != I2C_CR1_PE)
 800456e:	07db      	lsls	r3, r3, #31
      __HAL_I2C_ENABLE(hi2c);
 8004570:	bf58      	it	pl
 8004572:	680b      	ldrpl	r3, [r1, #0]
    hi2c->XferOptions = I2C_NO_OPTION_FRAME;
 8004574:	4a52      	ldr	r2, [pc, #328]	@ (80046c0 <HAL_I2C_Mem_Read_DMA+0x1c8>)
      __HAL_I2C_ENABLE(hi2c);
 8004576:	bf5c      	itt	pl
 8004578:	f043 0301 	orrpl.w	r3, r3, #1
 800457c:	600b      	strpl	r3, [r1, #0]
    CLEAR_BIT(hi2c->Instance->CR1, I2C_CR1_POS);
 800457e:	680b      	ldr	r3, [r1, #0]
 8004580:	f423 6300 	bic.w	r3, r3, #2048	@ 0x800
 8004584:	600b      	str	r3, [r1, #0]
    hi2c->State     = HAL_I2C_STATE_BUSY_RX;
 8004586:	2322      	movs	r3, #34	@ 0x22
 8004588:	f884 303d 	strb.w	r3, [r4, #61]	@ 0x3d
    hi2c->Mode      = HAL_I2C_MODE_MEM;
 800458c:	2340      	movs	r3, #64	@ 0x40
 800458e:	f884 303e 	strb.w	r3, [r4, #62]	@ 0x3e
    hi2c->XferCount   = Size;
 8004592:	f8bd 303c 	ldrh.w	r3, [sp, #60]	@ 0x3c
    hi2c->ErrorCode = HAL_I2C_ERROR_NONE;
 8004596:	6425      	str	r5, [r4, #64]	@ 0x40
    hi2c->XferCount   = Size;
 8004598:	8563      	strh	r3, [r4, #42]	@ 0x2a
    hi2c->XferSize    = hi2c->XferCount;
 800459a:	8d63      	ldrh	r3, [r4, #42]	@ 0x2a
    hi2c->pBuffPtr    = pData;
 800459c:	f8c4 a024 	str.w	sl, [r4, #36]	@ 0x24
    hi2c->XferSize    = hi2c->XferCount;
 80045a0:	b29b      	uxth	r3, r3
    hi2c->XferOptions = I2C_NO_OPTION_FRAME;
 80045a2:	62e2      	str	r2, [r4, #44]	@ 0x2c
    hi2c->XferSize    = hi2c->XferCount;
 80045a4:	8523      	strh	r3, [r4, #40]	@ 0x28
    hi2c->Devaddress  = DevAddress;
 80045a6:	6466      	str	r6, [r4, #68]	@ 0x44
    hi2c->Memaddress  = MemAddress;
 80045a8:	64a7      	str	r7, [r4, #72]	@ 0x48
    hi2c->MemaddSize  = MemAddSize;
 80045aa:	f8c4 804c 	str.w	r8, [r4, #76]	@ 0x4c
    hi2c->EventCount  = 0U;
 80045ae:	6525      	str	r5, [r4, #80]	@ 0x50
    if (hi2c->XferSize > 0U)
 80045b0:	2b00      	cmp	r3, #0
 80045b2:	d066      	beq.n	8004682 <HAL_I2C_Mem_Read_DMA+0x18a>
      if (hi2c->hdmarx != NULL)
 80045b4:	6ba0      	ldr	r0, [r4, #56]	@ 0x38
 80045b6:	b358      	cbz	r0, 8004610 <HAL_I2C_Mem_Read_DMA+0x118>
        hi2c->hdmarx->XferCpltCallback = I2C_DMAXferCplt;
 80045b8:	4a42      	ldr	r2, [pc, #264]	@ (80046c4 <HAL_I2C_Mem_Read_DMA+0x1cc>)
        hi2c->hdmarx->XferAbortCallback = NULL;
 80045ba:	6345      	str	r5, [r0, #52]	@ 0x34
        hi2c->hdmarx->XferCpltCallback = I2C_DMAXferCplt;
 80045bc:	6282      	str	r2, [r0, #40]	@ 0x28
        hi2c->hdmarx->XferErrorCallback = I2C_DMAError;
 80045be:	4a42      	ldr	r2, [pc, #264]	@ (80046c8 <HAL_I2C_Mem_Read_DMA+0x1d0>)
        dmaxferstatus = HAL_DMA_Start_IT(hi2c->hdmarx, (uint32_t)&hi2c->Instance->DR, (uint32_t)hi2c->pBuffPtr, hi2c->XferSize);
 80045c0:	3110      	adds	r1, #16
        hi2c->hdmarx->XferHalfCpltCallback = NULL;
 80045c2:	e9c0 520b 	strd	r5, r2, [r0, #44]	@ 0x2c
        dmaxferstatus = HAL_DMA_Start_IT(hi2c->hdmarx, (uint32_t)&hi2c->Instance->DR, (uint32_t)hi2c->pBuffPtr, hi2c->XferSize);
 80045c6:	4652      	mov	r2, sl
 80045c8:	f7ff f9a6 	bl	8003918 <HAL_DMA_Start_IT>
      if (dmaxferstatus == HAL_OK)
 80045cc:	4682      	mov	sl, r0
 80045ce:	2800      	cmp	r0, #0
 80045d0:	d14b      	bne.n	800466a <HAL_I2C_Mem_Read_DMA+0x172>
        if (I2C_RequestMemoryRead(hi2c, DevAddress, MemAddress, MemAddSize, I2C_TIMEOUT_FLAG, tickstart) != HAL_OK)
 80045d2:	2323      	movs	r3, #35	@ 0x23
 80045d4:	463a      	mov	r2, r7
 80045d6:	9300      	str	r3, [sp, #0]
 80045d8:	4631      	mov	r1, r6
 80045da:	4643      	mov	r3, r8
 80045dc:	4620      	mov	r0, r4
 80045de:	f8cd 9004 	str.w	r9, [sp, #4]
 80045e2:	f7ff fcdf 	bl	8003fa4 <I2C_RequestMemoryRead>
 80045e6:	b300      	cbz	r0, 800462a <HAL_I2C_Mem_Read_DMA+0x132>
          dmaxferstatus = HAL_DMA_Abort_IT(hi2c->hdmarx);
 80045e8:	6ba0      	ldr	r0, [r4, #56]	@ 0x38
 80045ea:	f7ff f9f1 	bl	80039d0 <HAL_DMA_Abort_IT>
          hi2c->hdmarx->XferCpltCallback = NULL;
 80045ee:	6ba3      	ldr	r3, [r4, #56]	@ 0x38
 80045f0:	f8c3 a028 	str.w	sl, [r3, #40]	@ 0x28
          CLEAR_BIT(hi2c->Instance->CR1, I2C_CR1_ACK);
 80045f4:	6823      	ldr	r3, [r4, #0]
 80045f6:	681a      	ldr	r2, [r3, #0]
 80045f8:	f422 6280 	bic.w	r2, r2, #1024	@ 0x400
 80045fc:	601a      	str	r2, [r3, #0]
          hi2c->XferCount = 0U;
 80045fe:	f8a4 a02a 	strh.w	sl, [r4, #42]	@ 0x2a
          __HAL_I2C_DISABLE(hi2c);
 8004602:	681a      	ldr	r2, [r3, #0]
          hi2c->XferSize = 0U;
 8004604:	f8a4 a028 	strh.w	sl, [r4, #40]	@ 0x28
          __HAL_I2C_DISABLE(hi2c);
 8004608:	f022 0201 	bic.w	r2, r2, #1
 800460c:	601a      	str	r2, [r3, #0]
          return HAL_ERROR;
 800460e:	e00a      	b.n	8004626 <HAL_I2C_Mem_Read_DMA+0x12e>
        hi2c->State     = HAL_I2C_STATE_READY;
 8004610:	2320      	movs	r3, #32
 8004612:	f884 303d 	strb.w	r3, [r4, #61]	@ 0x3d
        hi2c->Mode      = HAL_I2C_MODE_NONE;
 8004616:	f884 003e 	strb.w	r0, [r4, #62]	@ 0x3e
        hi2c->ErrorCode |= HAL_I2C_ERROR_DMA_PARAM;
 800461a:	6c23      	ldr	r3, [r4, #64]	@ 0x40
        __HAL_UNLOCK(hi2c);
 800461c:	f884 003c 	strb.w	r0, [r4, #60]	@ 0x3c
        hi2c->ErrorCode |= HAL_I2C_ERROR_DMA_PARAM;
 8004620:	f043 0380 	orr.w	r3, r3, #128	@ 0x80
 8004624:	6423      	str	r3, [r4, #64]	@ 0x40
        return HAL_ERROR;
 8004626:	2001      	movs	r0, #1
 8004628:	e779      	b.n	800451e <HAL_I2C_Mem_Read_DMA+0x26>
        if (hi2c->XferSize == 1U)
 800462a:	8d22      	ldrh	r2, [r4, #40]	@ 0x28
          CLEAR_BIT(hi2c->Instance->CR1, I2C_CR1_ACK);
 800462c:	6823      	ldr	r3, [r4, #0]
        if (hi2c->XferSize == 1U)
 800462e:	2a01      	cmp	r2, #1
          CLEAR_BIT(hi2c->Instance->CR1, I2C_CR1_ACK);
 8004630:	bf0b      	itete	eq
 8004632:	681a      	ldreq	r2, [r3, #0]
          SET_BIT(hi2c->Instance->CR2, I2C_CR2_LAST);
 8004634:	685a      	ldrne	r2, [r3, #4]
          CLEAR_BIT(hi2c->Instance->CR1, I2C_CR1_ACK);
 8004636:	f422 6280 	biceq.w	r2, r2, #1024	@ 0x400
          SET_BIT(hi2c->Instance->CR2, I2C_CR2_LAST);
 800463a:	f442 5280 	orrne.w	r2, r2, #4096	@ 0x1000
          CLEAR_BIT(hi2c->Instance->CR1, I2C_CR1_ACK);
 800463e:	bf0c      	ite	eq
 8004640:	601a      	streq	r2, [r3, #0]
          SET_BIT(hi2c->Instance->CR2, I2C_CR2_LAST);
 8004642:	605a      	strne	r2, [r3, #4]
        __HAL_I2C_CLEAR_ADDRFLAG(hi2c);
 8004644:	2200      	movs	r2, #0
 8004646:	9204      	str	r2, [sp, #16]
 8004648:	6959      	ldr	r1, [r3, #20]
 800464a:	9104      	str	r1, [sp, #16]
 800464c:	6999      	ldr	r1, [r3, #24]
        __HAL_UNLOCK(hi2c);
 800464e:	f884 203c 	strb.w	r2, [r4, #60]	@ 0x3c
        __HAL_I2C_CLEAR_ADDRFLAG(hi2c);
 8004652:	9104      	str	r1, [sp, #16]
 8004654:	9904      	ldr	r1, [sp, #16]
        __HAL_I2C_ENABLE_IT(hi2c, I2C_IT_ERR);
 8004656:	685a      	ldr	r2, [r3, #4]
 8004658:	f442 7280 	orr.w	r2, r2, #256	@ 0x100
 800465c:	605a      	str	r2, [r3, #4]
        hi2c->Instance->CR2 |= I2C_CR2_DMAEN;
 800465e:	685a      	ldr	r2, [r3, #4]
 8004660:	f442 6200 	orr.w	r2, r2, #2048	@ 0x800
 8004664:	605a      	str	r2, [r3, #4]
    return HAL_OK;
 8004666:	2000      	movs	r0, #0
 8004668:	e759      	b.n	800451e <HAL_I2C_Mem_Read_DMA+0x26>
        hi2c->State     = HAL_I2C_STATE_READY;
 800466a:	2320      	movs	r3, #32
 800466c:	f884 303d 	strb.w	r3, [r4, #61]	@ 0x3d
        hi2c->Mode      = HAL_I2C_MODE_NONE;
 8004670:	f884 503e 	strb.w	r5, [r4, #62]	@ 0x3e
        hi2c->ErrorCode |= HAL_I2C_ERROR_DMA;
 8004674:	6c23      	ldr	r3, [r4, #64]	@ 0x40
        __HAL_UNLOCK(hi2c);
 8004676:	f884 503c 	strb.w	r5, [r4, #60]	@ 0x3c
        hi2c->ErrorCode |= HAL_I2C_ERROR_DMA;
 800467a:	f043 0310 	orr.w	r3, r3, #16
 800467e:	6423      	str	r3, [r4, #64]	@ 0x40
        return HAL_ERROR;
 8004680:	e7d1      	b.n	8004626 <HAL_I2C_Mem_Read_DMA+0x12e>
      if (I2C_RequestMemoryRead(hi2c, DevAddress, MemAddress, MemAddSize, I2C_TIMEOUT_FLAG, tickstart) != HAL_OK)
 8004682:	2323      	movs	r3, #35	@ 0x23
 8004684:	463a      	mov	r2, r7
 8004686:	9300      	str	r3, [sp, #0]
 8004688:	4631      	mov	r1, r6
 800468a:	4643      	mov	r3, r8
 800468c:	4620      	mov	r0, r4
 800468e:	f8cd 9004 	str.w	r9, [sp, #4]
 8004692:	f7ff fc87 	bl	8003fa4 <I2C_RequestMemoryRead>
 8004696:	2800      	cmp	r0, #0
 8004698:	d1c5      	bne.n	8004626 <HAL_I2C_Mem_Read_DMA+0x12e>
      __HAL_I2C_CLEAR_ADDRFLAG(hi2c);
 800469a:	6823      	ldr	r3, [r4, #0]
 800469c:	9005      	str	r0, [sp, #20]
 800469e:	695a      	ldr	r2, [r3, #20]
 80046a0:	9205      	str	r2, [sp, #20]
 80046a2:	699a      	ldr	r2, [r3, #24]
 80046a4:	9205      	str	r2, [sp, #20]
 80046a6:	9a05      	ldr	r2, [sp, #20]
      SET_BIT(hi2c->Instance->CR1, I2C_CR1_STOP);
 80046a8:	681a      	ldr	r2, [r3, #0]
 80046aa:	f442 7200 	orr.w	r2, r2, #512	@ 0x200
 80046ae:	601a      	str	r2, [r3, #0]
      hi2c->State = HAL_I2C_STATE_READY;
 80046b0:	2320      	movs	r3, #32
      __HAL_UNLOCK(hi2c);
 80046b2:	f884 003c 	strb.w	r0, [r4, #60]	@ 0x3c
      hi2c->State = HAL_I2C_STATE_READY;
 80046b6:	f884 303d 	strb.w	r3, [r4, #61]	@ 0x3d
      __HAL_UNLOCK(hi2c);
 80046ba:	e7d4      	b.n	8004666 <HAL_I2C_Mem_Read_DMA+0x16e>
 80046bc:	2000006c 	.word	0x2000006c
 80046c0:	ffff0000 	.word	0xffff0000
 80046c4:	080047c5 	.word	0x080047c5
 80046c8:	0800478b 	.word	0x0800478b

080046cc <HAL_I2C_MasterTxCpltCallback>:
__weak void HAL_I2C_MasterTxCpltCallback(I2C_HandleTypeDef *hi2c)
 80046cc:	4770      	bx	lr

080046ce <HAL_I2C_MasterRxCpltCallback>:
__weak void HAL_I2C_MasterRxCpltCallback(I2C_HandleTypeDef *hi2c)
 80046ce:	4770      	bx	lr

080046d0 <HAL_I2C_SlaveTxCpltCallback>:
__weak void HAL_I2C_SlaveTxCpltCallback(I2C_HandleTypeDef *hi2c)
 80046d0:	4770      	bx	lr

080046d2 <HAL_I2C_SlaveRxCpltCallback>:
__weak void HAL_I2C_SlaveRxCpltCallback(I2C_HandleTypeDef *hi2c)
 80046d2:	4770      	bx	lr

080046d4 <HAL_I2C_AddrCallback>:
}
 80046d4:	4770      	bx	lr

080046d6 <HAL_I2C_ListenCpltCallback>:
__weak void HAL_I2C_ListenCpltCallback(I2C_HandleTypeDef *hi2c)
 80046d6:	4770      	bx	lr

080046d8 <I2C_MemoryTransmit_TXE_BTF>:
  HAL_I2C_StateTypeDef CurrentState = hi2c->State;
 80046d8:	f890 203d 	ldrb.w	r2, [r0, #61]	@ 0x3d
{
 80046dc:	b508      	push	{r3, lr}
  if (hi2c->EventCount == 0U)
 80046de:	6d03      	ldr	r3, [r0, #80]	@ 0x50
  HAL_I2C_StateTypeDef CurrentState = hi2c->State;
 80046e0:	b2d2      	uxtb	r2, r2
  if (hi2c->EventCount == 0U)
 80046e2:	b983      	cbnz	r3, 8004706 <I2C_MemoryTransmit_TXE_BTF+0x2e>
    if (hi2c->MemaddSize == I2C_MEMADD_SIZE_8BIT)
 80046e4:	6cc3      	ldr	r3, [r0, #76]	@ 0x4c
      hi2c->Instance->DR = I2C_MEM_ADD_LSB(hi2c->Memaddress);
 80046e6:	6802      	ldr	r2, [r0, #0]
    if (hi2c->MemaddSize == I2C_MEMADD_SIZE_8BIT)
 80046e8:	2b01      	cmp	r3, #1
      hi2c->Instance->DR = I2C_MEM_ADD_LSB(hi2c->Memaddress);
 80046ea:	6c83      	ldr	r3, [r0, #72]	@ 0x48
    if (hi2c->MemaddSize == I2C_MEMADD_SIZE_8BIT)
 80046ec:	d105      	bne.n	80046fa <I2C_MemoryTransmit_TXE_BTF+0x22>
      hi2c->Instance->DR = I2C_MEM_ADD_LSB(hi2c->Memaddress);
 80046ee:	b2db      	uxtb	r3, r3
 80046f0:	6113      	str	r3, [r2, #16]
      hi2c->EventCount += 2U;
 80046f2:	6d03      	ldr	r3, [r0, #80]	@ 0x50
 80046f4:	3302      	adds	r3, #2
      hi2c->EventCount++;
 80046f6:	6503      	str	r3, [r0, #80]	@ 0x50
}
 80046f8:	bd08      	pop	{r3, pc}
      hi2c->Instance->DR = I2C_MEM_ADD_MSB(hi2c->Memaddress);
 80046fa:	f3c3 2307 	ubfx	r3, r3, #8, #8
 80046fe:	6113      	str	r3, [r2, #16]
      hi2c->EventCount++;
 8004700:	6d03      	ldr	r3, [r0, #80]	@ 0x50
 8004702:	3301      	adds	r3, #1
 8004704:	e7f7      	b.n	80046f6 <I2C_MemoryTransmit_TXE_BTF+0x1e>
  else if (hi2c->EventCount == 1U)
 8004706:	6d03      	ldr	r3, [r0, #80]	@ 0x50
 8004708:	2b01      	cmp	r3, #1
 800470a:	d103      	bne.n	8004714 <I2C_MemoryTransmit_TXE_BTF+0x3c>
    hi2c->Instance->DR = I2C_MEM_ADD_LSB(hi2c->Memaddress);
 800470c:	6c83      	ldr	r3, [r0, #72]	@ 0x48
 800470e:	6802      	ldr	r2, [r0, #0]
 8004710:	b2db      	uxtb	r3, r3
 8004712:	e7f4      	b.n	80046fe <I2C_MemoryTransmit_TXE_BTF+0x26>
  else if (hi2c->EventCount == 2U)
 8004714:	6d03      	ldr	r3, [r0, #80]	@ 0x50
 8004716:	2b02      	cmp	r3, #2
 8004718:	d12f      	bne.n	800477a <I2C_MemoryTransmit_TXE_BTF+0xa2>
    if (CurrentState == HAL_I2C_STATE_BUSY_RX)
 800471a:	2a22      	cmp	r2, #34	@ 0x22
 800471c:	d105      	bne.n	800472a <I2C_MemoryTransmit_TXE_BTF+0x52>
      hi2c->Instance->CR1 |= I2C_CR1_START;
 800471e:	6802      	ldr	r2, [r0, #0]
 8004720:	6813      	ldr	r3, [r2, #0]
 8004722:	f443 7380 	orr.w	r3, r3, #256	@ 0x100
 8004726:	6013      	str	r3, [r2, #0]
      hi2c->EventCount++;
 8004728:	e7ea      	b.n	8004700 <I2C_MemoryTransmit_TXE_BTF+0x28>
    else if ((hi2c->XferCount > 0U) && (CurrentState == HAL_I2C_STATE_BUSY_TX))
 800472a:	8d43      	ldrh	r3, [r0, #42]	@ 0x2a
 800472c:	b29b      	uxth	r3, r3
 800472e:	b163      	cbz	r3, 800474a <I2C_MemoryTransmit_TXE_BTF+0x72>
 8004730:	2a21      	cmp	r2, #33	@ 0x21
 8004732:	d10a      	bne.n	800474a <I2C_MemoryTransmit_TXE_BTF+0x72>
      hi2c->Instance->DR = *hi2c->pBuffPtr;
 8004734:	6a43      	ldr	r3, [r0, #36]	@ 0x24
 8004736:	6802      	ldr	r2, [r0, #0]
 8004738:	f813 1b01 	ldrb.w	r1, [r3], #1
 800473c:	6111      	str	r1, [r2, #16]
      hi2c->pBuffPtr++;
 800473e:	6243      	str	r3, [r0, #36]	@ 0x24
      hi2c->XferCount--;
 8004740:	8d43      	ldrh	r3, [r0, #42]	@ 0x2a
 8004742:	3b01      	subs	r3, #1
 8004744:	b29b      	uxth	r3, r3
 8004746:	8543      	strh	r3, [r0, #42]	@ 0x2a
 8004748:	e7d6      	b.n	80046f8 <I2C_MemoryTransmit_TXE_BTF+0x20>
    else if ((hi2c->XferCount == 0U) && (CurrentState == HAL_I2C_STATE_BUSY_TX))
 800474a:	8d43      	ldrh	r3, [r0, #42]	@ 0x2a
 800474c:	b29b      	uxth	r3, r3
 800474e:	2b00      	cmp	r3, #0
 8004750:	d1d2      	bne.n	80046f8 <I2C_MemoryTransmit_TXE_BTF+0x20>
 8004752:	2a21      	cmp	r2, #33	@ 0x21
 8004754:	d1d0      	bne.n	80046f8 <I2C_MemoryTransmit_TXE_BTF+0x20>
      __HAL_I2C_DISABLE_IT(hi2c, I2C_IT_EVT | I2C_IT_BUF | I2C_IT_ERR);
 8004756:	6802      	ldr	r2, [r0, #0]
 8004758:	6851      	ldr	r1, [r2, #4]
 800475a:	f421 61e0 	bic.w	r1, r1, #1792	@ 0x700
 800475e:	6051      	str	r1, [r2, #4]
      SET_BIT(hi2c->Instance->CR1, I2C_CR1_STOP);
 8004760:	6811      	ldr	r1, [r2, #0]
 8004762:	f441 7100 	orr.w	r1, r1, #512	@ 0x200
 8004766:	6011      	str	r1, [r2, #0]
      hi2c->State = HAL_I2C_STATE_READY;
 8004768:	2220      	movs	r2, #32
      hi2c->PreviousState = I2C_STATE_NONE;
 800476a:	6303      	str	r3, [r0, #48]	@ 0x30
      hi2c->State = HAL_I2C_STATE_READY;
 800476c:	f880 203d 	strb.w	r2, [r0, #61]	@ 0x3d
      hi2c->Mode = HAL_I2C_MODE_NONE;
 8004770:	f880 303e 	strb.w	r3, [r0, #62]	@ 0x3e
      HAL_I2C_MemTxCpltCallback(hi2c);
 8004774:	f7fc fbde 	bl	8000f34 <HAL_I2C_MemTxCpltCallback>
 8004778:	e7be      	b.n	80046f8 <I2C_MemoryTransmit_TXE_BTF+0x20>
  if (__HAL_I2C_GET_FLAG(hi2c, I2C_FLAG_TXE) != RESET)
 800477a:	6803      	ldr	r3, [r0, #0]
 800477c:	695a      	ldr	r2, [r3, #20]
 800477e:	0612      	lsls	r2, r2, #24
    hi2c->Instance->DR = 0x00U;
 8004780:	bf44      	itt	mi
 8004782:	2200      	movmi	r2, #0
 8004784:	611a      	strmi	r2, [r3, #16]
}
 8004786:	e7b7      	b.n	80046f8 <I2C_MemoryTransmit_TXE_BTF+0x20>

08004788 <HAL_I2C_ErrorCallback>:
__weak void HAL_I2C_ErrorCallback(I2C_HandleTypeDef *hi2c)
 8004788:	4770      	bx	lr

0800478a <I2C_DMAError>:
  I2C_HandleTypeDef *hi2c = (I2C_HandleTypeDef *)((DMA_HandleTypeDef *)hdma)->Parent; /* Derogation MISRAC2012-Rule-11.5 */
 800478a:	6a40      	ldr	r0, [r0, #36]	@ 0x24
{
 800478c:	b508      	push	{r3, lr}
  if (hi2c->hdmatx != NULL)
 800478e:	6b43      	ldr	r3, [r0, #52]	@ 0x34
 8004790:	b10b      	cbz	r3, 8004796 <I2C_DMAError+0xc>
    hi2c->hdmatx->XferCpltCallback = NULL;
 8004792:	2200      	movs	r2, #0
 8004794:	629a      	str	r2, [r3, #40]	@ 0x28
  if (hi2c->hdmarx != NULL)
 8004796:	6b83      	ldr	r3, [r0, #56]	@ 0x38
 8004798:	b10b      	cbz	r3, 800479e <I2C_DMAError+0x14>
    hi2c->hdmarx->XferCpltCallback = NULL;
 800479a:	2200      	movs	r2, #0
 800479c:	629a      	str	r2, [r3, #40]	@ 0x28
  CLEAR_BIT(hi2c->Instance->CR1, I2C_CR1_ACK);
 800479e:	6802      	ldr	r2, [r0, #0]
 80047a0:	6813      	ldr	r3, [r2, #0]
 80047a2:	f423 6380 	bic.w	r3, r3, #1024	@ 0x400
 80047a6:	6013      	str	r3, [r2, #0]
  hi2c->XferCount       = 0U;
 80047a8:	2300      	movs	r3, #0
  hi2c->State           = HAL_I2C_STATE_READY;
 80047aa:	2220      	movs	r2, #32
  hi2c->XferCount       = 0U;
 80047ac:	8543      	strh	r3, [r0, #42]	@ 0x2a
  hi2c->State           = HAL_I2C_STATE_READY;
 80047ae:	f880 203d 	strb.w	r2, [r0, #61]	@ 0x3d
  hi2c->Mode            = HAL_I2C_MODE_NONE;
 80047b2:	f880 303e 	strb.w	r3, [r0, #62]	@ 0x3e
  hi2c->ErrorCode       |= HAL_I2C_ERROR_DMA;
 80047b6:	6c03      	ldr	r3, [r0, #64]	@ 0x40
 80047b8:	f043 0310 	orr.w	r3, r3, #16
 80047bc:	6403      	str	r3, [r0, #64]	@ 0x40
  HAL_I2C_ErrorCallback(hi2c);
 80047be:	f7ff ffe3 	bl	8004788 <HAL_I2C_ErrorCallback>
}
 80047c2:	bd08      	pop	{r3, pc}

080047c4 <I2C_DMAXferCplt>:
{
 80047c4:	b570      	push	{r4, r5, r6, lr}
  I2C_HandleTypeDef *hi2c = (I2C_HandleTypeDef *)((DMA_HandleTypeDef *)hdma)->Parent; /* Derogation MISRAC2012-Rule-11.5 */
 80047c6:	6a44      	ldr	r4, [r0, #36]	@ 0x24
  __HAL_I2C_DISABLE_IT(hi2c, I2C_IT_EVT | I2C_IT_ERR);
 80047c8:	6823      	ldr	r3, [r4, #0]
  HAL_I2C_StateTypeDef CurrentState = hi2c->State;
 80047ca:	f894 103d 	ldrb.w	r1, [r4, #61]	@ 0x3d
  HAL_I2C_ModeTypeDef CurrentMode   = hi2c->Mode;
 80047ce:	f894 003e 	ldrb.w	r0, [r4, #62]	@ 0x3e
  uint32_t CurrentXferOptions       = hi2c->XferOptions;
 80047d2:	6ae2      	ldr	r2, [r4, #44]	@ 0x2c
  __HAL_I2C_DISABLE_IT(hi2c, I2C_IT_EVT | I2C_IT_ERR);
 80047d4:	685d      	ldr	r5, [r3, #4]
  HAL_I2C_StateTypeDef CurrentState = hi2c->State;
 80047d6:	b2c9      	uxtb	r1, r1
  __HAL_I2C_DISABLE_IT(hi2c, I2C_IT_EVT | I2C_IT_ERR);
 80047d8:	f425 7540 	bic.w	r5, r5, #768	@ 0x300
 80047dc:	605d      	str	r5, [r3, #4]
  if (hi2c->hdmatx != NULL)
 80047de:	6b65      	ldr	r5, [r4, #52]	@ 0x34
  HAL_I2C_ModeTypeDef CurrentMode   = hi2c->Mode;
 80047e0:	b2c0      	uxtb	r0, r0
  if (hi2c->hdmatx != NULL)
 80047e2:	b10d      	cbz	r5, 80047e8 <I2C_DMAXferCplt+0x24>
    hi2c->hdmatx->XferCpltCallback = NULL;
 80047e4:	2600      	movs	r6, #0
 80047e6:	62ae      	str	r6, [r5, #40]	@ 0x28
  if (hi2c->hdmarx != NULL)
 80047e8:	6ba5      	ldr	r5, [r4, #56]	@ 0x38
 80047ea:	b10d      	cbz	r5, 80047f0 <I2C_DMAXferCplt+0x2c>
    hi2c->hdmarx->XferCpltCallback = NULL;
 80047ec:	2600      	movs	r6, #0
 80047ee:	62ae      	str	r6, [r5, #40]	@ 0x28
  if ((((uint32_t)CurrentState & (uint32_t)HAL_I2C_STATE_BUSY_TX) == (uint32_t)HAL_I2C_STATE_BUSY_TX) || ((((uint32_t)CurrentState & (uint32_t)HAL_I2C_STATE_BUSY_RX) == (uint32_t)HAL_I2C_STATE_BUSY_RX) && (CurrentMode == HAL_I2C_MODE_SLAVE)))
 80047f0:	f001 0521 	and.w	r5, r1, #33	@ 0x21
 80047f4:	2d21      	cmp	r5, #33	@ 0x21
 80047f6:	d005      	beq.n	8004804 <I2C_DMAXferCplt+0x40>
 80047f8:	f001 0522 	and.w	r5, r1, #34	@ 0x22
 80047fc:	2d22      	cmp	r5, #34	@ 0x22
 80047fe:	d123      	bne.n	8004848 <I2C_DMAXferCplt+0x84>
 8004800:	2820      	cmp	r0, #32
 8004802:	d121      	bne.n	8004848 <I2C_DMAXferCplt+0x84>
    CLEAR_BIT(hi2c->Instance->CR2, I2C_CR2_DMAEN);
 8004804:	685a      	ldr	r2, [r3, #4]
    if (CurrentState == HAL_I2C_STATE_BUSY_TX_LISTEN)
 8004806:	2929      	cmp	r1, #41	@ 0x29
    CLEAR_BIT(hi2c->Instance->CR2, I2C_CR2_DMAEN);
 8004808:	f422 6200 	bic.w	r2, r2, #2048	@ 0x800
 800480c:	605a      	str	r2, [r3, #4]
    hi2c->XferCount = 0U;
 800480e:	f04f 0300 	mov.w	r3, #0
 8004812:	8563      	strh	r3, [r4, #42]	@ 0x2a
    if (CurrentState == HAL_I2C_STATE_BUSY_TX_LISTEN)
 8004814:	d10d      	bne.n	8004832 <I2C_DMAXferCplt+0x6e>
      hi2c->PreviousState = I2C_STATE_SLAVE_BUSY_TX;
 8004816:	2321      	movs	r3, #33	@ 0x21
 8004818:	6323      	str	r3, [r4, #48]	@ 0x30
      hi2c->State = HAL_I2C_STATE_LISTEN;
 800481a:	2328      	movs	r3, #40	@ 0x28
      HAL_I2C_SlaveTxCpltCallback(hi2c);
 800481c:	4620      	mov	r0, r4
      hi2c->State = HAL_I2C_STATE_LISTEN;
 800481e:	f884 303d 	strb.w	r3, [r4, #61]	@ 0x3d
      HAL_I2C_SlaveTxCpltCallback(hi2c);
 8004822:	f7ff ff55 	bl	80046d0 <HAL_I2C_SlaveTxCpltCallback>
    __HAL_I2C_ENABLE_IT(hi2c, I2C_IT_EVT | I2C_IT_ERR);
 8004826:	6822      	ldr	r2, [r4, #0]
 8004828:	6853      	ldr	r3, [r2, #4]
 800482a:	f443 7340 	orr.w	r3, r3, #768	@ 0x300
 800482e:	6053      	str	r3, [r2, #4]
}
 8004830:	bd70      	pop	{r4, r5, r6, pc}
    else if (CurrentState == HAL_I2C_STATE_BUSY_RX_LISTEN)
 8004832:	292a      	cmp	r1, #42	@ 0x2a
 8004834:	d1f7      	bne.n	8004826 <I2C_DMAXferCplt+0x62>
      hi2c->PreviousState = I2C_STATE_SLAVE_BUSY_RX;
 8004836:	2322      	movs	r3, #34	@ 0x22
 8004838:	6323      	str	r3, [r4, #48]	@ 0x30
      hi2c->State = HAL_I2C_STATE_LISTEN;
 800483a:	2328      	movs	r3, #40	@ 0x28
      HAL_I2C_SlaveRxCpltCallback(hi2c);
 800483c:	4620      	mov	r0, r4
      hi2c->State = HAL_I2C_STATE_LISTEN;
 800483e:	f884 303d 	strb.w	r3, [r4, #61]	@ 0x3d
      HAL_I2C_SlaveRxCpltCallback(hi2c);
 8004842:	f7ff ff46 	bl	80046d2 <HAL_I2C_SlaveRxCpltCallback>
 8004846:	e7ee      	b.n	8004826 <I2C_DMAXferCplt+0x62>
  else if (hi2c->Mode != HAL_I2C_MODE_NONE)
 8004848:	f894 103e 	ldrb.w	r1, [r4, #62]	@ 0x3e
 800484c:	2900      	cmp	r1, #0
 800484e:	d0ef      	beq.n	8004830 <I2C_DMAXferCplt+0x6c>
    if (hi2c->XferCount == (uint16_t)1)
 8004850:	8d61      	ldrh	r1, [r4, #42]	@ 0x2a
 8004852:	b289      	uxth	r1, r1
 8004854:	2901      	cmp	r1, #1
      CLEAR_BIT(hi2c->Instance->CR1, I2C_CR1_ACK);
 8004856:	bf02      	ittt	eq
 8004858:	6819      	ldreq	r1, [r3, #0]
 800485a:	f421 6180 	biceq.w	r1, r1, #1024	@ 0x400
 800485e:	6019      	streq	r1, [r3, #0]
    __HAL_I2C_DISABLE_IT(hi2c, I2C_IT_EVT | I2C_IT_ERR);
 8004860:	6859      	ldr	r1, [r3, #4]
    if ((CurrentXferOptions == I2C_NO_OPTION_FRAME) || (CurrentXferOptions == I2C_FIRST_AND_LAST_FRAME) || (CurrentXferOptions == I2C_OTHER_AND_LAST_FRAME) || (CurrentXferOptions == I2C_LAST_FRAME))
 8004862:	f512 3f80 	cmn.w	r2, #65536	@ 0x10000
    __HAL_I2C_DISABLE_IT(hi2c, I2C_IT_EVT | I2C_IT_ERR);
 8004866:	f421 7140 	bic.w	r1, r1, #768	@ 0x300
 800486a:	6059      	str	r1, [r3, #4]
    if ((CurrentXferOptions == I2C_NO_OPTION_FRAME) || (CurrentXferOptions == I2C_FIRST_AND_LAST_FRAME) || (CurrentXferOptions == I2C_OTHER_AND_LAST_FRAME) || (CurrentXferOptions == I2C_LAST_FRAME))
 800486c:	d006      	beq.n	800487c <I2C_DMAXferCplt+0xb8>
 800486e:	2a08      	cmp	r2, #8
 8004870:	d004      	beq.n	800487c <I2C_DMAXferCplt+0xb8>
 8004872:	f1b2 4f2a 	cmp.w	r2, #2852126720	@ 0xaa000000
 8004876:	d001      	beq.n	800487c <I2C_DMAXferCplt+0xb8>
 8004878:	2a20      	cmp	r2, #32
 800487a:	d103      	bne.n	8004884 <I2C_DMAXferCplt+0xc0>
      SET_BIT(hi2c->Instance->CR1, I2C_CR1_STOP);
 800487c:	6819      	ldr	r1, [r3, #0]
 800487e:	f441 7100 	orr.w	r1, r1, #512	@ 0x200
 8004882:	6019      	str	r1, [r3, #0]
    CLEAR_BIT(hi2c->Instance->CR2, I2C_CR2_LAST);
 8004884:	6859      	ldr	r1, [r3, #4]
 8004886:	f421 5180 	bic.w	r1, r1, #4096	@ 0x1000
 800488a:	6059      	str	r1, [r3, #4]
    CLEAR_BIT(hi2c->Instance->CR2, I2C_CR2_DMAEN);
 800488c:	6859      	ldr	r1, [r3, #4]
 800488e:	f421 6100 	bic.w	r1, r1, #2048	@ 0x800
 8004892:	6059      	str	r1, [r3, #4]
    hi2c->XferCount = 0U;
 8004894:	2300      	movs	r3, #0
 8004896:	8563      	strh	r3, [r4, #42]	@ 0x2a
    if (hi2c->ErrorCode != HAL_I2C_ERROR_NONE)
 8004898:	6c23      	ldr	r3, [r4, #64]	@ 0x40
 800489a:	b11b      	cbz	r3, 80048a4 <I2C_DMAXferCplt+0xe0>
      HAL_I2C_ErrorCallback(hi2c);
 800489c:	4620      	mov	r0, r4
 800489e:	f7ff ff73 	bl	8004788 <HAL_I2C_ErrorCallback>
 80048a2:	e7c5      	b.n	8004830 <I2C_DMAXferCplt+0x6c>
      hi2c->State = HAL_I2C_STATE_READY;
 80048a4:	2120      	movs	r1, #32
 80048a6:	f884 103d 	strb.w	r1, [r4, #61]	@ 0x3d
      if (hi2c->Mode == HAL_I2C_MODE_MEM)
 80048aa:	f894 103e 	ldrb.w	r1, [r4, #62]	@ 0x3e
        hi2c->Mode = HAL_I2C_MODE_NONE;
 80048ae:	f884 303e 	strb.w	r3, [r4, #62]	@ 0x3e
      if (hi2c->Mode == HAL_I2C_MODE_MEM)
 80048b2:	2940      	cmp	r1, #64	@ 0x40
 80048b4:	d104      	bne.n	80048c0 <I2C_DMAXferCplt+0xfc>
        HAL_I2C_MemRxCpltCallback(hi2c);
 80048b6:	4620      	mov	r0, r4
        hi2c->PreviousState = I2C_STATE_NONE;
 80048b8:	6323      	str	r3, [r4, #48]	@ 0x30
        HAL_I2C_MemRxCpltCallback(hi2c);
 80048ba:	f7fc fb41 	bl	8000f40 <HAL_I2C_MemRxCpltCallback>
 80048be:	e7b7      	b.n	8004830 <I2C_DMAXferCplt+0x6c>
        if ((CurrentXferOptions == I2C_FIRST_AND_LAST_FRAME) || (CurrentXferOptions == I2C_LAST_FRAME))
 80048c0:	2a08      	cmp	r2, #8
 80048c2:	d001      	beq.n	80048c8 <I2C_DMAXferCplt+0x104>
 80048c4:	2a20      	cmp	r2, #32
 80048c6:	d105      	bne.n	80048d4 <I2C_DMAXferCplt+0x110>
          hi2c->PreviousState = I2C_STATE_NONE;
 80048c8:	2300      	movs	r3, #0
        HAL_I2C_MasterRxCpltCallback(hi2c);
 80048ca:	4620      	mov	r0, r4
          hi2c->PreviousState = I2C_STATE_MASTER_BUSY_RX;
 80048cc:	6323      	str	r3, [r4, #48]	@ 0x30
        HAL_I2C_MasterRxCpltCallback(hi2c);
 80048ce:	f7ff fefe 	bl	80046ce <HAL_I2C_MasterRxCpltCallback>
}
 80048d2:	e7ad      	b.n	8004830 <I2C_DMAXferCplt+0x6c>
          hi2c->PreviousState = I2C_STATE_MASTER_BUSY_RX;
 80048d4:	2312      	movs	r3, #18
 80048d6:	e7f8      	b.n	80048ca <I2C_DMAXferCplt+0x106>

080048d8 <HAL_I2C_AbortCpltCallback>:
__weak void HAL_I2C_AbortCpltCallback(I2C_HandleTypeDef *hi2c)
 80048d8:	4770      	bx	lr
	...

080048dc <I2C_DMAAbort>:
  __IO uint32_t count = 0U;
 80048dc:	2300      	movs	r3, #0
{
 80048de:	b537      	push	{r0, r1, r2, r4, r5, lr}
  count = I2C_TIMEOUT_FLAG * (SystemCoreClock / 25U / 1000U);
 80048e0:	f246 11a8 	movw	r1, #25000	@ 0x61a8
  __IO uint32_t count = 0U;
 80048e4:	9301      	str	r3, [sp, #4]
  count = I2C_TIMEOUT_FLAG * (SystemCoreClock / 25U / 1000U);
 80048e6:	4b2c      	ldr	r3, [pc, #176]	@ (8004998 <I2C_DMAAbort+0xbc>)
  I2C_HandleTypeDef *hi2c = (I2C_HandleTypeDef *)((DMA_HandleTypeDef *)hdma)->Parent; /* Derogation MISRAC2012-Rule-11.5 */
 80048e8:	6a40      	ldr	r0, [r0, #36]	@ 0x24
  count = I2C_TIMEOUT_FLAG * (SystemCoreClock / 25U / 1000U);
 80048ea:	681b      	ldr	r3, [r3, #0]
  HAL_I2C_StateTypeDef CurrentState = hi2c->State;
 80048ec:	f890 203d 	ldrb.w	r2, [r0, #61]	@ 0x3d
  count = I2C_TIMEOUT_FLAG * (SystemCoreClock / 25U / 1000U);
 80048f0:	fbb3 f3f1 	udiv	r3, r3, r1
 80048f4:	2123      	movs	r1, #35	@ 0x23
 80048f6:	434b      	muls	r3, r1
 80048f8:	9301      	str	r3, [sp, #4]
  while (READ_BIT(hi2c->Instance->CR1, I2C_CR1_STOP) == I2C_CR1_STOP);
 80048fa:	6803      	ldr	r3, [r0, #0]
  HAL_I2C_StateTypeDef CurrentState = hi2c->State;
 80048fc:	b2d2      	uxtb	r2, r2
    if (count == 0U)
 80048fe:	9901      	ldr	r1, [sp, #4]
 8004900:	bb41      	cbnz	r1, 8004954 <I2C_DMAAbort+0x78>
      hi2c->ErrorCode |= HAL_I2C_ERROR_TIMEOUT;
 8004902:	6c01      	ldr	r1, [r0, #64]	@ 0x40
 8004904:	f041 0120 	orr.w	r1, r1, #32
 8004908:	6401      	str	r1, [r0, #64]	@ 0x40
  if (hi2c->hdmatx != NULL)
 800490a:	6b44      	ldr	r4, [r0, #52]	@ 0x34
 800490c:	b10c      	cbz	r4, 8004912 <I2C_DMAAbort+0x36>
    hi2c->hdmatx->XferCpltCallback = NULL;
 800490e:	2100      	movs	r1, #0
 8004910:	62a1      	str	r1, [r4, #40]	@ 0x28
  if (hi2c->hdmarx != NULL)
 8004912:	6b81      	ldr	r1, [r0, #56]	@ 0x38
 8004914:	b109      	cbz	r1, 800491a <I2C_DMAAbort+0x3e>
    hi2c->hdmarx->XferCpltCallback = NULL;
 8004916:	2500      	movs	r5, #0
 8004918:	628d      	str	r5, [r1, #40]	@ 0x28
  CLEAR_BIT(hi2c->Instance->CR1, I2C_CR1_ACK);
 800491a:	681d      	ldr	r5, [r3, #0]
 800491c:	f425 6580 	bic.w	r5, r5, #1024	@ 0x400
 8004920:	601d      	str	r5, [r3, #0]
  hi2c->XferCount = 0U;
 8004922:	2500      	movs	r5, #0
 8004924:	8545      	strh	r5, [r0, #42]	@ 0x2a
  if (hi2c->hdmatx != NULL)
 8004926:	b104      	cbz	r4, 800492a <I2C_DMAAbort+0x4e>
    hi2c->hdmatx->XferAbortCallback = NULL;
 8004928:	6365      	str	r5, [r4, #52]	@ 0x34
  if (hi2c->hdmarx != NULL)
 800492a:	b101      	cbz	r1, 800492e <I2C_DMAAbort+0x52>
    hi2c->hdmarx->XferAbortCallback = NULL;
 800492c:	634d      	str	r5, [r1, #52]	@ 0x34
  __HAL_I2C_DISABLE(hi2c);
 800492e:	6819      	ldr	r1, [r3, #0]
 8004930:	f021 0101 	bic.w	r1, r1, #1
 8004934:	6019      	str	r1, [r3, #0]
  if (hi2c->State == HAL_I2C_STATE_ABORT)
 8004936:	f890 103d 	ldrb.w	r1, [r0, #61]	@ 0x3d
 800493a:	2960      	cmp	r1, #96	@ 0x60
 800493c:	d111      	bne.n	8004962 <I2C_DMAAbort+0x86>
    hi2c->State         = HAL_I2C_STATE_READY;
 800493e:	2320      	movs	r3, #32
 8004940:	f880 303d 	strb.w	r3, [r0, #61]	@ 0x3d
    hi2c->Mode          = HAL_I2C_MODE_NONE;
 8004944:	2300      	movs	r3, #0
 8004946:	f880 303e 	strb.w	r3, [r0, #62]	@ 0x3e
    hi2c->ErrorCode     = HAL_I2C_ERROR_NONE;
 800494a:	6403      	str	r3, [r0, #64]	@ 0x40
    HAL_I2C_AbortCpltCallback(hi2c);
 800494c:	f7ff ffc4 	bl	80048d8 <HAL_I2C_AbortCpltCallback>
}
 8004950:	b003      	add	sp, #12
 8004952:	bd30      	pop	{r4, r5, pc}
    count--;
 8004954:	9901      	ldr	r1, [sp, #4]
 8004956:	3901      	subs	r1, #1
 8004958:	9101      	str	r1, [sp, #4]
  while (READ_BIT(hi2c->Instance->CR1, I2C_CR1_STOP) == I2C_CR1_STOP);
 800495a:	6819      	ldr	r1, [r3, #0]
 800495c:	0589      	lsls	r1, r1, #22
 800495e:	d4ce      	bmi.n	80048fe <I2C_DMAAbort+0x22>
 8004960:	e7d3      	b.n	800490a <I2C_DMAAbort+0x2e>
    if (((uint32_t)CurrentState & (uint32_t)HAL_I2C_STATE_LISTEN) == (uint32_t)HAL_I2C_STATE_LISTEN)
 8004962:	f002 0228 	and.w	r2, r2, #40	@ 0x28
 8004966:	2a28      	cmp	r2, #40	@ 0x28
 8004968:	d10e      	bne.n	8004988 <I2C_DMAAbort+0xac>
      __HAL_I2C_ENABLE(hi2c);
 800496a:	6819      	ldr	r1, [r3, #0]
 800496c:	f041 0101 	orr.w	r1, r1, #1
 8004970:	6019      	str	r1, [r3, #0]
      SET_BIT(hi2c->Instance->CR1, I2C_CR1_ACK);
 8004972:	6819      	ldr	r1, [r3, #0]
 8004974:	f441 6180 	orr.w	r1, r1, #1024	@ 0x400
 8004978:	6019      	str	r1, [r3, #0]
      hi2c->PreviousState = I2C_STATE_NONE;
 800497a:	2300      	movs	r3, #0
 800497c:	6303      	str	r3, [r0, #48]	@ 0x30
      hi2c->State = HAL_I2C_STATE_LISTEN;
 800497e:	f880 203d 	strb.w	r2, [r0, #61]	@ 0x3d
    HAL_I2C_ErrorCallback(hi2c);
 8004982:	f7ff ff01 	bl	8004788 <HAL_I2C_ErrorCallback>
}
 8004986:	e7e3      	b.n	8004950 <I2C_DMAAbort+0x74>
      hi2c->State = HAL_I2C_STATE_READY;
 8004988:	2320      	movs	r3, #32
 800498a:	f880 303d 	strb.w	r3, [r0, #61]	@ 0x3d
      hi2c->Mode = HAL_I2C_MODE_NONE;
 800498e:	2300      	movs	r3, #0
 8004990:	f880 303e 	strb.w	r3, [r0, #62]	@ 0x3e
 8004994:	e7f5      	b.n	8004982 <I2C_DMAAbort+0xa6>
 8004996:	bf00      	nop
 8004998:	2000006c 	.word	0x2000006c

0800499c <I2C_ITError>:
{
 800499c:	b510      	push	{r4, lr}
  HAL_I2C_StateTypeDef CurrentState = hi2c->State;
 800499e:	f890 203d 	ldrb.w	r2, [r0, #61]	@ 0x3d
  HAL_I2C_ModeTypeDef CurrentMode = hi2c->Mode;
 80049a2:	f890 303e 	ldrb.w	r3, [r0, #62]	@ 0x3e
{
 80049a6:	4604      	mov	r4, r0
  if (((CurrentMode == HAL_I2C_MODE_MASTER) || (CurrentMode == HAL_I2C_MODE_MEM)) && (CurrentState == HAL_I2C_STATE_BUSY_RX))
 80049a8:	2b10      	cmp	r3, #16
  HAL_I2C_ModeTypeDef CurrentMode = hi2c->Mode;
 80049aa:	b2d9      	uxtb	r1, r3
  HAL_I2C_StateTypeDef CurrentState = hi2c->State;
 80049ac:	b2d2      	uxtb	r2, r2
  if (((CurrentMode == HAL_I2C_MODE_MASTER) || (CurrentMode == HAL_I2C_MODE_MEM)) && (CurrentState == HAL_I2C_STATE_BUSY_RX))
 80049ae:	6803      	ldr	r3, [r0, #0]
 80049b0:	d001      	beq.n	80049b6 <I2C_ITError+0x1a>
 80049b2:	2940      	cmp	r1, #64	@ 0x40
 80049b4:	d113      	bne.n	80049de <I2C_ITError+0x42>
 80049b6:	2a22      	cmp	r2, #34	@ 0x22
 80049b8:	d111      	bne.n	80049de <I2C_ITError+0x42>
    hi2c->Instance->CR1 &= ~I2C_CR1_POS;
 80049ba:	6819      	ldr	r1, [r3, #0]
 80049bc:	f421 6100 	bic.w	r1, r1, #2048	@ 0x800
 80049c0:	6019      	str	r1, [r3, #0]
    if ((READ_BIT(hi2c->Instance->CR2, I2C_CR2_DMAEN) != I2C_CR2_DMAEN) && (CurrentState != HAL_I2C_STATE_ABORT))
 80049c2:	6859      	ldr	r1, [r3, #4]
 80049c4:	f411 6100 	ands.w	r1, r1, #2048	@ 0x800
 80049c8:	d106      	bne.n	80049d8 <I2C_ITError+0x3c>
 80049ca:	2a60      	cmp	r2, #96	@ 0x60
      hi2c->State = HAL_I2C_STATE_READY;
 80049cc:	bf1e      	ittt	ne
 80049ce:	2220      	movne	r2, #32
 80049d0:	f884 203d 	strbne.w	r2, [r4, #61]	@ 0x3d
      hi2c->Mode = HAL_I2C_MODE_NONE;
 80049d4:	f884 103e 	strbne.w	r1, [r4, #62]	@ 0x3e
    hi2c->PreviousState = I2C_STATE_NONE;
 80049d8:	2200      	movs	r2, #0
 80049da:	6322      	str	r2, [r4, #48]	@ 0x30
 80049dc:	e007      	b.n	80049ee <I2C_ITError+0x52>
  if (((uint32_t)CurrentState & (uint32_t)HAL_I2C_STATE_LISTEN) == (uint32_t)HAL_I2C_STATE_LISTEN)
 80049de:	f002 0128 	and.w	r1, r2, #40	@ 0x28
 80049e2:	2928      	cmp	r1, #40	@ 0x28
 80049e4:	d1ed      	bne.n	80049c2 <I2C_ITError+0x26>
    hi2c->PreviousState = I2C_STATE_NONE;
 80049e6:	2200      	movs	r2, #0
 80049e8:	6322      	str	r2, [r4, #48]	@ 0x30
    hi2c->State = HAL_I2C_STATE_LISTEN;
 80049ea:	f884 103d 	strb.w	r1, [r4, #61]	@ 0x3d
  if (READ_BIT(hi2c->Instance->CR2, I2C_CR2_DMAEN) == I2C_CR2_DMAEN)
 80049ee:	685a      	ldr	r2, [r3, #4]
 80049f0:	f412 6200 	ands.w	r2, r2, #2048	@ 0x800
 80049f4:	d04f      	beq.n	8004a96 <I2C_ITError+0xfa>
    hi2c->Instance->CR2 &= ~I2C_CR2_DMAEN;
 80049f6:	685a      	ldr	r2, [r3, #4]
    if (hi2c->hdmatx->State != HAL_DMA_STATE_READY)
 80049f8:	6b60      	ldr	r0, [r4, #52]	@ 0x34
    hi2c->Instance->CR2 &= ~I2C_CR2_DMAEN;
 80049fa:	f422 6200 	bic.w	r2, r2, #2048	@ 0x800
 80049fe:	605a      	str	r2, [r3, #4]
    if (hi2c->hdmatx->State != HAL_DMA_STATE_READY)
 8004a00:	f890 3021 	ldrb.w	r3, [r0, #33]	@ 0x21
 8004a04:	2b01      	cmp	r3, #1
 8004a06:	4b37      	ldr	r3, [pc, #220]	@ (8004ae4 <I2C_ITError+0x148>)
 8004a08:	d02b      	beq.n	8004a62 <I2C_ITError+0xc6>
      hi2c->hdmatx->XferAbortCallback = I2C_DMAAbort;
 8004a0a:	6343      	str	r3, [r0, #52]	@ 0x34
      if (HAL_DMA_Abort_IT(hi2c->hdmatx) != HAL_OK)
 8004a0c:	f7fe ffe0 	bl	80039d0 <HAL_DMA_Abort_IT>
 8004a10:	b150      	cbz	r0, 8004a28 <I2C_ITError+0x8c>
        __HAL_I2C_DISABLE(hi2c);
 8004a12:	6822      	ldr	r2, [r4, #0]
        hi2c->hdmatx->XferAbortCallback(hi2c->hdmatx);
 8004a14:	6b60      	ldr	r0, [r4, #52]	@ 0x34
        __HAL_I2C_DISABLE(hi2c);
 8004a16:	6813      	ldr	r3, [r2, #0]
 8004a18:	f023 0301 	bic.w	r3, r3, #1
 8004a1c:	6013      	str	r3, [r2, #0]
        hi2c->State = HAL_I2C_STATE_READY;
 8004a1e:	2320      	movs	r3, #32
 8004a20:	f884 303d 	strb.w	r3, [r4, #61]	@ 0x3d
        hi2c->hdmarx->XferAbortCallback(hi2c->hdmarx);
 8004a24:	6b43      	ldr	r3, [r0, #52]	@ 0x34
 8004a26:	4798      	blx	r3
  CurrentError = hi2c->ErrorCode;
 8004a28:	6c23      	ldr	r3, [r4, #64]	@ 0x40
  if (((CurrentError & HAL_I2C_ERROR_BERR) == HAL_I2C_ERROR_BERR) || \
 8004a2a:	0719      	lsls	r1, r3, #28
    __HAL_I2C_DISABLE_IT(hi2c, I2C_IT_EVT | I2C_IT_BUF | I2C_IT_ERR);
 8004a2c:	bf1f      	itttt	ne
 8004a2e:	6822      	ldrne	r2, [r4, #0]
 8004a30:	6853      	ldrne	r3, [r2, #4]
 8004a32:	f423 63e0 	bicne.w	r3, r3, #1792	@ 0x700
 8004a36:	6053      	strne	r3, [r2, #4]
  CurrentState = hi2c->State;
 8004a38:	f894 303d 	ldrb.w	r3, [r4, #61]	@ 0x3d
  if (((hi2c->ErrorCode & HAL_I2C_ERROR_AF) == HAL_I2C_ERROR_AF) && (CurrentState == HAL_I2C_STATE_LISTEN))
 8004a3c:	6c22      	ldr	r2, [r4, #64]	@ 0x40
  CurrentState = hi2c->State;
 8004a3e:	b2db      	uxtb	r3, r3
  if (((hi2c->ErrorCode & HAL_I2C_ERROR_AF) == HAL_I2C_ERROR_AF) && (CurrentState == HAL_I2C_STATE_LISTEN))
 8004a40:	0752      	lsls	r2, r2, #29
 8004a42:	d50d      	bpl.n	8004a60 <I2C_ITError+0xc4>
 8004a44:	2b28      	cmp	r3, #40	@ 0x28
 8004a46:	d10b      	bne.n	8004a60 <I2C_ITError+0xc4>
    hi2c->XferOptions   = I2C_NO_OPTION_FRAME;
 8004a48:	4b27      	ldr	r3, [pc, #156]	@ (8004ae8 <I2C_ITError+0x14c>)
    hi2c->State         = HAL_I2C_STATE_READY;
 8004a4a:	2220      	movs	r2, #32
    hi2c->XferOptions   = I2C_NO_OPTION_FRAME;
 8004a4c:	62e3      	str	r3, [r4, #44]	@ 0x2c
    hi2c->PreviousState = I2C_STATE_NONE;
 8004a4e:	2300      	movs	r3, #0
    HAL_I2C_ListenCpltCallback(hi2c);
 8004a50:	4620      	mov	r0, r4
    hi2c->PreviousState = I2C_STATE_NONE;
 8004a52:	6323      	str	r3, [r4, #48]	@ 0x30
    hi2c->State         = HAL_I2C_STATE_READY;
 8004a54:	f884 203d 	strb.w	r2, [r4, #61]	@ 0x3d
    hi2c->Mode          = HAL_I2C_MODE_NONE;
 8004a58:	f884 303e 	strb.w	r3, [r4, #62]	@ 0x3e
    HAL_I2C_ListenCpltCallback(hi2c);
 8004a5c:	f7ff fe3b 	bl	80046d6 <HAL_I2C_ListenCpltCallback>
}
 8004a60:	bd10      	pop	{r4, pc}
      hi2c->hdmarx->XferAbortCallback = I2C_DMAAbort;
 8004a62:	6ba0      	ldr	r0, [r4, #56]	@ 0x38
 8004a64:	6343      	str	r3, [r0, #52]	@ 0x34
      if (HAL_DMA_Abort_IT(hi2c->hdmarx) != HAL_OK)
 8004a66:	f7fe ffb3 	bl	80039d0 <HAL_DMA_Abort_IT>
 8004a6a:	2800      	cmp	r0, #0
 8004a6c:	d0dc      	beq.n	8004a28 <I2C_ITError+0x8c>
        if (__HAL_I2C_GET_FLAG(hi2c, I2C_FLAG_RXNE) == SET)
 8004a6e:	6823      	ldr	r3, [r4, #0]
 8004a70:	695a      	ldr	r2, [r3, #20]
 8004a72:	0651      	lsls	r1, r2, #25
 8004a74:	d505      	bpl.n	8004a82 <I2C_ITError+0xe6>
          *hi2c->pBuffPtr = (uint8_t)hi2c->Instance->DR;
 8004a76:	691a      	ldr	r2, [r3, #16]
 8004a78:	6a63      	ldr	r3, [r4, #36]	@ 0x24
 8004a7a:	701a      	strb	r2, [r3, #0]
          hi2c->pBuffPtr++;
 8004a7c:	6a63      	ldr	r3, [r4, #36]	@ 0x24
 8004a7e:	3301      	adds	r3, #1
 8004a80:	6263      	str	r3, [r4, #36]	@ 0x24
        __HAL_I2C_DISABLE(hi2c);
 8004a82:	6822      	ldr	r2, [r4, #0]
        hi2c->hdmarx->XferAbortCallback(hi2c->hdmarx);
 8004a84:	6ba0      	ldr	r0, [r4, #56]	@ 0x38
        __HAL_I2C_DISABLE(hi2c);
 8004a86:	6813      	ldr	r3, [r2, #0]
 8004a88:	f023 0301 	bic.w	r3, r3, #1
 8004a8c:	6013      	str	r3, [r2, #0]
        hi2c->State = HAL_I2C_STATE_READY;
 8004a8e:	2320      	movs	r3, #32
 8004a90:	f884 303d 	strb.w	r3, [r4, #61]	@ 0x3d
        hi2c->hdmarx->XferAbortCallback(hi2c->hdmarx);
 8004a94:	e7c6      	b.n	8004a24 <I2C_ITError+0x88>
  else if (hi2c->State == HAL_I2C_STATE_ABORT)
 8004a96:	f894 103d 	ldrb.w	r1, [r4, #61]	@ 0x3d
 8004a9a:	2960      	cmp	r1, #96	@ 0x60
 8004a9c:	d115      	bne.n	8004aca <I2C_ITError+0x12e>
    hi2c->State = HAL_I2C_STATE_READY;
 8004a9e:	2120      	movs	r1, #32
 8004aa0:	f884 103d 	strb.w	r1, [r4, #61]	@ 0x3d
    hi2c->ErrorCode = HAL_I2C_ERROR_NONE;
 8004aa4:	6422      	str	r2, [r4, #64]	@ 0x40
    if (__HAL_I2C_GET_FLAG(hi2c, I2C_FLAG_RXNE) == SET)
 8004aa6:	695a      	ldr	r2, [r3, #20]
 8004aa8:	0652      	lsls	r2, r2, #25
 8004aaa:	d505      	bpl.n	8004ab8 <I2C_ITError+0x11c>
      *hi2c->pBuffPtr = (uint8_t)hi2c->Instance->DR;
 8004aac:	691a      	ldr	r2, [r3, #16]
 8004aae:	6a63      	ldr	r3, [r4, #36]	@ 0x24
 8004ab0:	701a      	strb	r2, [r3, #0]
      hi2c->pBuffPtr++;
 8004ab2:	6a63      	ldr	r3, [r4, #36]	@ 0x24
 8004ab4:	3301      	adds	r3, #1
 8004ab6:	6263      	str	r3, [r4, #36]	@ 0x24
    __HAL_I2C_DISABLE(hi2c);
 8004ab8:	6822      	ldr	r2, [r4, #0]
    HAL_I2C_AbortCpltCallback(hi2c);
 8004aba:	4620      	mov	r0, r4
    __HAL_I2C_DISABLE(hi2c);
 8004abc:	6813      	ldr	r3, [r2, #0]
 8004abe:	f023 0301 	bic.w	r3, r3, #1
 8004ac2:	6013      	str	r3, [r2, #0]
    HAL_I2C_AbortCpltCallback(hi2c);
 8004ac4:	f7ff ff08 	bl	80048d8 <HAL_I2C_AbortCpltCallback>
 8004ac8:	e7ae      	b.n	8004a28 <I2C_ITError+0x8c>
    if (__HAL_I2C_GET_FLAG(hi2c, I2C_FLAG_RXNE) == SET)
 8004aca:	695a      	ldr	r2, [r3, #20]
 8004acc:	0650      	lsls	r0, r2, #25
 8004ace:	d505      	bpl.n	8004adc <I2C_ITError+0x140>
      *hi2c->pBuffPtr = (uint8_t)hi2c->Instance->DR;
 8004ad0:	691a      	ldr	r2, [r3, #16]
 8004ad2:	6a63      	ldr	r3, [r4, #36]	@ 0x24
 8004ad4:	701a      	strb	r2, [r3, #0]
      hi2c->pBuffPtr++;
 8004ad6:	6a63      	ldr	r3, [r4, #36]	@ 0x24
 8004ad8:	3301      	adds	r3, #1
 8004ada:	6263      	str	r3, [r4, #36]	@ 0x24
    HAL_I2C_ErrorCallback(hi2c);
 8004adc:	4620      	mov	r0, r4
 8004ade:	f7ff fe53 	bl	8004788 <HAL_I2C_ErrorCallback>
 8004ae2:	e7a1      	b.n	8004a28 <I2C_ITError+0x8c>
 8004ae4:	080048dd 	.word	0x080048dd
 8004ae8:	ffff0000 	.word	0xffff0000

08004aec <HAL_I2C_EV_IRQHandler>:
{
 8004aec:	b5f0      	push	{r4, r5, r6, r7, lr}
 8004aee:	4604      	mov	r4, r0
  uint32_t itsources                = READ_REG(hi2c->Instance->CR2);
 8004af0:	6803      	ldr	r3, [r0, #0]
{
 8004af2:	b08f      	sub	sp, #60	@ 0x3c
  uint32_t itsources                = READ_REG(hi2c->Instance->CR2);
 8004af4:	685a      	ldr	r2, [r3, #4]
  uint32_t CurrentXferOptions       = hi2c->XferOptions;
 8004af6:	6ac6      	ldr	r6, [r0, #44]	@ 0x2c
  HAL_I2C_ModeTypeDef CurrentMode   = hi2c->Mode;
 8004af8:	f890 003e 	ldrb.w	r0, [r0, #62]	@ 0x3e
  HAL_I2C_StateTypeDef CurrentState = hi2c->State;
 8004afc:	f894 103d 	ldrb.w	r1, [r4, #61]	@ 0x3d
  if ((CurrentMode == HAL_I2C_MODE_MASTER) || (CurrentMode == HAL_I2C_MODE_MEM))
 8004b00:	2810      	cmp	r0, #16
  HAL_I2C_ModeTypeDef CurrentMode   = hi2c->Mode;
 8004b02:	b2c5      	uxtb	r5, r0
  HAL_I2C_StateTypeDef CurrentState = hi2c->State;
 8004b04:	b2c9      	uxtb	r1, r1
  if ((CurrentMode == HAL_I2C_MODE_MASTER) || (CurrentMode == HAL_I2C_MODE_MEM))
 8004b06:	d002      	beq.n	8004b0e <HAL_I2C_EV_IRQHandler+0x22>
 8004b08:	2d40      	cmp	r5, #64	@ 0x40
 8004b0a:	f040 82e5 	bne.w	80050d8 <HAL_I2C_EV_IRQHandler+0x5ec>
    sr2itflags   = READ_REG(hi2c->Instance->SR2);
 8004b0e:	699f      	ldr	r7, [r3, #24]
    sr1itflags   = READ_REG(hi2c->Instance->SR1);
 8004b10:	6958      	ldr	r0, [r3, #20]
    if ((I2C_CHECK_FLAG(sr1itflags, I2C_FLAG_SB) == RESET) && (IS_I2C_TRANSFER_OTHER_OPTIONS_REQUEST(CurrentXferOptions) == 1U))
 8004b12:	f010 0f01 	tst.w	r0, #1
 8004b16:	d107      	bne.n	8004b28 <HAL_I2C_EV_IRQHandler+0x3c>
 8004b18:	f5b6 0f2a 	cmp.w	r6, #11141120	@ 0xaa0000
 8004b1c:	d002      	beq.n	8004b24 <HAL_I2C_EV_IRQHandler+0x38>
 8004b1e:	f1b6 4f2a 	cmp.w	r6, #2852126720	@ 0xaa000000
 8004b22:	d151      	bne.n	8004bc8 <HAL_I2C_EV_IRQHandler+0xdc>
}
 8004b24:	b00f      	add	sp, #60	@ 0x3c
 8004b26:	bdf0      	pop	{r4, r5, r6, r7, pc}
    if ((I2C_CHECK_FLAG(sr1itflags, I2C_FLAG_SB) != RESET) && (I2C_CHECK_IT_SOURCE(itsources, I2C_IT_EVT) != RESET))
 8004b28:	0596      	lsls	r6, r2, #22
 8004b2a:	d54d      	bpl.n	8004bc8 <HAL_I2C_EV_IRQHandler+0xdc>
static void I2C_ConvertOtherXferOptions(I2C_HandleTypeDef *hi2c)
{
  /* if user set XferOptions to I2C_OTHER_FRAME            */
  /* it request implicitly to generate a restart condition */
  /* set XferOptions to I2C_FIRST_FRAME                    */
  if (hi2c->XferOptions == I2C_OTHER_FRAME)
 8004b2c:	6ae2      	ldr	r2, [r4, #44]	@ 0x2c
 8004b2e:	f5b2 0f2a 	cmp.w	r2, #11141120	@ 0xaa0000
 8004b32:	d10c      	bne.n	8004b4e <HAL_I2C_EV_IRQHandler+0x62>
  {
    hi2c->XferOptions = I2C_FIRST_FRAME;
 8004b34:	2201      	movs	r2, #1
  /* it request implicitly to generate a restart condition    */
  /* then generate a stop condition at the end of transfer    */
  /* set XferOptions to I2C_FIRST_AND_LAST_FRAME              */
  else if (hi2c->XferOptions == I2C_OTHER_AND_LAST_FRAME)
  {
    hi2c->XferOptions = I2C_FIRST_AND_LAST_FRAME;
 8004b36:	62e2      	str	r2, [r4, #44]	@ 0x2c
  if (hi2c->Mode == HAL_I2C_MODE_MEM)
 8004b38:	f894 203e 	ldrb.w	r2, [r4, #62]	@ 0x3e
 8004b3c:	2a40      	cmp	r2, #64	@ 0x40
 8004b3e:	d111      	bne.n	8004b64 <HAL_I2C_EV_IRQHandler+0x78>
    if (hi2c->EventCount == 0U)
 8004b40:	6d22      	ldr	r2, [r4, #80]	@ 0x50
 8004b42:	b952      	cbnz	r2, 8004b5a <HAL_I2C_EV_IRQHandler+0x6e>
      hi2c->Instance->DR = I2C_7BIT_ADD_WRITE(hi2c->Devaddress);
 8004b44:	6c62      	ldr	r2, [r4, #68]	@ 0x44
 8004b46:	f002 02fe 	and.w	r2, r2, #254	@ 0xfe
      hi2c->Instance->DR = I2C_7BIT_ADD_READ(hi2c->Devaddress);
 8004b4a:	611a      	str	r2, [r3, #16]
 8004b4c:	e7ea      	b.n	8004b24 <HAL_I2C_EV_IRQHandler+0x38>
  else if (hi2c->XferOptions == I2C_OTHER_AND_LAST_FRAME)
 8004b4e:	6ae2      	ldr	r2, [r4, #44]	@ 0x2c
 8004b50:	f1b2 4f2a 	cmp.w	r2, #2852126720	@ 0xaa000000
 8004b54:	d1f0      	bne.n	8004b38 <HAL_I2C_EV_IRQHandler+0x4c>
    hi2c->XferOptions = I2C_FIRST_AND_LAST_FRAME;
 8004b56:	2208      	movs	r2, #8
 8004b58:	e7ed      	b.n	8004b36 <HAL_I2C_EV_IRQHandler+0x4a>
      hi2c->Instance->DR = I2C_7BIT_ADD_READ(hi2c->Devaddress);
 8004b5a:	6c62      	ldr	r2, [r4, #68]	@ 0x44
 8004b5c:	f042 0201 	orr.w	r2, r2, #1
 8004b60:	b2d2      	uxtb	r2, r2
 8004b62:	e7f2      	b.n	8004b4a <HAL_I2C_EV_IRQHandler+0x5e>
    if (hi2c->Init.AddressingMode == I2C_ADDRESSINGMODE_7BIT)
 8004b64:	6922      	ldr	r2, [r4, #16]
 8004b66:	f5b2 4f80 	cmp.w	r2, #16384	@ 0x4000
 8004b6a:	d11a      	bne.n	8004ba2 <HAL_I2C_EV_IRQHandler+0xb6>
      if (hi2c->State == HAL_I2C_STATE_BUSY_TX)
 8004b6c:	f894 203d 	ldrb.w	r2, [r4, #61]	@ 0x3d
 8004b70:	2a21      	cmp	r2, #33	@ 0x21
        hi2c->Instance->DR = I2C_7BIT_ADD_WRITE(hi2c->Devaddress);
 8004b72:	6c62      	ldr	r2, [r4, #68]	@ 0x44
      if (hi2c->State == HAL_I2C_STATE_BUSY_TX)
 8004b74:	d111      	bne.n	8004b9a <HAL_I2C_EV_IRQHandler+0xae>
        hi2c->Instance->DR = I2C_7BIT_ADD_WRITE(hi2c->Devaddress);
 8004b76:	f002 02fe 	and.w	r2, r2, #254	@ 0xfe
  hi2c->Instance->DR = I2C_10BIT_ADDRESS(hi2c->Devaddress);
 8004b7a:	611a      	str	r2, [r3, #16]
  if (((hi2c->hdmatx != NULL) && (hi2c->hdmatx->XferCpltCallback != NULL))
 8004b7c:	6b62      	ldr	r2, [r4, #52]	@ 0x34
 8004b7e:	b10a      	cbz	r2, 8004b84 <HAL_I2C_EV_IRQHandler+0x98>
 8004b80:	6a92      	ldr	r2, [r2, #40]	@ 0x28
 8004b82:	b92a      	cbnz	r2, 8004b90 <HAL_I2C_EV_IRQHandler+0xa4>
      || ((hi2c->hdmarx != NULL) && (hi2c->hdmarx->XferCpltCallback != NULL)))
 8004b84:	6ba2      	ldr	r2, [r4, #56]	@ 0x38
 8004b86:	2a00      	cmp	r2, #0
 8004b88:	d0cc      	beq.n	8004b24 <HAL_I2C_EV_IRQHandler+0x38>
 8004b8a:	6a92      	ldr	r2, [r2, #40]	@ 0x28
 8004b8c:	2a00      	cmp	r2, #0
 8004b8e:	d0c9      	beq.n	8004b24 <HAL_I2C_EV_IRQHandler+0x38>
    SET_BIT(hi2c->Instance->CR2, I2C_CR2_DMAEN);
 8004b90:	685a      	ldr	r2, [r3, #4]
 8004b92:	f442 6200 	orr.w	r2, r2, #2048	@ 0x800
      __HAL_I2C_DISABLE_IT(hi2c, I2C_IT_BUF);
 8004b96:	605a      	str	r2, [r3, #4]
 8004b98:	e7c4      	b.n	8004b24 <HAL_I2C_EV_IRQHandler+0x38>
        hi2c->Instance->DR = I2C_7BIT_ADD_READ(hi2c->Devaddress);
 8004b9a:	f042 0201 	orr.w	r2, r2, #1
 8004b9e:	b2d2      	uxtb	r2, r2
 8004ba0:	e7eb      	b.n	8004b7a <HAL_I2C_EV_IRQHandler+0x8e>
      if (hi2c->EventCount == 0U)
 8004ba2:	6d22      	ldr	r2, [r4, #80]	@ 0x50
 8004ba4:	b932      	cbnz	r2, 8004bb4 <HAL_I2C_EV_IRQHandler+0xc8>
        hi2c->Instance->DR = I2C_10BIT_HEADER_WRITE(hi2c->Devaddress);
 8004ba6:	6c62      	ldr	r2, [r4, #68]	@ 0x44
 8004ba8:	11d2      	asrs	r2, r2, #7
 8004baa:	f002 0206 	and.w	r2, r2, #6
 8004bae:	f042 02f0 	orr.w	r2, r2, #240	@ 0xf0
 8004bb2:	e7ca      	b.n	8004b4a <HAL_I2C_EV_IRQHandler+0x5e>
      else if (hi2c->EventCount == 1U)
 8004bb4:	6d22      	ldr	r2, [r4, #80]	@ 0x50
 8004bb6:	2a01      	cmp	r2, #1
 8004bb8:	d1b4      	bne.n	8004b24 <HAL_I2C_EV_IRQHandler+0x38>
        hi2c->Instance->DR = I2C_10BIT_HEADER_READ(hi2c->Devaddress);
 8004bba:	6c62      	ldr	r2, [r4, #68]	@ 0x44
 8004bbc:	11d2      	asrs	r2, r2, #7
 8004bbe:	f002 0206 	and.w	r2, r2, #6
 8004bc2:	f042 02f1 	orr.w	r2, r2, #241	@ 0xf1
 8004bc6:	e7c0      	b.n	8004b4a <HAL_I2C_EV_IRQHandler+0x5e>
    else if ((I2C_CHECK_FLAG(sr1itflags, I2C_FLAG_ADD10) != RESET) && (I2C_CHECK_IT_SOURCE(itsources, I2C_IT_EVT) != RESET))
 8004bc8:	0706      	lsls	r6, r0, #28
 8004bca:	d503      	bpl.n	8004bd4 <HAL_I2C_EV_IRQHandler+0xe8>
 8004bcc:	0596      	lsls	r6, r2, #22
 8004bce:	d501      	bpl.n	8004bd4 <HAL_I2C_EV_IRQHandler+0xe8>
  hi2c->Instance->DR = I2C_10BIT_ADDRESS(hi2c->Devaddress);
 8004bd0:	6c62      	ldr	r2, [r4, #68]	@ 0x44
 8004bd2:	e7e4      	b.n	8004b9e <HAL_I2C_EV_IRQHandler+0xb2>
    else if ((I2C_CHECK_FLAG(sr1itflags, I2C_FLAG_ADDR) != RESET) && (I2C_CHECK_IT_SOURCE(itsources, I2C_IT_EVT) != RESET))
 8004bd4:	0786      	lsls	r6, r0, #30
 8004bd6:	f140 80f0 	bpl.w	8004dba <HAL_I2C_EV_IRQHandler+0x2ce>
 8004bda:	0596      	lsls	r6, r2, #22
 8004bdc:	f140 80ed 	bpl.w	8004dba <HAL_I2C_EV_IRQHandler+0x2ce>
  HAL_I2C_ModeTypeDef CurrentMode       = hi2c->Mode;
 8004be0:	f894 103e 	ldrb.w	r1, [r4, #62]	@ 0x3e
  uint32_t CurrentXferOptions           = hi2c->XferOptions;
 8004be4:	6ae2      	ldr	r2, [r4, #44]	@ 0x2c
  uint32_t Prev_State                   = hi2c->PreviousState;
 8004be6:	6b25      	ldr	r5, [r4, #48]	@ 0x30
  if (hi2c->State == HAL_I2C_STATE_BUSY_RX)
 8004be8:	f894 003d 	ldrb.w	r0, [r4, #61]	@ 0x3d
  HAL_I2C_ModeTypeDef CurrentMode       = hi2c->Mode;
 8004bec:	b2c9      	uxtb	r1, r1
  if (hi2c->State == HAL_I2C_STATE_BUSY_RX)
 8004bee:	2822      	cmp	r0, #34	@ 0x22
 8004bf0:	f040 80db 	bne.w	8004daa <HAL_I2C_EV_IRQHandler+0x2be>
    if ((hi2c->EventCount == 0U) && (CurrentMode == HAL_I2C_MODE_MEM))
 8004bf4:	6d20      	ldr	r0, [r4, #80]	@ 0x50
 8004bf6:	b940      	cbnz	r0, 8004c0a <HAL_I2C_EV_IRQHandler+0x11e>
 8004bf8:	2940      	cmp	r1, #64	@ 0x40
 8004bfa:	d106      	bne.n	8004c0a <HAL_I2C_EV_IRQHandler+0x11e>
      __HAL_I2C_CLEAR_ADDRFLAG(hi2c);
 8004bfc:	9000      	str	r0, [sp, #0]
 8004bfe:	695a      	ldr	r2, [r3, #20]
 8004c00:	9200      	str	r2, [sp, #0]
 8004c02:	699b      	ldr	r3, [r3, #24]
 8004c04:	9300      	str	r3, [sp, #0]
 8004c06:	9b00      	ldr	r3, [sp, #0]
 8004c08:	e78c      	b.n	8004b24 <HAL_I2C_EV_IRQHandler+0x38>
    else if ((hi2c->EventCount == 0U) && (hi2c->Init.AddressingMode == I2C_ADDRESSINGMODE_10BIT))
 8004c0a:	6d21      	ldr	r1, [r4, #80]	@ 0x50
 8004c0c:	b989      	cbnz	r1, 8004c32 <HAL_I2C_EV_IRQHandler+0x146>
 8004c0e:	6920      	ldr	r0, [r4, #16]
 8004c10:	f5b0 4f40 	cmp.w	r0, #49152	@ 0xc000
 8004c14:	d10d      	bne.n	8004c32 <HAL_I2C_EV_IRQHandler+0x146>
      __HAL_I2C_CLEAR_ADDRFLAG(hi2c);
 8004c16:	9101      	str	r1, [sp, #4]
 8004c18:	695a      	ldr	r2, [r3, #20]
 8004c1a:	9201      	str	r2, [sp, #4]
 8004c1c:	699a      	ldr	r2, [r3, #24]
 8004c1e:	9201      	str	r2, [sp, #4]
 8004c20:	9a01      	ldr	r2, [sp, #4]
      SET_BIT(hi2c->Instance->CR1, I2C_CR1_START);
 8004c22:	681a      	ldr	r2, [r3, #0]
 8004c24:	f442 7280 	orr.w	r2, r2, #256	@ 0x100
 8004c28:	601a      	str	r2, [r3, #0]
      hi2c->EventCount++;
 8004c2a:	6d23      	ldr	r3, [r4, #80]	@ 0x50
 8004c2c:	3301      	adds	r3, #1
      hi2c->EventCount = 0U;
 8004c2e:	6523      	str	r3, [r4, #80]	@ 0x50
 8004c30:	e778      	b.n	8004b24 <HAL_I2C_EV_IRQHandler+0x38>
      if (hi2c->XferCount == 0U)
 8004c32:	8d61      	ldrh	r1, [r4, #42]	@ 0x2a
 8004c34:	b289      	uxth	r1, r1
 8004c36:	b951      	cbnz	r1, 8004c4e <HAL_I2C_EV_IRQHandler+0x162>
        __HAL_I2C_CLEAR_ADDRFLAG(hi2c);
 8004c38:	9102      	str	r1, [sp, #8]
 8004c3a:	695a      	ldr	r2, [r3, #20]
 8004c3c:	9202      	str	r2, [sp, #8]
 8004c3e:	699a      	ldr	r2, [r3, #24]
 8004c40:	9202      	str	r2, [sp, #8]
 8004c42:	9a02      	ldr	r2, [sp, #8]
          SET_BIT(hi2c->Instance->CR1, I2C_CR1_STOP);
 8004c44:	681a      	ldr	r2, [r3, #0]
 8004c46:	f442 7200 	orr.w	r2, r2, #512	@ 0x200
 8004c4a:	601a      	str	r2, [r3, #0]
 8004c4c:	e019      	b.n	8004c82 <HAL_I2C_EV_IRQHandler+0x196>
      else if (hi2c->XferCount == 1U)
 8004c4e:	8d61      	ldrh	r1, [r4, #42]	@ 0x2a
 8004c50:	b289      	uxth	r1, r1
 8004c52:	2901      	cmp	r1, #1
 8004c54:	d149      	bne.n	8004cea <HAL_I2C_EV_IRQHandler+0x1fe>
        if (CurrentXferOptions == I2C_NO_OPTION_FRAME)
 8004c56:	f512 3f80 	cmn.w	r2, #65536	@ 0x10000
 8004c5a:	d11b      	bne.n	8004c94 <HAL_I2C_EV_IRQHandler+0x1a8>
          CLEAR_BIT(hi2c->Instance->CR1, I2C_CR1_ACK);
 8004c5c:	681a      	ldr	r2, [r3, #0]
 8004c5e:	f422 6280 	bic.w	r2, r2, #1024	@ 0x400
 8004c62:	601a      	str	r2, [r3, #0]
          if ((hi2c->Instance->CR2 & I2C_CR2_DMAEN) == I2C_CR2_DMAEN)
 8004c64:	685a      	ldr	r2, [r3, #4]
 8004c66:	f412 6200 	ands.w	r2, r2, #2048	@ 0x800
 8004c6a:	d00c      	beq.n	8004c86 <HAL_I2C_EV_IRQHandler+0x19a>
            CLEAR_BIT(hi2c->Instance->CR1, I2C_CR1_ACK);
 8004c6c:	681a      	ldr	r2, [r3, #0]
 8004c6e:	f422 6280 	bic.w	r2, r2, #1024	@ 0x400
 8004c72:	601a      	str	r2, [r3, #0]
            __HAL_I2C_CLEAR_ADDRFLAG(hi2c);
 8004c74:	2200      	movs	r2, #0
 8004c76:	9203      	str	r2, [sp, #12]
 8004c78:	695a      	ldr	r2, [r3, #20]
 8004c7a:	9203      	str	r2, [sp, #12]
 8004c7c:	699b      	ldr	r3, [r3, #24]
 8004c7e:	9303      	str	r3, [sp, #12]
 8004c80:	9b03      	ldr	r3, [sp, #12]
      hi2c->EventCount = 0U;
 8004c82:	2300      	movs	r3, #0
 8004c84:	e7d3      	b.n	8004c2e <HAL_I2C_EV_IRQHandler+0x142>
            __HAL_I2C_CLEAR_ADDRFLAG(hi2c);
 8004c86:	9204      	str	r2, [sp, #16]
 8004c88:	695a      	ldr	r2, [r3, #20]
 8004c8a:	9204      	str	r2, [sp, #16]
 8004c8c:	699a      	ldr	r2, [r3, #24]
 8004c8e:	9204      	str	r2, [sp, #16]
 8004c90:	9a04      	ldr	r2, [sp, #16]
            SET_BIT(hi2c->Instance->CR1, I2C_CR1_STOP);
 8004c92:	e7d7      	b.n	8004c44 <HAL_I2C_EV_IRQHandler+0x158>
        else if ((CurrentXferOptions != I2C_FIRST_AND_LAST_FRAME) && (CurrentXferOptions != I2C_LAST_FRAME) \
 8004c94:	2a08      	cmp	r2, #8
 8004c96:	d01c      	beq.n	8004cd2 <HAL_I2C_EV_IRQHandler+0x1e6>
 8004c98:	2a20      	cmp	r2, #32
 8004c9a:	d01a      	beq.n	8004cd2 <HAL_I2C_EV_IRQHandler+0x1e6>
                 && ((Prev_State != I2C_STATE_MASTER_BUSY_RX) || (CurrentXferOptions == I2C_FIRST_FRAME)))
 8004c9c:	2d12      	cmp	r5, #18
 8004c9e:	d10d      	bne.n	8004cbc <HAL_I2C_EV_IRQHandler+0x1d0>
 8004ca0:	2a01      	cmp	r2, #1
 8004ca2:	d116      	bne.n	8004cd2 <HAL_I2C_EV_IRQHandler+0x1e6>
            CLEAR_BIT(hi2c->Instance->CR1, I2C_CR1_ACK);
 8004ca4:	681a      	ldr	r2, [r3, #0]
 8004ca6:	f422 6280 	bic.w	r2, r2, #1024	@ 0x400
            SET_BIT(hi2c->Instance->CR1, I2C_CR1_ACK);
 8004caa:	601a      	str	r2, [r3, #0]
          __HAL_I2C_CLEAR_ADDRFLAG(hi2c);
 8004cac:	2200      	movs	r2, #0
 8004cae:	9205      	str	r2, [sp, #20]
 8004cb0:	695a      	ldr	r2, [r3, #20]
 8004cb2:	9205      	str	r2, [sp, #20]
 8004cb4:	699b      	ldr	r3, [r3, #24]
 8004cb6:	9305      	str	r3, [sp, #20]
 8004cb8:	9b05      	ldr	r3, [sp, #20]
 8004cba:	e7e2      	b.n	8004c82 <HAL_I2C_EV_IRQHandler+0x196>
          if ((CurrentXferOptions != I2C_NEXT_FRAME) && (CurrentXferOptions != I2C_FIRST_AND_NEXT_FRAME) && (CurrentXferOptions != I2C_LAST_FRAME_NO_STOP))
 8004cbc:	2a10      	cmp	r2, #16
 8004cbe:	d8f1      	bhi.n	8004ca4 <HAL_I2C_EV_IRQHandler+0x1b8>
 8004cc0:	4986      	ldr	r1, [pc, #536]	@ (8004edc <HAL_I2C_EV_IRQHandler+0x3f0>)
 8004cc2:	fa41 f202 	asr.w	r2, r1, r2
 8004cc6:	07d7      	lsls	r7, r2, #31
 8004cc8:	d4ec      	bmi.n	8004ca4 <HAL_I2C_EV_IRQHandler+0x1b8>
            SET_BIT(hi2c->Instance->CR1, I2C_CR1_ACK);
 8004cca:	681a      	ldr	r2, [r3, #0]
 8004ccc:	f442 6280 	orr.w	r2, r2, #1024	@ 0x400
 8004cd0:	e7eb      	b.n	8004caa <HAL_I2C_EV_IRQHandler+0x1be>
          CLEAR_BIT(hi2c->Instance->CR1, I2C_CR1_ACK);
 8004cd2:	681a      	ldr	r2, [r3, #0]
 8004cd4:	f422 6280 	bic.w	r2, r2, #1024	@ 0x400
 8004cd8:	601a      	str	r2, [r3, #0]
          __HAL_I2C_CLEAR_ADDRFLAG(hi2c);
 8004cda:	2200      	movs	r2, #0
 8004cdc:	9206      	str	r2, [sp, #24]
 8004cde:	695a      	ldr	r2, [r3, #20]
 8004ce0:	9206      	str	r2, [sp, #24]
 8004ce2:	699a      	ldr	r2, [r3, #24]
 8004ce4:	9206      	str	r2, [sp, #24]
 8004ce6:	9a06      	ldr	r2, [sp, #24]
 8004ce8:	e7ac      	b.n	8004c44 <HAL_I2C_EV_IRQHandler+0x158>
      else if (hi2c->XferCount == 2U)
 8004cea:	8d61      	ldrh	r1, [r4, #42]	@ 0x2a
 8004cec:	b289      	uxth	r1, r1
 8004cee:	2902      	cmp	r1, #2
 8004cf0:	d138      	bne.n	8004d64 <HAL_I2C_EV_IRQHandler+0x278>
        if ((CurrentXferOptions != I2C_NEXT_FRAME) && (CurrentXferOptions != I2C_FIRST_AND_NEXT_FRAME) && (CurrentXferOptions != I2C_LAST_FRAME_NO_STOP))
 8004cf2:	2a10      	cmp	r2, #16
 8004cf4:	d803      	bhi.n	8004cfe <HAL_I2C_EV_IRQHandler+0x212>
 8004cf6:	497a      	ldr	r1, [pc, #488]	@ (8004ee0 <HAL_I2C_EV_IRQHandler+0x3f4>)
 8004cf8:	40d1      	lsrs	r1, r2
 8004cfa:	07ce      	lsls	r6, r1, #31
 8004cfc:	d418      	bmi.n	8004d30 <HAL_I2C_EV_IRQHandler+0x244>
          SET_BIT(hi2c->Instance->CR1, I2C_CR1_POS);
 8004cfe:	6819      	ldr	r1, [r3, #0]
 8004d00:	f441 6100 	orr.w	r1, r1, #2048	@ 0x800
 8004d04:	6019      	str	r1, [r3, #0]
          __HAL_I2C_CLEAR_ADDRFLAG(hi2c);
 8004d06:	2100      	movs	r1, #0
 8004d08:	9107      	str	r1, [sp, #28]
 8004d0a:	6959      	ldr	r1, [r3, #20]
 8004d0c:	9107      	str	r1, [sp, #28]
 8004d0e:	6999      	ldr	r1, [r3, #24]
 8004d10:	9107      	str	r1, [sp, #28]
 8004d12:	9907      	ldr	r1, [sp, #28]
          CLEAR_BIT(hi2c->Instance->CR1, I2C_CR1_ACK);
 8004d14:	6819      	ldr	r1, [r3, #0]
 8004d16:	f421 6180 	bic.w	r1, r1, #1024	@ 0x400
 8004d1a:	6019      	str	r1, [r3, #0]
        if (((hi2c->Instance->CR2 & I2C_CR2_DMAEN) == I2C_CR2_DMAEN) && ((CurrentXferOptions == I2C_NO_OPTION_FRAME) || (CurrentXferOptions == I2C_FIRST_FRAME) || (CurrentXferOptions == I2C_FIRST_AND_LAST_FRAME) || (CurrentXferOptions == I2C_LAST_FRAME_NO_STOP) || (CurrentXferOptions == I2C_LAST_FRAME)))
 8004d1c:	6859      	ldr	r1, [r3, #4]
 8004d1e:	050d      	lsls	r5, r1, #20
 8004d20:	d5af      	bpl.n	8004c82 <HAL_I2C_EV_IRQHandler+0x196>
 8004d22:	2a20      	cmp	r2, #32
 8004d24:	d81b      	bhi.n	8004d5e <HAL_I2C_EV_IRQHandler+0x272>
 8004d26:	2a07      	cmp	r2, #7
 8004d28:	d80e      	bhi.n	8004d48 <HAL_I2C_EV_IRQHandler+0x25c>
 8004d2a:	2a01      	cmp	r2, #1
 8004d2c:	d1a9      	bne.n	8004c82 <HAL_I2C_EV_IRQHandler+0x196>
 8004d2e:	e011      	b.n	8004d54 <HAL_I2C_EV_IRQHandler+0x268>
          SET_BIT(hi2c->Instance->CR1, I2C_CR1_ACK);
 8004d30:	6819      	ldr	r1, [r3, #0]
 8004d32:	f441 6180 	orr.w	r1, r1, #1024	@ 0x400
 8004d36:	6019      	str	r1, [r3, #0]
          __HAL_I2C_CLEAR_ADDRFLAG(hi2c);
 8004d38:	2100      	movs	r1, #0
 8004d3a:	9108      	str	r1, [sp, #32]
 8004d3c:	6959      	ldr	r1, [r3, #20]
 8004d3e:	9108      	str	r1, [sp, #32]
 8004d40:	6999      	ldr	r1, [r3, #24]
 8004d42:	9108      	str	r1, [sp, #32]
 8004d44:	9908      	ldr	r1, [sp, #32]
 8004d46:	e7e9      	b.n	8004d1c <HAL_I2C_EV_IRQHandler+0x230>
 8004d48:	f1a2 0108 	sub.w	r1, r2, #8
 8004d4c:	4a65      	ldr	r2, [pc, #404]	@ (8004ee4 <HAL_I2C_EV_IRQHandler+0x3f8>)
 8004d4e:	40ca      	lsrs	r2, r1
 8004d50:	07d0      	lsls	r0, r2, #31
 8004d52:	d596      	bpl.n	8004c82 <HAL_I2C_EV_IRQHandler+0x196>
          SET_BIT(hi2c->Instance->CR2, I2C_CR2_LAST);
 8004d54:	685a      	ldr	r2, [r3, #4]
 8004d56:	f442 5280 	orr.w	r2, r2, #4096	@ 0x1000
 8004d5a:	605a      	str	r2, [r3, #4]
 8004d5c:	e791      	b.n	8004c82 <HAL_I2C_EV_IRQHandler+0x196>
 8004d5e:	f512 3f80 	cmn.w	r2, #65536	@ 0x10000
 8004d62:	e7e3      	b.n	8004d2c <HAL_I2C_EV_IRQHandler+0x240>
        SET_BIT(hi2c->Instance->CR1, I2C_CR1_ACK);
 8004d64:	6819      	ldr	r1, [r3, #0]
 8004d66:	f441 6180 	orr.w	r1, r1, #1024	@ 0x400
 8004d6a:	6019      	str	r1, [r3, #0]
        if (((hi2c->Instance->CR2 & I2C_CR2_DMAEN) == I2C_CR2_DMAEN) && ((CurrentXferOptions == I2C_NO_OPTION_FRAME) || (CurrentXferOptions == I2C_FIRST_FRAME) || (CurrentXferOptions == I2C_FIRST_AND_LAST_FRAME) || (CurrentXferOptions == I2C_LAST_FRAME_NO_STOP) || (CurrentXferOptions == I2C_LAST_FRAME)))
 8004d6c:	6859      	ldr	r1, [r3, #4]
 8004d6e:	0509      	lsls	r1, r1, #20
 8004d70:	d510      	bpl.n	8004d94 <HAL_I2C_EV_IRQHandler+0x2a8>
 8004d72:	2a20      	cmp	r2, #32
 8004d74:	d816      	bhi.n	8004da4 <HAL_I2C_EV_IRQHandler+0x2b8>
 8004d76:	2a07      	cmp	r2, #7
 8004d78:	d806      	bhi.n	8004d88 <HAL_I2C_EV_IRQHandler+0x29c>
 8004d7a:	2a01      	cmp	r2, #1
 8004d7c:	d10a      	bne.n	8004d94 <HAL_I2C_EV_IRQHandler+0x2a8>
          SET_BIT(hi2c->Instance->CR2, I2C_CR2_LAST);
 8004d7e:	685a      	ldr	r2, [r3, #4]
 8004d80:	f442 5280 	orr.w	r2, r2, #4096	@ 0x1000
 8004d84:	605a      	str	r2, [r3, #4]
 8004d86:	e005      	b.n	8004d94 <HAL_I2C_EV_IRQHandler+0x2a8>
 8004d88:	f1a2 0108 	sub.w	r1, r2, #8
 8004d8c:	4a55      	ldr	r2, [pc, #340]	@ (8004ee4 <HAL_I2C_EV_IRQHandler+0x3f8>)
 8004d8e:	40ca      	lsrs	r2, r1
 8004d90:	07d2      	lsls	r2, r2, #31
 8004d92:	d4f4      	bmi.n	8004d7e <HAL_I2C_EV_IRQHandler+0x292>
        __HAL_I2C_CLEAR_ADDRFLAG(hi2c);
 8004d94:	2200      	movs	r2, #0
 8004d96:	9209      	str	r2, [sp, #36]	@ 0x24
 8004d98:	695a      	ldr	r2, [r3, #20]
 8004d9a:	9209      	str	r2, [sp, #36]	@ 0x24
 8004d9c:	699b      	ldr	r3, [r3, #24]
 8004d9e:	9309      	str	r3, [sp, #36]	@ 0x24
 8004da0:	9b09      	ldr	r3, [sp, #36]	@ 0x24
 8004da2:	e76e      	b.n	8004c82 <HAL_I2C_EV_IRQHandler+0x196>
 8004da4:	f512 3f80 	cmn.w	r2, #65536	@ 0x10000
 8004da8:	e7e8      	b.n	8004d7c <HAL_I2C_EV_IRQHandler+0x290>
    __HAL_I2C_CLEAR_ADDRFLAG(hi2c);
 8004daa:	2200      	movs	r2, #0
 8004dac:	920a      	str	r2, [sp, #40]	@ 0x28
 8004dae:	695a      	ldr	r2, [r3, #20]
 8004db0:	920a      	str	r2, [sp, #40]	@ 0x28
 8004db2:	699b      	ldr	r3, [r3, #24]
 8004db4:	930a      	str	r3, [sp, #40]	@ 0x28
 8004db6:	9b0a      	ldr	r3, [sp, #40]	@ 0x28
 8004db8:	e6b4      	b.n	8004b24 <HAL_I2C_EV_IRQHandler+0x38>
    else if (I2C_CHECK_FLAG(sr2itflags, I2C_FLAG_TRA) != RESET)
 8004dba:	077f      	lsls	r7, r7, #29
 8004dbc:	f140 8094 	bpl.w	8004ee8 <HAL_I2C_EV_IRQHandler+0x3fc>
      if (READ_BIT(hi2c->Instance->CR2, I2C_CR2_DMAEN) != I2C_CR2_DMAEN)
 8004dc0:	685e      	ldr	r6, [r3, #4]
 8004dc2:	0536      	lsls	r6, r6, #20
 8004dc4:	f53f aeae 	bmi.w	8004b24 <HAL_I2C_EV_IRQHandler+0x38>
        if ((I2C_CHECK_FLAG(sr1itflags, I2C_FLAG_TXE) != RESET) && (I2C_CHECK_IT_SOURCE(itsources, I2C_IT_BUF) != RESET) && (I2C_CHECK_FLAG(sr1itflags, I2C_FLAG_BTF) == RESET))
 8004dc8:	0607      	lsls	r7, r0, #24
 8004dca:	f000 0604 	and.w	r6, r0, #4
 8004dce:	d53e      	bpl.n	8004e4e <HAL_I2C_EV_IRQHandler+0x362>
 8004dd0:	0550      	lsls	r0, r2, #21
 8004dd2:	d53c      	bpl.n	8004e4e <HAL_I2C_EV_IRQHandler+0x362>
 8004dd4:	2e00      	cmp	r6, #0
 8004dd6:	d13d      	bne.n	8004e54 <HAL_I2C_EV_IRQHandler+0x368>
  HAL_I2C_StateTypeDef CurrentState = hi2c->State;
 8004dd8:	f894 203d 	ldrb.w	r2, [r4, #61]	@ 0x3d
  if ((hi2c->XferSize == 0U) && (CurrentState == HAL_I2C_STATE_BUSY_TX))
 8004ddc:	8d25      	ldrh	r5, [r4, #40]	@ 0x28
  HAL_I2C_ModeTypeDef CurrentMode   = hi2c->Mode;
 8004dde:	f894 103e 	ldrb.w	r1, [r4, #62]	@ 0x3e
  HAL_I2C_StateTypeDef CurrentState = hi2c->State;
 8004de2:	b2d2      	uxtb	r2, r2
  uint32_t CurrentXferOptions       = hi2c->XferOptions;
 8004de4:	6ae0      	ldr	r0, [r4, #44]	@ 0x2c
  HAL_I2C_ModeTypeDef CurrentMode   = hi2c->Mode;
 8004de6:	b2c9      	uxtb	r1, r1
  if ((hi2c->XferSize == 0U) && (CurrentState == HAL_I2C_STATE_BUSY_TX))
 8004de8:	b9c5      	cbnz	r5, 8004e1c <HAL_I2C_EV_IRQHandler+0x330>
 8004dea:	2a21      	cmp	r2, #33	@ 0x21
 8004dec:	d118      	bne.n	8004e20 <HAL_I2C_EV_IRQHandler+0x334>
    if ((CurrentXferOptions != I2C_FIRST_AND_LAST_FRAME) && (CurrentXferOptions != I2C_LAST_FRAME) && (CurrentXferOptions != I2C_NO_OPTION_FRAME))
 8004dee:	2808      	cmp	r0, #8
 8004df0:	d058      	beq.n	8004ea4 <HAL_I2C_EV_IRQHandler+0x3b8>
 8004df2:	2820      	cmp	r0, #32
 8004df4:	d056      	beq.n	8004ea4 <HAL_I2C_EV_IRQHandler+0x3b8>
 8004df6:	f510 3f80 	cmn.w	r0, #65536	@ 0x10000
 8004dfa:	d053      	beq.n	8004ea4 <HAL_I2C_EV_IRQHandler+0x3b8>
      __HAL_I2C_DISABLE_IT(hi2c, I2C_IT_EVT | I2C_IT_BUF | I2C_IT_ERR);
 8004dfc:	685a      	ldr	r2, [r3, #4]
 8004dfe:	f422 62e0 	bic.w	r2, r2, #1792	@ 0x700
 8004e02:	605a      	str	r2, [r3, #4]
      hi2c->PreviousState = I2C_STATE_MASTER_BUSY_TX;
 8004e04:	2311      	movs	r3, #17
 8004e06:	6323      	str	r3, [r4, #48]	@ 0x30
      hi2c->Mode = HAL_I2C_MODE_NONE;
 8004e08:	2300      	movs	r3, #0
 8004e0a:	f884 303e 	strb.w	r3, [r4, #62]	@ 0x3e
        hi2c->State = HAL_I2C_STATE_READY;
 8004e0e:	2320      	movs	r3, #32
        HAL_I2C_MasterTxCpltCallback(hi2c);
 8004e10:	4620      	mov	r0, r4
        hi2c->State = HAL_I2C_STATE_READY;
 8004e12:	f884 303d 	strb.w	r3, [r4, #61]	@ 0x3d
        HAL_I2C_MasterTxCpltCallback(hi2c);
 8004e16:	f7ff fc59 	bl	80046cc <HAL_I2C_MasterTxCpltCallback>
 8004e1a:	e683      	b.n	8004b24 <HAL_I2C_EV_IRQHandler+0x38>
  else if ((CurrentState == HAL_I2C_STATE_BUSY_TX) || \
 8004e1c:	2a21      	cmp	r2, #33	@ 0x21
 8004e1e:	d005      	beq.n	8004e2c <HAL_I2C_EV_IRQHandler+0x340>
 8004e20:	2940      	cmp	r1, #64	@ 0x40
 8004e22:	f47f ae7f 	bne.w	8004b24 <HAL_I2C_EV_IRQHandler+0x38>
           ((CurrentMode == HAL_I2C_MODE_MEM) && (CurrentState == HAL_I2C_STATE_BUSY_RX)))
 8004e26:	2a22      	cmp	r2, #34	@ 0x22
 8004e28:	f47f ae7c 	bne.w	8004b24 <HAL_I2C_EV_IRQHandler+0x38>
    if (hi2c->XferCount == 0U)
 8004e2c:	8d62      	ldrh	r2, [r4, #42]	@ 0x2a
 8004e2e:	b292      	uxth	r2, r2
 8004e30:	b91a      	cbnz	r2, 8004e3a <HAL_I2C_EV_IRQHandler+0x34e>
      __HAL_I2C_DISABLE_IT(hi2c, I2C_IT_BUF);
 8004e32:	685a      	ldr	r2, [r3, #4]
 8004e34:	f422 6280 	bic.w	r2, r2, #1024	@ 0x400
 8004e38:	e6ad      	b.n	8004b96 <HAL_I2C_EV_IRQHandler+0xaa>
      if (hi2c->Mode == HAL_I2C_MODE_MEM)
 8004e3a:	f894 203e 	ldrb.w	r2, [r4, #62]	@ 0x3e
 8004e3e:	2a40      	cmp	r2, #64	@ 0x40
 8004e40:	d116      	bne.n	8004e70 <HAL_I2C_EV_IRQHandler+0x384>
        I2C_MemoryTransmit_TXE_BTF(hi2c);
 8004e42:	4620      	mov	r0, r4
}
 8004e44:	b00f      	add	sp, #60	@ 0x3c
 8004e46:	e8bd 40f0 	ldmia.w	sp!, {r4, r5, r6, r7, lr}
        I2C_MemoryTransmit_TXE_BTF(hi2c);
 8004e4a:	f7ff bc45 	b.w	80046d8 <I2C_MemoryTransmit_TXE_BTF>
        else if ((I2C_CHECK_FLAG(sr1itflags, I2C_FLAG_BTF) != RESET) && (I2C_CHECK_IT_SOURCE(itsources, I2C_IT_EVT) != RESET))
 8004e4e:	2e00      	cmp	r6, #0
 8004e50:	f43f ae68 	beq.w	8004b24 <HAL_I2C_EV_IRQHandler+0x38>
 8004e54:	0597      	lsls	r7, r2, #22
 8004e56:	f57f ae65 	bpl.w	8004b24 <HAL_I2C_EV_IRQHandler+0x38>
          if (CurrentState == HAL_I2C_STATE_BUSY_TX)
 8004e5a:	2921      	cmp	r1, #33	@ 0x21
 8004e5c:	d139      	bne.n	8004ed2 <HAL_I2C_EV_IRQHandler+0x3e6>
  uint32_t CurrentXferOptions = hi2c->XferOptions;
 8004e5e:	6ae1      	ldr	r1, [r4, #44]	@ 0x2c
  if (hi2c->State == HAL_I2C_STATE_BUSY_TX)
 8004e60:	f894 203d 	ldrb.w	r2, [r4, #61]	@ 0x3d
 8004e64:	2a21      	cmp	r2, #33	@ 0x21
 8004e66:	f47f ae5d 	bne.w	8004b24 <HAL_I2C_EV_IRQHandler+0x38>
    if (hi2c->XferCount != 0U)
 8004e6a:	8d62      	ldrh	r2, [r4, #42]	@ 0x2a
 8004e6c:	b292      	uxth	r2, r2
 8004e6e:	b14a      	cbz	r2, 8004e84 <HAL_I2C_EV_IRQHandler+0x398>
    hi2c->Instance->DR = *hi2c->pBuffPtr;
 8004e70:	6a62      	ldr	r2, [r4, #36]	@ 0x24
 8004e72:	f812 1b01 	ldrb.w	r1, [r2], #1
 8004e76:	6119      	str	r1, [r3, #16]
    hi2c->pBuffPtr++;
 8004e78:	6262      	str	r2, [r4, #36]	@ 0x24
    hi2c->XferCount--;
 8004e7a:	8d63      	ldrh	r3, [r4, #42]	@ 0x2a
 8004e7c:	3b01      	subs	r3, #1
 8004e7e:	b29b      	uxth	r3, r3
 8004e80:	8563      	strh	r3, [r4, #42]	@ 0x2a
      }
 8004e82:	e64f      	b.n	8004b24 <HAL_I2C_EV_IRQHandler+0x38>
      if ((CurrentXferOptions != I2C_FIRST_AND_LAST_FRAME) && (CurrentXferOptions != I2C_LAST_FRAME) && (CurrentXferOptions != I2C_NO_OPTION_FRAME))
 8004e84:	2908      	cmp	r1, #8
 8004e86:	d00d      	beq.n	8004ea4 <HAL_I2C_EV_IRQHandler+0x3b8>
 8004e88:	2920      	cmp	r1, #32
 8004e8a:	d00b      	beq.n	8004ea4 <HAL_I2C_EV_IRQHandler+0x3b8>
 8004e8c:	f511 3f80 	cmn.w	r1, #65536	@ 0x10000
 8004e90:	d008      	beq.n	8004ea4 <HAL_I2C_EV_IRQHandler+0x3b8>
        __HAL_I2C_DISABLE_IT(hi2c, I2C_IT_EVT | I2C_IT_BUF | I2C_IT_ERR);
 8004e92:	6859      	ldr	r1, [r3, #4]
 8004e94:	f421 61e0 	bic.w	r1, r1, #1792	@ 0x700
 8004e98:	6059      	str	r1, [r3, #4]
        hi2c->PreviousState = I2C_STATE_MASTER_BUSY_TX;
 8004e9a:	2311      	movs	r3, #17
 8004e9c:	6323      	str	r3, [r4, #48]	@ 0x30
        hi2c->Mode = HAL_I2C_MODE_NONE;
 8004e9e:	f884 203e 	strb.w	r2, [r4, #62]	@ 0x3e
 8004ea2:	e7b4      	b.n	8004e0e <HAL_I2C_EV_IRQHandler+0x322>
        __HAL_I2C_DISABLE_IT(hi2c, I2C_IT_EVT | I2C_IT_BUF | I2C_IT_ERR);
 8004ea4:	685a      	ldr	r2, [r3, #4]
          HAL_I2C_MemTxCpltCallback(hi2c);
 8004ea6:	4620      	mov	r0, r4
        __HAL_I2C_DISABLE_IT(hi2c, I2C_IT_EVT | I2C_IT_BUF | I2C_IT_ERR);
 8004ea8:	f422 62e0 	bic.w	r2, r2, #1792	@ 0x700
 8004eac:	605a      	str	r2, [r3, #4]
        SET_BIT(hi2c->Instance->CR1, I2C_CR1_STOP);
 8004eae:	681a      	ldr	r2, [r3, #0]
 8004eb0:	f442 7200 	orr.w	r2, r2, #512	@ 0x200
 8004eb4:	601a      	str	r2, [r3, #0]
        hi2c->PreviousState = I2C_STATE_NONE;
 8004eb6:	2300      	movs	r3, #0
        hi2c->State = HAL_I2C_STATE_READY;
 8004eb8:	2220      	movs	r2, #32
        hi2c->PreviousState = I2C_STATE_NONE;
 8004eba:	6323      	str	r3, [r4, #48]	@ 0x30
        hi2c->State = HAL_I2C_STATE_READY;
 8004ebc:	f884 203d 	strb.w	r2, [r4, #61]	@ 0x3d
        if (hi2c->Mode == HAL_I2C_MODE_MEM)
 8004ec0:	f894 203e 	ldrb.w	r2, [r4, #62]	@ 0x3e
          hi2c->Mode = HAL_I2C_MODE_NONE;
 8004ec4:	f884 303e 	strb.w	r3, [r4, #62]	@ 0x3e
        if (hi2c->Mode == HAL_I2C_MODE_MEM)
 8004ec8:	2a40      	cmp	r2, #64	@ 0x40
 8004eca:	d1a4      	bne.n	8004e16 <HAL_I2C_EV_IRQHandler+0x32a>
          HAL_I2C_MemTxCpltCallback(hi2c);
 8004ecc:	f7fc f832 	bl	8000f34 <HAL_I2C_MemTxCpltCallback>
 8004ed0:	e628      	b.n	8004b24 <HAL_I2C_EV_IRQHandler+0x38>
            if (CurrentMode == HAL_I2C_MODE_MEM)
 8004ed2:	2d40      	cmp	r5, #64	@ 0x40
 8004ed4:	f47f ae26 	bne.w	8004b24 <HAL_I2C_EV_IRQHandler+0x38>
 8004ed8:	e7b3      	b.n	8004e42 <HAL_I2C_EV_IRQHandler+0x356>
 8004eda:	bf00      	nop
 8004edc:	fffeffeb 	.word	0xfffeffeb
 8004ee0:	00010014 	.word	0x00010014
 8004ee4:	01000101 	.word	0x01000101
      if (READ_BIT(hi2c->Instance->CR2, I2C_CR2_DMAEN) != I2C_CR2_DMAEN)
 8004ee8:	6859      	ldr	r1, [r3, #4]
 8004eea:	050e      	lsls	r6, r1, #20
 8004eec:	f53f ae1a 	bmi.w	8004b24 <HAL_I2C_EV_IRQHandler+0x38>
        if ((I2C_CHECK_FLAG(sr1itflags, I2C_FLAG_RXNE) != RESET) && (I2C_CHECK_IT_SOURCE(itsources, I2C_IT_BUF) != RESET) && (I2C_CHECK_FLAG(sr1itflags, I2C_FLAG_BTF) == RESET))
 8004ef0:	0645      	lsls	r5, r0, #25
 8004ef2:	f000 0104 	and.w	r1, r0, #4
 8004ef6:	f140 8086 	bpl.w	8005006 <HAL_I2C_EV_IRQHandler+0x51a>
 8004efa:	0550      	lsls	r0, r2, #21
 8004efc:	f140 8083 	bpl.w	8005006 <HAL_I2C_EV_IRQHandler+0x51a>
 8004f00:	2900      	cmp	r1, #0
 8004f02:	f040 8083 	bne.w	800500c <HAL_I2C_EV_IRQHandler+0x520>
  if (hi2c->State == HAL_I2C_STATE_BUSY_RX)
 8004f06:	f894 203d 	ldrb.w	r2, [r4, #61]	@ 0x3d
 8004f0a:	2a22      	cmp	r2, #34	@ 0x22
 8004f0c:	f47f ae0a 	bne.w	8004b24 <HAL_I2C_EV_IRQHandler+0x38>
    CurrentXferOptions = hi2c->XferOptions;
 8004f10:	6ae0      	ldr	r0, [r4, #44]	@ 0x2c
    tmp = hi2c->XferCount;
 8004f12:	8d62      	ldrh	r2, [r4, #42]	@ 0x2a
 8004f14:	b292      	uxth	r2, r2
    if (tmp > 3U)
 8004f16:	2a03      	cmp	r2, #3
 8004f18:	d914      	bls.n	8004f44 <HAL_I2C_EV_IRQHandler+0x458>
      *hi2c->pBuffPtr = (uint8_t)hi2c->Instance->DR;
 8004f1a:	691a      	ldr	r2, [r3, #16]
 8004f1c:	6a63      	ldr	r3, [r4, #36]	@ 0x24
 8004f1e:	701a      	strb	r2, [r3, #0]
      hi2c->pBuffPtr++;
 8004f20:	6a63      	ldr	r3, [r4, #36]	@ 0x24
 8004f22:	3301      	adds	r3, #1
 8004f24:	6263      	str	r3, [r4, #36]	@ 0x24
      hi2c->XferCount--;
 8004f26:	8d63      	ldrh	r3, [r4, #42]	@ 0x2a
 8004f28:	3b01      	subs	r3, #1
 8004f2a:	b29b      	uxth	r3, r3
 8004f2c:	8563      	strh	r3, [r4, #42]	@ 0x2a
      if (hi2c->XferCount == (uint16_t)3)
 8004f2e:	8d63      	ldrh	r3, [r4, #42]	@ 0x2a
 8004f30:	b29b      	uxth	r3, r3
 8004f32:	2b03      	cmp	r3, #3
 8004f34:	f47f adf6 	bne.w	8004b24 <HAL_I2C_EV_IRQHandler+0x38>
        __HAL_I2C_DISABLE_IT(hi2c, I2C_IT_BUF);
 8004f38:	6822      	ldr	r2, [r4, #0]
 8004f3a:	6853      	ldr	r3, [r2, #4]
 8004f3c:	f423 6380 	bic.w	r3, r3, #1024	@ 0x400
 8004f40:	6053      	str	r3, [r2, #4]
 8004f42:	e5ef      	b.n	8004b24 <HAL_I2C_EV_IRQHandler+0x38>
    else if ((hi2c->XferOptions != I2C_FIRST_AND_NEXT_FRAME) && ((tmp == 1U) || (tmp == 0U)))
 8004f44:	6ae5      	ldr	r5, [r4, #44]	@ 0x2c
 8004f46:	2d02      	cmp	r5, #2
 8004f48:	f43f af73 	beq.w	8004e32 <HAL_I2C_EV_IRQHandler+0x346>
 8004f4c:	2a01      	cmp	r2, #1
 8004f4e:	f63f af70 	bhi.w	8004e32 <HAL_I2C_EV_IRQHandler+0x346>
  __IO uint32_t count = 0U;
 8004f52:	910b      	str	r1, [sp, #44]	@ 0x2c
  count = I2C_TIMEOUT_STOP_FLAG * (SystemCoreClock / 25U / 1000U);
 8004f54:	f246 11a8 	movw	r1, #25000	@ 0x61a8
 8004f58:	4a79      	ldr	r2, [pc, #484]	@ (8005140 <HAL_I2C_EV_IRQHandler+0x654>)
 8004f5a:	6812      	ldr	r2, [r2, #0]
 8004f5c:	fbb2 f2f1 	udiv	r2, r2, r1
 8004f60:	eb02 0282 	add.w	r2, r2, r2, lsl #2
 8004f64:	920b      	str	r2, [sp, #44]	@ 0x2c
    count--;
 8004f66:	9a0b      	ldr	r2, [sp, #44]	@ 0x2c
 8004f68:	3a01      	subs	r2, #1
 8004f6a:	920b      	str	r2, [sp, #44]	@ 0x2c
    if (count == 0U)
 8004f6c:	990b      	ldr	r1, [sp, #44]	@ 0x2c
 8004f6e:	b9d1      	cbnz	r1, 8004fa6 <HAL_I2C_EV_IRQHandler+0x4ba>
      hi2c->ErrorCode           |= HAL_I2C_ERROR_TIMEOUT;
 8004f70:	6c22      	ldr	r2, [r4, #64]	@ 0x40
        HAL_I2C_ErrorCallback(hi2c);
 8004f72:	4620      	mov	r0, r4
      hi2c->ErrorCode           |= HAL_I2C_ERROR_TIMEOUT;
 8004f74:	f042 0220 	orr.w	r2, r2, #32
 8004f78:	6422      	str	r2, [r4, #64]	@ 0x40
        __HAL_I2C_DISABLE_IT(hi2c, I2C_IT_EVT | I2C_IT_BUF | I2C_IT_ERR);
 8004f7a:	685a      	ldr	r2, [r3, #4]
 8004f7c:	f422 62e0 	bic.w	r2, r2, #1792	@ 0x700
 8004f80:	605a      	str	r2, [r3, #4]
        *hi2c->pBuffPtr = (uint8_t)hi2c->Instance->DR;
 8004f82:	691a      	ldr	r2, [r3, #16]
 8004f84:	6a63      	ldr	r3, [r4, #36]	@ 0x24
 8004f86:	701a      	strb	r2, [r3, #0]
        hi2c->pBuffPtr++;
 8004f88:	6a63      	ldr	r3, [r4, #36]	@ 0x24
 8004f8a:	3301      	adds	r3, #1
 8004f8c:	6263      	str	r3, [r4, #36]	@ 0x24
        hi2c->XferCount--;
 8004f8e:	8d63      	ldrh	r3, [r4, #42]	@ 0x2a
 8004f90:	3b01      	subs	r3, #1
 8004f92:	b29b      	uxth	r3, r3
 8004f94:	8563      	strh	r3, [r4, #42]	@ 0x2a
        hi2c->State = HAL_I2C_STATE_READY;
 8004f96:	2320      	movs	r3, #32
 8004f98:	f884 303d 	strb.w	r3, [r4, #61]	@ 0x3d
        hi2c->Mode = HAL_I2C_MODE_NONE;
 8004f9c:	f884 103e 	strb.w	r1, [r4, #62]	@ 0x3e
        HAL_I2C_ErrorCallback(hi2c);
 8004fa0:	f7ff fbf2 	bl	8004788 <HAL_I2C_ErrorCallback>
 8004fa4:	e5be      	b.n	8004b24 <HAL_I2C_EV_IRQHandler+0x38>
  while (READ_BIT(hi2c->Instance->CR1, I2C_CR1_STOP) == I2C_CR1_STOP);
 8004fa6:	681a      	ldr	r2, [r3, #0]
 8004fa8:	f412 7200 	ands.w	r2, r2, #512	@ 0x200
 8004fac:	d1db      	bne.n	8004f66 <HAL_I2C_EV_IRQHandler+0x47a>
        CLEAR_BIT(hi2c->Instance->CR1, I2C_CR1_ACK);
 8004fae:	6819      	ldr	r1, [r3, #0]
 8004fb0:	f421 6180 	bic.w	r1, r1, #1024	@ 0x400
 8004fb4:	6019      	str	r1, [r3, #0]
        __HAL_I2C_DISABLE_IT(hi2c, I2C_IT_EVT | I2C_IT_BUF | I2C_IT_ERR);
 8004fb6:	6859      	ldr	r1, [r3, #4]
 8004fb8:	f421 61e0 	bic.w	r1, r1, #1792	@ 0x700
 8004fbc:	6059      	str	r1, [r3, #4]
        *hi2c->pBuffPtr = (uint8_t)hi2c->Instance->DR;
 8004fbe:	6919      	ldr	r1, [r3, #16]
 8004fc0:	6a63      	ldr	r3, [r4, #36]	@ 0x24
 8004fc2:	7019      	strb	r1, [r3, #0]
        hi2c->pBuffPtr++;
 8004fc4:	6a63      	ldr	r3, [r4, #36]	@ 0x24
 8004fc6:	3301      	adds	r3, #1
 8004fc8:	6263      	str	r3, [r4, #36]	@ 0x24
        hi2c->XferCount--;
 8004fca:	8d63      	ldrh	r3, [r4, #42]	@ 0x2a
 8004fcc:	3b01      	subs	r3, #1
 8004fce:	b29b      	uxth	r3, r3
 8004fd0:	8563      	strh	r3, [r4, #42]	@ 0x2a
        hi2c->State = HAL_I2C_STATE_READY;
 8004fd2:	2320      	movs	r3, #32
 8004fd4:	f884 303d 	strb.w	r3, [r4, #61]	@ 0x3d
        if (hi2c->Mode == HAL_I2C_MODE_MEM)
 8004fd8:	f894 303e 	ldrb.w	r3, [r4, #62]	@ 0x3e
          hi2c->Mode = HAL_I2C_MODE_NONE;
 8004fdc:	f884 203e 	strb.w	r2, [r4, #62]	@ 0x3e
        if (hi2c->Mode == HAL_I2C_MODE_MEM)
 8004fe0:	2b40      	cmp	r3, #64	@ 0x40
 8004fe2:	d104      	bne.n	8004fee <HAL_I2C_EV_IRQHandler+0x502>
          hi2c->PreviousState = I2C_STATE_NONE;
 8004fe4:	6322      	str	r2, [r4, #48]	@ 0x30
      HAL_I2C_MemRxCpltCallback(hi2c);
 8004fe6:	4620      	mov	r0, r4
 8004fe8:	f7fb ffaa 	bl	8000f40 <HAL_I2C_MemRxCpltCallback>
 8004fec:	e59a      	b.n	8004b24 <HAL_I2C_EV_IRQHandler+0x38>
          if ((CurrentXferOptions == I2C_FIRST_AND_LAST_FRAME) || (CurrentXferOptions == I2C_LAST_FRAME))
 8004fee:	2808      	cmp	r0, #8
 8004ff0:	d001      	beq.n	8004ff6 <HAL_I2C_EV_IRQHandler+0x50a>
 8004ff2:	2820      	cmp	r0, #32
      if ((CurrentXferOptions == I2C_FIRST_AND_LAST_FRAME) || (CurrentXferOptions == I2C_LAST_FRAME))
 8004ff4:	d101      	bne.n	8004ffa <HAL_I2C_EV_IRQHandler+0x50e>
        hi2c->PreviousState = I2C_STATE_NONE;
 8004ff6:	2300      	movs	r3, #0
 8004ff8:	e000      	b.n	8004ffc <HAL_I2C_EV_IRQHandler+0x510>
            hi2c->PreviousState = I2C_STATE_MASTER_BUSY_RX;
 8004ffa:	2312      	movs	r3, #18
          HAL_I2C_MasterRxCpltCallback(hi2c);
 8004ffc:	4620      	mov	r0, r4
            hi2c->PreviousState = I2C_STATE_MASTER_BUSY_RX;
 8004ffe:	6323      	str	r3, [r4, #48]	@ 0x30
          HAL_I2C_MasterRxCpltCallback(hi2c);
 8005000:	f7ff fb65 	bl	80046ce <HAL_I2C_MasterRxCpltCallback>
 8005004:	e58e      	b.n	8004b24 <HAL_I2C_EV_IRQHandler+0x38>
        else if ((I2C_CHECK_FLAG(sr1itflags, I2C_FLAG_BTF) != RESET) && (I2C_CHECK_IT_SOURCE(itsources, I2C_IT_EVT) != RESET))
 8005006:	2900      	cmp	r1, #0
 8005008:	f43f ad8c 	beq.w	8004b24 <HAL_I2C_EV_IRQHandler+0x38>
 800500c:	0592      	lsls	r2, r2, #22
 800500e:	f57f ad89 	bpl.w	8004b24 <HAL_I2C_EV_IRQHandler+0x38>
  uint32_t CurrentXferOptions = hi2c->XferOptions;
 8005012:	6ae2      	ldr	r2, [r4, #44]	@ 0x2c
  if (hi2c->XferCount == 4U)
 8005014:	8d60      	ldrh	r0, [r4, #42]	@ 0x2a
    hi2c->Instance->DR = *hi2c->pBuffPtr;
 8005016:	6a61      	ldr	r1, [r4, #36]	@ 0x24
  if (hi2c->XferCount == 4U)
 8005018:	b280      	uxth	r0, r0
 800501a:	2804      	cmp	r0, #4
 800501c:	d109      	bne.n	8005032 <HAL_I2C_EV_IRQHandler+0x546>
    __HAL_I2C_DISABLE_IT(hi2c, I2C_IT_BUF);
 800501e:	685a      	ldr	r2, [r3, #4]
 8005020:	f422 6280 	bic.w	r2, r2, #1024	@ 0x400
 8005024:	605a      	str	r2, [r3, #4]
    *hi2c->pBuffPtr = (uint8_t)hi2c->Instance->DR;
 8005026:	691b      	ldr	r3, [r3, #16]
 8005028:	700b      	strb	r3, [r1, #0]
    hi2c->pBuffPtr++;
 800502a:	6a63      	ldr	r3, [r4, #36]	@ 0x24
 800502c:	3301      	adds	r3, #1
 800502e:	6263      	str	r3, [r4, #36]	@ 0x24
 8005030:	e723      	b.n	8004e7a <HAL_I2C_EV_IRQHandler+0x38e>
  else if (hi2c->XferCount == 3U)
 8005032:	8d60      	ldrh	r0, [r4, #42]	@ 0x2a
 8005034:	b280      	uxth	r0, r0
 8005036:	2803      	cmp	r0, #3
 8005038:	d10c      	bne.n	8005054 <HAL_I2C_EV_IRQHandler+0x568>
    __HAL_I2C_DISABLE_IT(hi2c, I2C_IT_BUF);
 800503a:	6858      	ldr	r0, [r3, #4]
    if ((CurrentXferOptions != I2C_NEXT_FRAME) && (CurrentXferOptions != I2C_FIRST_AND_NEXT_FRAME))
 800503c:	2a04      	cmp	r2, #4
    __HAL_I2C_DISABLE_IT(hi2c, I2C_IT_BUF);
 800503e:	f420 6080 	bic.w	r0, r0, #1024	@ 0x400
 8005042:	6058      	str	r0, [r3, #4]
    if ((CurrentXferOptions != I2C_NEXT_FRAME) && (CurrentXferOptions != I2C_FIRST_AND_NEXT_FRAME))
 8005044:	d0ef      	beq.n	8005026 <HAL_I2C_EV_IRQHandler+0x53a>
 8005046:	2a02      	cmp	r2, #2
 8005048:	d0ed      	beq.n	8005026 <HAL_I2C_EV_IRQHandler+0x53a>
      CLEAR_BIT(hi2c->Instance->CR1, I2C_CR1_ACK);
 800504a:	681a      	ldr	r2, [r3, #0]
 800504c:	f422 6280 	bic.w	r2, r2, #1024	@ 0x400
 8005050:	601a      	str	r2, [r3, #0]
    *hi2c->pBuffPtr = (uint8_t)hi2c->Instance->DR;
 8005052:	e7e8      	b.n	8005026 <HAL_I2C_EV_IRQHandler+0x53a>
  else if (hi2c->XferCount == 2U)
 8005054:	8d60      	ldrh	r0, [r4, #42]	@ 0x2a
 8005056:	b280      	uxth	r0, r0
 8005058:	2802      	cmp	r0, #2
 800505a:	d1e4      	bne.n	8005026 <HAL_I2C_EV_IRQHandler+0x53a>
    if ((CurrentXferOptions == I2C_FIRST_FRAME) || (CurrentXferOptions == I2C_LAST_FRAME_NO_STOP))
 800505c:	2a04      	cmp	r2, #4
 800505e:	d033      	beq.n	80050c8 <HAL_I2C_EV_IRQHandler+0x5dc>
 8005060:	d807      	bhi.n	8005072 <HAL_I2C_EV_IRQHandler+0x586>
 8005062:	2a01      	cmp	r2, #1
 8005064:	d007      	beq.n	8005076 <HAL_I2C_EV_IRQHandler+0x58a>
 8005066:	2a02      	cmp	r2, #2
 8005068:	d02e      	beq.n	80050c8 <HAL_I2C_EV_IRQHandler+0x5dc>
      SET_BIT(hi2c->Instance->CR1, I2C_CR1_STOP);
 800506a:	6818      	ldr	r0, [r3, #0]
 800506c:	f440 7000 	orr.w	r0, r0, #512	@ 0x200
 8005070:	e004      	b.n	800507c <HAL_I2C_EV_IRQHandler+0x590>
 8005072:	2a10      	cmp	r2, #16
 8005074:	d1f9      	bne.n	800506a <HAL_I2C_EV_IRQHandler+0x57e>
      CLEAR_BIT(hi2c->Instance->CR1, I2C_CR1_ACK);
 8005076:	6818      	ldr	r0, [r3, #0]
 8005078:	f420 6080 	bic.w	r0, r0, #1024	@ 0x400
      SET_BIT(hi2c->Instance->CR1, I2C_CR1_STOP);
 800507c:	6018      	str	r0, [r3, #0]
    *hi2c->pBuffPtr = (uint8_t)hi2c->Instance->DR;
 800507e:	691b      	ldr	r3, [r3, #16]
 8005080:	700b      	strb	r3, [r1, #0]
    hi2c->pBuffPtr++;
 8005082:	6a61      	ldr	r1, [r4, #36]	@ 0x24
 8005084:	1c4b      	adds	r3, r1, #1
 8005086:	6263      	str	r3, [r4, #36]	@ 0x24
    hi2c->XferCount--;
 8005088:	8d63      	ldrh	r3, [r4, #42]	@ 0x2a
 800508a:	3b01      	subs	r3, #1
 800508c:	b29b      	uxth	r3, r3
 800508e:	8563      	strh	r3, [r4, #42]	@ 0x2a
    *hi2c->pBuffPtr = (uint8_t)hi2c->Instance->DR;
 8005090:	6823      	ldr	r3, [r4, #0]
 8005092:	691b      	ldr	r3, [r3, #16]
 8005094:	704b      	strb	r3, [r1, #1]
    hi2c->pBuffPtr++;
 8005096:	6a63      	ldr	r3, [r4, #36]	@ 0x24
    __HAL_I2C_DISABLE_IT(hi2c, I2C_IT_EVT | I2C_IT_ERR);
 8005098:	6821      	ldr	r1, [r4, #0]
    hi2c->pBuffPtr++;
 800509a:	3301      	adds	r3, #1
 800509c:	6263      	str	r3, [r4, #36]	@ 0x24
    hi2c->XferCount--;
 800509e:	8d63      	ldrh	r3, [r4, #42]	@ 0x2a
 80050a0:	3b01      	subs	r3, #1
 80050a2:	b29b      	uxth	r3, r3
 80050a4:	8563      	strh	r3, [r4, #42]	@ 0x2a
    __HAL_I2C_DISABLE_IT(hi2c, I2C_IT_EVT | I2C_IT_ERR);
 80050a6:	684b      	ldr	r3, [r1, #4]
 80050a8:	f423 7340 	bic.w	r3, r3, #768	@ 0x300
 80050ac:	604b      	str	r3, [r1, #4]
    hi2c->State = HAL_I2C_STATE_READY;
 80050ae:	2320      	movs	r3, #32
 80050b0:	f884 303d 	strb.w	r3, [r4, #61]	@ 0x3d
    if (hi2c->Mode == HAL_I2C_MODE_MEM)
 80050b4:	f894 303e 	ldrb.w	r3, [r4, #62]	@ 0x3e
 80050b8:	2b40      	cmp	r3, #64	@ 0x40
 80050ba:	f04f 0300 	mov.w	r3, #0
      hi2c->Mode = HAL_I2C_MODE_NONE;
 80050be:	f884 303e 	strb.w	r3, [r4, #62]	@ 0x3e
    if (hi2c->Mode == HAL_I2C_MODE_MEM)
 80050c2:	d105      	bne.n	80050d0 <HAL_I2C_EV_IRQHandler+0x5e4>
      hi2c->PreviousState = I2C_STATE_NONE;
 80050c4:	6323      	str	r3, [r4, #48]	@ 0x30
 80050c6:	e78e      	b.n	8004fe6 <HAL_I2C_EV_IRQHandler+0x4fa>
      SET_BIT(hi2c->Instance->CR1, I2C_CR1_ACK);
 80050c8:	6818      	ldr	r0, [r3, #0]
 80050ca:	f440 6080 	orr.w	r0, r0, #1024	@ 0x400
 80050ce:	e7d5      	b.n	800507c <HAL_I2C_EV_IRQHandler+0x590>
      if ((CurrentXferOptions == I2C_FIRST_AND_LAST_FRAME) || (CurrentXferOptions == I2C_LAST_FRAME))
 80050d0:	2a08      	cmp	r2, #8
 80050d2:	d090      	beq.n	8004ff6 <HAL_I2C_EV_IRQHandler+0x50a>
 80050d4:	2a20      	cmp	r2, #32
 80050d6:	e78d      	b.n	8004ff4 <HAL_I2C_EV_IRQHandler+0x508>
    if (hi2c->ErrorCode != HAL_I2C_ERROR_NONE)
 80050d8:	6c20      	ldr	r0, [r4, #64]	@ 0x40
 80050da:	b320      	cbz	r0, 8005126 <HAL_I2C_EV_IRQHandler+0x63a>
  uint32_t sr2itflags               = 0U;
 80050dc:	2500      	movs	r5, #0
      sr1itflags   = READ_REG(hi2c->Instance->SR1);
 80050de:	6958      	ldr	r0, [r3, #20]
    if ((I2C_CHECK_FLAG(sr1itflags, I2C_FLAG_ADDR) != RESET) && (I2C_CHECK_IT_SOURCE(itsources, I2C_IT_EVT) != RESET))
 80050e0:	0787      	lsls	r7, r0, #30
 80050e2:	d52f      	bpl.n	8005144 <HAL_I2C_EV_IRQHandler+0x658>
 80050e4:	0596      	lsls	r6, r2, #22
 80050e6:	d52d      	bpl.n	8005144 <HAL_I2C_EV_IRQHandler+0x658>
      if (hi2c->ErrorCode != HAL_I2C_ERROR_NONE)
 80050e8:	6c22      	ldr	r2, [r4, #64]	@ 0x40
 80050ea:	b102      	cbz	r2, 80050ee <HAL_I2C_EV_IRQHandler+0x602>
        sr2itflags   = READ_REG(hi2c->Instance->SR2);
 80050ec:	699d      	ldr	r5, [r3, #24]
  if (((uint32_t)hi2c->State & (uint32_t)HAL_I2C_STATE_LISTEN) == (uint32_t)HAL_I2C_STATE_LISTEN)
 80050ee:	f894 203d 	ldrb.w	r2, [r4, #61]	@ 0x3d
 80050f2:	f002 0228 	and.w	r2, r2, #40	@ 0x28
 80050f6:	2a28      	cmp	r2, #40	@ 0x28
 80050f8:	d118      	bne.n	800512c <HAL_I2C_EV_IRQHandler+0x640>
    __HAL_I2C_DISABLE_IT(hi2c, (I2C_IT_BUF));
 80050fa:	685a      	ldr	r2, [r3, #4]
    if (I2C_CHECK_FLAG(IT2Flags, I2C_FLAG_DUALF) == RESET)
 80050fc:	062f      	lsls	r7, r5, #24
    __HAL_I2C_DISABLE_IT(hi2c, (I2C_IT_BUF));
 80050fe:	f422 6280 	bic.w	r2, r2, #1024	@ 0x400
 8005102:	605a      	str	r2, [r3, #4]
    __HAL_UNLOCK(hi2c);
 8005104:	f04f 0300 	mov.w	r3, #0
      SlaveAddrCode = (uint16_t)hi2c->Init.OwnAddress1;
 8005108:	bf54      	ite	pl
 800510a:	68e2      	ldrpl	r2, [r4, #12]
      SlaveAddrCode = (uint16_t)hi2c->Init.OwnAddress2;
 800510c:	69a2      	ldrmi	r2, [r4, #24]
    if (I2C_CHECK_FLAG(IT2Flags, I2C_FLAG_TRA) == RESET)
 800510e:	f3c5 0180 	ubfx	r1, r5, #2, #1
 8005112:	f081 0101 	eor.w	r1, r1, #1
    HAL_I2C_AddrCallback(hi2c, TransferDirection, SlaveAddrCode);
 8005116:	4620      	mov	r0, r4
    if (I2C_CHECK_FLAG(IT2Flags, I2C_FLAG_TRA) == RESET)
 8005118:	b2c9      	uxtb	r1, r1
    __HAL_UNLOCK(hi2c);
 800511a:	f884 303c 	strb.w	r3, [r4, #60]	@ 0x3c
    HAL_I2C_AddrCallback(hi2c, TransferDirection, SlaveAddrCode);
 800511e:	b292      	uxth	r2, r2
 8005120:	f7ff fad8 	bl	80046d4 <HAL_I2C_AddrCallback>
 8005124:	e4fe      	b.n	8004b24 <HAL_I2C_EV_IRQHandler+0x38>
      sr2itflags   = READ_REG(hi2c->Instance->SR2);
 8005126:	699d      	ldr	r5, [r3, #24]
      sr1itflags   = READ_REG(hi2c->Instance->SR1);
 8005128:	6958      	ldr	r0, [r3, #20]
 800512a:	e7d9      	b.n	80050e0 <HAL_I2C_EV_IRQHandler+0x5f4>
    __HAL_I2C_CLEAR_ADDRFLAG(hi2c);
 800512c:	2200      	movs	r2, #0
 800512e:	920c      	str	r2, [sp, #48]	@ 0x30
 8005130:	6959      	ldr	r1, [r3, #20]
 8005132:	910c      	str	r1, [sp, #48]	@ 0x30
 8005134:	699b      	ldr	r3, [r3, #24]
    __HAL_UNLOCK(hi2c);
 8005136:	f884 203c 	strb.w	r2, [r4, #60]	@ 0x3c
    __HAL_I2C_CLEAR_ADDRFLAG(hi2c);
 800513a:	930c      	str	r3, [sp, #48]	@ 0x30
 800513c:	9b0c      	ldr	r3, [sp, #48]	@ 0x30
    __HAL_UNLOCK(hi2c);
 800513e:	e4f1      	b.n	8004b24 <HAL_I2C_EV_IRQHandler+0x38>
 8005140:	2000006c 	.word	0x2000006c
    else if ((I2C_CHECK_FLAG(sr1itflags, I2C_FLAG_STOPF) != RESET) && (I2C_CHECK_IT_SOURCE(itsources, I2C_IT_EVT) != RESET))
 8005144:	06c6      	lsls	r6, r0, #27
 8005146:	f140 80b1 	bpl.w	80052ac <HAL_I2C_EV_IRQHandler+0x7c0>
 800514a:	0595      	lsls	r5, r2, #22
 800514c:	f140 80ae 	bpl.w	80052ac <HAL_I2C_EV_IRQHandler+0x7c0>
  HAL_I2C_StateTypeDef CurrentState = hi2c->State;
 8005150:	f894 503d 	ldrb.w	r5, [r4, #61]	@ 0x3d
  __HAL_I2C_DISABLE_IT(hi2c, I2C_IT_EVT | I2C_IT_BUF | I2C_IT_ERR);
 8005154:	685a      	ldr	r2, [r3, #4]
  HAL_I2C_StateTypeDef CurrentState = hi2c->State;
 8005156:	b2ed      	uxtb	r5, r5
  __HAL_I2C_DISABLE_IT(hi2c, I2C_IT_EVT | I2C_IT_BUF | I2C_IT_ERR);
 8005158:	f422 62e0 	bic.w	r2, r2, #1792	@ 0x700
 800515c:	605a      	str	r2, [r3, #4]
  __HAL_I2C_CLEAR_STOPFLAG(hi2c);
 800515e:	2200      	movs	r2, #0
 8005160:	920d      	str	r2, [sp, #52]	@ 0x34
 8005162:	695a      	ldr	r2, [r3, #20]
 8005164:	920d      	str	r2, [sp, #52]	@ 0x34
 8005166:	681a      	ldr	r2, [r3, #0]
 8005168:	f042 0201 	orr.w	r2, r2, #1
 800516c:	601a      	str	r2, [r3, #0]
 800516e:	9a0d      	ldr	r2, [sp, #52]	@ 0x34
  CLEAR_BIT(hi2c->Instance->CR1, I2C_CR1_ACK);
 8005170:	681a      	ldr	r2, [r3, #0]
 8005172:	f422 6280 	bic.w	r2, r2, #1024	@ 0x400
 8005176:	601a      	str	r2, [r3, #0]
  if ((hi2c->Instance->CR2 & I2C_CR2_DMAEN) == I2C_CR2_DMAEN)
 8005178:	685a      	ldr	r2, [r3, #4]
 800517a:	0510      	lsls	r0, r2, #20
 800517c:	d520      	bpl.n	80051c0 <HAL_I2C_EV_IRQHandler+0x6d4>
    if ((CurrentState == HAL_I2C_STATE_BUSY_RX) || (CurrentState == HAL_I2C_STATE_BUSY_RX_LISTEN))
 800517e:	f005 02f7 	and.w	r2, r5, #247	@ 0xf7
 8005182:	2a22      	cmp	r2, #34	@ 0x22
 8005184:	d14a      	bne.n	800521c <HAL_I2C_EV_IRQHandler+0x730>
      hi2c->XferCount = (uint16_t)(I2C_GET_DMA_REMAIN_DATA(hi2c->hdmarx));
 8005186:	6ba0      	ldr	r0, [r4, #56]	@ 0x38
 8005188:	6802      	ldr	r2, [r0, #0]
 800518a:	6852      	ldr	r2, [r2, #4]
 800518c:	b292      	uxth	r2, r2
 800518e:	8562      	strh	r2, [r4, #42]	@ 0x2a
      if (hi2c->XferCount != 0U)
 8005190:	8d62      	ldrh	r2, [r4, #42]	@ 0x2a
 8005192:	b292      	uxth	r2, r2
 8005194:	b11a      	cbz	r2, 800519e <HAL_I2C_EV_IRQHandler+0x6b2>
        hi2c->ErrorCode |= HAL_I2C_ERROR_AF;
 8005196:	6c22      	ldr	r2, [r4, #64]	@ 0x40
 8005198:	f042 0204 	orr.w	r2, r2, #4
 800519c:	6422      	str	r2, [r4, #64]	@ 0x40
      CLEAR_BIT(hi2c->Instance->CR2, I2C_CR2_DMAEN);
 800519e:	685a      	ldr	r2, [r3, #4]
 80051a0:	f422 6200 	bic.w	r2, r2, #2048	@ 0x800
 80051a4:	605a      	str	r2, [r3, #4]
      if (HAL_DMA_GetState(hi2c->hdmarx) != HAL_DMA_STATE_READY)
 80051a6:	f7fe fced 	bl	8003b84 <HAL_DMA_GetState>
 80051aa:	2801      	cmp	r0, #1
 80051ac:	d008      	beq.n	80051c0 <HAL_I2C_EV_IRQHandler+0x6d4>
        hi2c->hdmarx->XferAbortCallback = I2C_DMAAbort;
 80051ae:	6ba0      	ldr	r0, [r4, #56]	@ 0x38
 80051b0:	4b79      	ldr	r3, [pc, #484]	@ (8005398 <HAL_I2C_EV_IRQHandler+0x8ac>)
 80051b2:	6343      	str	r3, [r0, #52]	@ 0x34
        if (HAL_DMA_Abort_IT(hi2c->hdmarx) != HAL_OK)
 80051b4:	f7fe fc0c 	bl	80039d0 <HAL_DMA_Abort_IT>
 80051b8:	b110      	cbz	r0, 80051c0 <HAL_I2C_EV_IRQHandler+0x6d4>
          hi2c->hdmarx->XferAbortCallback(hi2c->hdmarx);
 80051ba:	6ba0      	ldr	r0, [r4, #56]	@ 0x38
          hi2c->hdmatx->XferAbortCallback(hi2c->hdmatx);
 80051bc:	6b43      	ldr	r3, [r0, #52]	@ 0x34
 80051be:	4798      	blx	r3
  if (hi2c->XferCount != 0U)
 80051c0:	8d63      	ldrh	r3, [r4, #42]	@ 0x2a
 80051c2:	b29b      	uxth	r3, r3
 80051c4:	b313      	cbz	r3, 800520c <HAL_I2C_EV_IRQHandler+0x720>
    if (__HAL_I2C_GET_FLAG(hi2c, I2C_FLAG_BTF) == SET)
 80051c6:	6823      	ldr	r3, [r4, #0]
 80051c8:	695a      	ldr	r2, [r3, #20]
 80051ca:	0751      	lsls	r1, r2, #29
 80051cc:	d509      	bpl.n	80051e2 <HAL_I2C_EV_IRQHandler+0x6f6>
      *hi2c->pBuffPtr = (uint8_t)hi2c->Instance->DR;
 80051ce:	691a      	ldr	r2, [r3, #16]
 80051d0:	6a63      	ldr	r3, [r4, #36]	@ 0x24
 80051d2:	701a      	strb	r2, [r3, #0]
      hi2c->pBuffPtr++;
 80051d4:	6a63      	ldr	r3, [r4, #36]	@ 0x24
 80051d6:	3301      	adds	r3, #1
 80051d8:	6263      	str	r3, [r4, #36]	@ 0x24
      hi2c->XferCount--;
 80051da:	8d63      	ldrh	r3, [r4, #42]	@ 0x2a
 80051dc:	3b01      	subs	r3, #1
 80051de:	b29b      	uxth	r3, r3
 80051e0:	8563      	strh	r3, [r4, #42]	@ 0x2a
    if (__HAL_I2C_GET_FLAG(hi2c, I2C_FLAG_RXNE) == SET)
 80051e2:	6823      	ldr	r3, [r4, #0]
 80051e4:	695a      	ldr	r2, [r3, #20]
 80051e6:	0652      	lsls	r2, r2, #25
 80051e8:	d509      	bpl.n	80051fe <HAL_I2C_EV_IRQHandler+0x712>
      *hi2c->pBuffPtr = (uint8_t)hi2c->Instance->DR;
 80051ea:	691a      	ldr	r2, [r3, #16]
 80051ec:	6a63      	ldr	r3, [r4, #36]	@ 0x24
 80051ee:	701a      	strb	r2, [r3, #0]
      hi2c->pBuffPtr++;
 80051f0:	6a63      	ldr	r3, [r4, #36]	@ 0x24
 80051f2:	3301      	adds	r3, #1
 80051f4:	6263      	str	r3, [r4, #36]	@ 0x24
      hi2c->XferCount--;
 80051f6:	8d63      	ldrh	r3, [r4, #42]	@ 0x2a
 80051f8:	3b01      	subs	r3, #1
 80051fa:	b29b      	uxth	r3, r3
 80051fc:	8563      	strh	r3, [r4, #42]	@ 0x2a
    if (hi2c->XferCount != 0U)
 80051fe:	8d63      	ldrh	r3, [r4, #42]	@ 0x2a
 8005200:	b29b      	uxth	r3, r3
 8005202:	b11b      	cbz	r3, 800520c <HAL_I2C_EV_IRQHandler+0x720>
      hi2c->ErrorCode |= HAL_I2C_ERROR_AF;
 8005204:	6c23      	ldr	r3, [r4, #64]	@ 0x40
 8005206:	f043 0304 	orr.w	r3, r3, #4
 800520a:	6423      	str	r3, [r4, #64]	@ 0x40
  if (hi2c->ErrorCode != HAL_I2C_ERROR_NONE)
 800520c:	6c23      	ldr	r3, [r4, #64]	@ 0x40
 800520e:	b313      	cbz	r3, 8005256 <HAL_I2C_EV_IRQHandler+0x76a>
    I2C_ITError(hi2c);
 8005210:	4620      	mov	r0, r4
}
 8005212:	b00f      	add	sp, #60	@ 0x3c
 8005214:	e8bd 40f0 	ldmia.w	sp!, {r4, r5, r6, r7, lr}
    I2C_ITError(hi2c);
 8005218:	f7ff bbc0 	b.w	800499c <I2C_ITError>
      hi2c->XferCount = (uint16_t)(I2C_GET_DMA_REMAIN_DATA(hi2c->hdmatx));
 800521c:	6b60      	ldr	r0, [r4, #52]	@ 0x34
 800521e:	6802      	ldr	r2, [r0, #0]
 8005220:	6852      	ldr	r2, [r2, #4]
 8005222:	b292      	uxth	r2, r2
 8005224:	8562      	strh	r2, [r4, #42]	@ 0x2a
      if (hi2c->XferCount != 0U)
 8005226:	8d62      	ldrh	r2, [r4, #42]	@ 0x2a
 8005228:	b292      	uxth	r2, r2
 800522a:	b11a      	cbz	r2, 8005234 <HAL_I2C_EV_IRQHandler+0x748>
        hi2c->ErrorCode |= HAL_I2C_ERROR_AF;
 800522c:	6c22      	ldr	r2, [r4, #64]	@ 0x40
 800522e:	f042 0204 	orr.w	r2, r2, #4
 8005232:	6422      	str	r2, [r4, #64]	@ 0x40
      CLEAR_BIT(hi2c->Instance->CR2, I2C_CR2_DMAEN);
 8005234:	685a      	ldr	r2, [r3, #4]
 8005236:	f422 6200 	bic.w	r2, r2, #2048	@ 0x800
 800523a:	605a      	str	r2, [r3, #4]
      if (HAL_DMA_GetState(hi2c->hdmatx) != HAL_DMA_STATE_READY)
 800523c:	f7fe fca2 	bl	8003b84 <HAL_DMA_GetState>
 8005240:	2801      	cmp	r0, #1
 8005242:	d0bd      	beq.n	80051c0 <HAL_I2C_EV_IRQHandler+0x6d4>
        hi2c->hdmatx->XferAbortCallback = I2C_DMAAbort;
 8005244:	6b60      	ldr	r0, [r4, #52]	@ 0x34
 8005246:	4b54      	ldr	r3, [pc, #336]	@ (8005398 <HAL_I2C_EV_IRQHandler+0x8ac>)
 8005248:	6343      	str	r3, [r0, #52]	@ 0x34
        if (HAL_DMA_Abort_IT(hi2c->hdmatx) != HAL_OK)
 800524a:	f7fe fbc1 	bl	80039d0 <HAL_DMA_Abort_IT>
 800524e:	2800      	cmp	r0, #0
 8005250:	d0b6      	beq.n	80051c0 <HAL_I2C_EV_IRQHandler+0x6d4>
          hi2c->hdmatx->XferAbortCallback(hi2c->hdmatx);
 8005252:	6b60      	ldr	r0, [r4, #52]	@ 0x34
 8005254:	e7b2      	b.n	80051bc <HAL_I2C_EV_IRQHandler+0x6d0>
    if (CurrentState == HAL_I2C_STATE_BUSY_RX_LISTEN)
 8005256:	2d2a      	cmp	r5, #42	@ 0x2a
 8005258:	d106      	bne.n	8005268 <HAL_I2C_EV_IRQHandler+0x77c>
      hi2c->PreviousState = I2C_STATE_NONE;
 800525a:	6323      	str	r3, [r4, #48]	@ 0x30
      hi2c->State = HAL_I2C_STATE_LISTEN;
 800525c:	2328      	movs	r3, #40	@ 0x28
      HAL_I2C_SlaveRxCpltCallback(hi2c);
 800525e:	4620      	mov	r0, r4
      hi2c->State = HAL_I2C_STATE_LISTEN;
 8005260:	f884 303d 	strb.w	r3, [r4, #61]	@ 0x3d
      HAL_I2C_SlaveRxCpltCallback(hi2c);
 8005264:	f7ff fa35 	bl	80046d2 <HAL_I2C_SlaveRxCpltCallback>
    if (hi2c->State == HAL_I2C_STATE_LISTEN)
 8005268:	f894 303d 	ldrb.w	r3, [r4, #61]	@ 0x3d
 800526c:	2b28      	cmp	r3, #40	@ 0x28
 800526e:	d10c      	bne.n	800528a <HAL_I2C_EV_IRQHandler+0x79e>
      hi2c->XferOptions = I2C_NO_OPTION_FRAME;
 8005270:	4b4a      	ldr	r3, [pc, #296]	@ (800539c <HAL_I2C_EV_IRQHandler+0x8b0>)
      hi2c->State = HAL_I2C_STATE_READY;
 8005272:	2220      	movs	r2, #32
      hi2c->XferOptions = I2C_NO_OPTION_FRAME;
 8005274:	62e3      	str	r3, [r4, #44]	@ 0x2c
      hi2c->PreviousState = I2C_STATE_NONE;
 8005276:	2300      	movs	r3, #0
      HAL_I2C_ListenCpltCallback(hi2c);
 8005278:	4620      	mov	r0, r4
      hi2c->PreviousState = I2C_STATE_NONE;
 800527a:	6323      	str	r3, [r4, #48]	@ 0x30
      hi2c->State = HAL_I2C_STATE_READY;
 800527c:	f884 203d 	strb.w	r2, [r4, #61]	@ 0x3d
      hi2c->Mode = HAL_I2C_MODE_NONE;
 8005280:	f884 303e 	strb.w	r3, [r4, #62]	@ 0x3e
      HAL_I2C_ListenCpltCallback(hi2c);
 8005284:	f7ff fa27 	bl	80046d6 <HAL_I2C_ListenCpltCallback>
 8005288:	e44c      	b.n	8004b24 <HAL_I2C_EV_IRQHandler+0x38>
      if ((hi2c->PreviousState  == I2C_STATE_SLAVE_BUSY_RX) || (CurrentState == HAL_I2C_STATE_BUSY_RX))
 800528a:	6b23      	ldr	r3, [r4, #48]	@ 0x30
 800528c:	2b22      	cmp	r3, #34	@ 0x22
 800528e:	d002      	beq.n	8005296 <HAL_I2C_EV_IRQHandler+0x7aa>
 8005290:	2d22      	cmp	r5, #34	@ 0x22
 8005292:	f47f ac47 	bne.w	8004b24 <HAL_I2C_EV_IRQHandler+0x38>
        hi2c->PreviousState = I2C_STATE_NONE;
 8005296:	2300      	movs	r3, #0
        hi2c->State = HAL_I2C_STATE_READY;
 8005298:	2220      	movs	r2, #32
        hi2c->PreviousState = I2C_STATE_NONE;
 800529a:	6323      	str	r3, [r4, #48]	@ 0x30
        hi2c->State = HAL_I2C_STATE_READY;
 800529c:	f884 203d 	strb.w	r2, [r4, #61]	@ 0x3d
        hi2c->Mode = HAL_I2C_MODE_NONE;
 80052a0:	f884 303e 	strb.w	r3, [r4, #62]	@ 0x3e
      HAL_I2C_SlaveRxCpltCallback(hi2c);
 80052a4:	4620      	mov	r0, r4
 80052a6:	f7ff fa14 	bl	80046d2 <HAL_I2C_SlaveRxCpltCallback>
 80052aa:	e43b      	b.n	8004b24 <HAL_I2C_EV_IRQHandler+0x38>
    else if ((CurrentState == HAL_I2C_STATE_BUSY_TX) || (CurrentState == HAL_I2C_STATE_BUSY_TX_LISTEN))
 80052ac:	f001 01f7 	and.w	r1, r1, #247	@ 0xf7
 80052b0:	2921      	cmp	r1, #33	@ 0x21
 80052b2:	f000 0504 	and.w	r5, r0, #4
 80052b6:	d135      	bne.n	8005324 <HAL_I2C_EV_IRQHandler+0x838>
      if ((I2C_CHECK_FLAG(sr1itflags, I2C_FLAG_TXE) != RESET) && (I2C_CHECK_IT_SOURCE(itsources, I2C_IT_BUF) != RESET) && (I2C_CHECK_FLAG(sr1itflags, I2C_FLAG_BTF) == RESET))
 80052b8:	0607      	lsls	r7, r0, #24
 80052ba:	d527      	bpl.n	800530c <HAL_I2C_EV_IRQHandler+0x820>
 80052bc:	0556      	lsls	r6, r2, #21
 80052be:	d525      	bpl.n	800530c <HAL_I2C_EV_IRQHandler+0x820>
 80052c0:	bb3d      	cbnz	r5, 8005312 <HAL_I2C_EV_IRQHandler+0x826>
  HAL_I2C_StateTypeDef CurrentState = hi2c->State;
 80052c2:	f894 003d 	ldrb.w	r0, [r4, #61]	@ 0x3d
  if (hi2c->XferCount != 0U)
 80052c6:	8d62      	ldrh	r2, [r4, #42]	@ 0x2a
  HAL_I2C_StateTypeDef CurrentState = hi2c->State;
 80052c8:	b2c0      	uxtb	r0, r0
  if (hi2c->XferCount != 0U)
 80052ca:	b292      	uxth	r2, r2
 80052cc:	2a00      	cmp	r2, #0
 80052ce:	f43f ac29 	beq.w	8004b24 <HAL_I2C_EV_IRQHandler+0x38>
    hi2c->Instance->DR = *hi2c->pBuffPtr;
 80052d2:	6a62      	ldr	r2, [r4, #36]	@ 0x24
 80052d4:	f812 5b01 	ldrb.w	r5, [r2], #1
 80052d8:	611d      	str	r5, [r3, #16]
    hi2c->pBuffPtr++;
 80052da:	6262      	str	r2, [r4, #36]	@ 0x24
    hi2c->XferCount--;
 80052dc:	8d62      	ldrh	r2, [r4, #42]	@ 0x2a
 80052de:	3a01      	subs	r2, #1
 80052e0:	b292      	uxth	r2, r2
 80052e2:	8562      	strh	r2, [r4, #42]	@ 0x2a
    if ((hi2c->XferCount == 0U) && (CurrentState == HAL_I2C_STATE_BUSY_TX_LISTEN))
 80052e4:	8d62      	ldrh	r2, [r4, #42]	@ 0x2a
 80052e6:	b292      	uxth	r2, r2
 80052e8:	2a00      	cmp	r2, #0
 80052ea:	f47f ac1b 	bne.w	8004b24 <HAL_I2C_EV_IRQHandler+0x38>
 80052ee:	2829      	cmp	r0, #41	@ 0x29
 80052f0:	f47f ac18 	bne.w	8004b24 <HAL_I2C_EV_IRQHandler+0x38>
      __HAL_I2C_DISABLE_IT(hi2c, I2C_IT_BUF);
 80052f4:	685a      	ldr	r2, [r3, #4]
      HAL_I2C_SlaveTxCpltCallback(hi2c);
 80052f6:	4620      	mov	r0, r4
      __HAL_I2C_DISABLE_IT(hi2c, I2C_IT_BUF);
 80052f8:	f422 6280 	bic.w	r2, r2, #1024	@ 0x400
 80052fc:	605a      	str	r2, [r3, #4]
      hi2c->State = HAL_I2C_STATE_LISTEN;
 80052fe:	2328      	movs	r3, #40	@ 0x28
      hi2c->PreviousState = I2C_STATE_SLAVE_BUSY_TX;
 8005300:	6321      	str	r1, [r4, #48]	@ 0x30
      hi2c->State = HAL_I2C_STATE_LISTEN;
 8005302:	f884 303d 	strb.w	r3, [r4, #61]	@ 0x3d
      HAL_I2C_SlaveTxCpltCallback(hi2c);
 8005306:	f7ff f9e3 	bl	80046d0 <HAL_I2C_SlaveTxCpltCallback>
 800530a:	e40b      	b.n	8004b24 <HAL_I2C_EV_IRQHandler+0x38>
      else if ((I2C_CHECK_FLAG(sr1itflags, I2C_FLAG_BTF) != RESET) && (I2C_CHECK_IT_SOURCE(itsources, I2C_IT_EVT) != RESET))
 800530c:	2d00      	cmp	r5, #0
 800530e:	f43f ac09 	beq.w	8004b24 <HAL_I2C_EV_IRQHandler+0x38>
 8005312:	0595      	lsls	r5, r2, #22
 8005314:	f57f ac06 	bpl.w	8004b24 <HAL_I2C_EV_IRQHandler+0x38>
  if (hi2c->XferCount != 0U)
 8005318:	8d62      	ldrh	r2, [r4, #42]	@ 0x2a
 800531a:	b292      	uxth	r2, r2
 800531c:	2a00      	cmp	r2, #0
 800531e:	f43f ac01 	beq.w	8004b24 <HAL_I2C_EV_IRQHandler+0x38>
 8005322:	e5a5      	b.n	8004e70 <HAL_I2C_EV_IRQHandler+0x384>
      if ((I2C_CHECK_FLAG(sr1itflags, I2C_FLAG_RXNE) != RESET) && (I2C_CHECK_IT_SOURCE(itsources, I2C_IT_BUF) != RESET) && (I2C_CHECK_FLAG(sr1itflags, I2C_FLAG_BTF) == RESET))
 8005324:	0640      	lsls	r0, r0, #25
 8005326:	d527      	bpl.n	8005378 <HAL_I2C_EV_IRQHandler+0x88c>
 8005328:	0551      	lsls	r1, r2, #21
 800532a:	d525      	bpl.n	8005378 <HAL_I2C_EV_IRQHandler+0x88c>
 800532c:	bb3d      	cbnz	r5, 800537e <HAL_I2C_EV_IRQHandler+0x892>
  HAL_I2C_StateTypeDef CurrentState = hi2c->State;
 800532e:	f894 203d 	ldrb.w	r2, [r4, #61]	@ 0x3d
  if (hi2c->XferCount != 0U)
 8005332:	8d61      	ldrh	r1, [r4, #42]	@ 0x2a
  HAL_I2C_StateTypeDef CurrentState = hi2c->State;
 8005334:	b2d2      	uxtb	r2, r2
  if (hi2c->XferCount != 0U)
 8005336:	b289      	uxth	r1, r1
 8005338:	2900      	cmp	r1, #0
 800533a:	f43f abf3 	beq.w	8004b24 <HAL_I2C_EV_IRQHandler+0x38>
    *hi2c->pBuffPtr = (uint8_t)hi2c->Instance->DR;
 800533e:	6919      	ldr	r1, [r3, #16]
 8005340:	6a63      	ldr	r3, [r4, #36]	@ 0x24
 8005342:	7019      	strb	r1, [r3, #0]
    hi2c->pBuffPtr++;
 8005344:	6a63      	ldr	r3, [r4, #36]	@ 0x24
 8005346:	3301      	adds	r3, #1
 8005348:	6263      	str	r3, [r4, #36]	@ 0x24
    hi2c->XferCount--;
 800534a:	8d63      	ldrh	r3, [r4, #42]	@ 0x2a
 800534c:	3b01      	subs	r3, #1
 800534e:	b29b      	uxth	r3, r3
 8005350:	8563      	strh	r3, [r4, #42]	@ 0x2a
    if ((hi2c->XferCount == 0U) && (CurrentState == HAL_I2C_STATE_BUSY_RX_LISTEN))
 8005352:	8d63      	ldrh	r3, [r4, #42]	@ 0x2a
 8005354:	b29b      	uxth	r3, r3
 8005356:	2b00      	cmp	r3, #0
 8005358:	f47f abe4 	bne.w	8004b24 <HAL_I2C_EV_IRQHandler+0x38>
 800535c:	2a2a      	cmp	r2, #42	@ 0x2a
 800535e:	f47f abe1 	bne.w	8004b24 <HAL_I2C_EV_IRQHandler+0x38>
      __HAL_I2C_DISABLE_IT(hi2c, I2C_IT_BUF);
 8005362:	6822      	ldr	r2, [r4, #0]
 8005364:	6853      	ldr	r3, [r2, #4]
 8005366:	f423 6380 	bic.w	r3, r3, #1024	@ 0x400
 800536a:	6053      	str	r3, [r2, #4]
      hi2c->PreviousState = I2C_STATE_SLAVE_BUSY_RX;
 800536c:	2322      	movs	r3, #34	@ 0x22
 800536e:	6323      	str	r3, [r4, #48]	@ 0x30
      hi2c->State = HAL_I2C_STATE_LISTEN;
 8005370:	2328      	movs	r3, #40	@ 0x28
 8005372:	f884 303d 	strb.w	r3, [r4, #61]	@ 0x3d
 8005376:	e795      	b.n	80052a4 <HAL_I2C_EV_IRQHandler+0x7b8>
      else if ((I2C_CHECK_FLAG(sr1itflags, I2C_FLAG_BTF) != RESET) && (I2C_CHECK_IT_SOURCE(itsources, I2C_IT_EVT) != RESET))
 8005378:	2d00      	cmp	r5, #0
 800537a:	f43f abd3 	beq.w	8004b24 <HAL_I2C_EV_IRQHandler+0x38>
 800537e:	0592      	lsls	r2, r2, #22
 8005380:	f57f abd0 	bpl.w	8004b24 <HAL_I2C_EV_IRQHandler+0x38>
  if (hi2c->XferCount != 0U)
 8005384:	8d62      	ldrh	r2, [r4, #42]	@ 0x2a
 8005386:	b292      	uxth	r2, r2
 8005388:	2a00      	cmp	r2, #0
 800538a:	f43f abcb 	beq.w	8004b24 <HAL_I2C_EV_IRQHandler+0x38>
    *hi2c->pBuffPtr = (uint8_t)hi2c->Instance->DR;
 800538e:	691a      	ldr	r2, [r3, #16]
 8005390:	6a63      	ldr	r3, [r4, #36]	@ 0x24
 8005392:	701a      	strb	r2, [r3, #0]
 8005394:	e649      	b.n	800502a <HAL_I2C_EV_IRQHandler+0x53e>
 8005396:	bf00      	nop
 8005398:	080048dd 	.word	0x080048dd
 800539c:	ffff0000 	.word	0xffff0000

080053a0 <HAL_I2C_ER_IRQHandler>:
{
 80053a0:	b5f8      	push	{r3, r4, r5, r6, r7, lr}
  uint32_t sr1itflags = READ_REG(hi2c->Instance->SR1);
 80053a2:	6803      	ldr	r3, [r0, #0]
{
 80053a4:	4604      	mov	r4, r0
  uint32_t sr1itflags = READ_REG(hi2c->Instance->SR1);
 80053a6:	695f      	ldr	r7, [r3, #20]
  uint32_t itsources  = READ_REG(hi2c->Instance->CR2);
 80053a8:	685e      	ldr	r6, [r3, #4]
  HAL_I2C_ModeTypeDef CurrentMode   = hi2c->Mode;
 80053aa:	f890 203e 	ldrb.w	r2, [r0, #62]	@ 0x3e
  if ((I2C_CHECK_FLAG(sr1itflags, I2C_FLAG_BERR) != RESET) && (I2C_CHECK_IT_SOURCE(itsources, I2C_IT_ERR) != RESET))
 80053ae:	f417 7580 	ands.w	r5, r7, #256	@ 0x100
  HAL_I2C_ModeTypeDef CurrentMode   = hi2c->Mode;
 80053b2:	b2d2      	uxtb	r2, r2
  if ((I2C_CHECK_FLAG(sr1itflags, I2C_FLAG_BERR) != RESET) && (I2C_CHECK_IT_SOURCE(itsources, I2C_IT_ERR) != RESET))
 80053b4:	d00a      	beq.n	80053cc <HAL_I2C_ER_IRQHandler+0x2c>
 80053b6:	f416 7580 	ands.w	r5, r6, #256	@ 0x100
 80053ba:	d007      	beq.n	80053cc <HAL_I2C_ER_IRQHandler+0x2c>
    __HAL_I2C_CLEAR_FLAG(hi2c, I2C_FLAG_BERR);
 80053bc:	f46f 7180 	mvn.w	r1, #256	@ 0x100
    error |= HAL_I2C_ERROR_BERR;
 80053c0:	2501      	movs	r5, #1
    __HAL_I2C_CLEAR_FLAG(hi2c, I2C_FLAG_BERR);
 80053c2:	6159      	str	r1, [r3, #20]
    SET_BIT(hi2c->Instance->CR1, I2C_CR1_SWRST);
 80053c4:	6819      	ldr	r1, [r3, #0]
 80053c6:	f441 4100 	orr.w	r1, r1, #32768	@ 0x8000
 80053ca:	6019      	str	r1, [r3, #0]
  if ((I2C_CHECK_FLAG(sr1itflags, I2C_FLAG_ARLO) != RESET) && (I2C_CHECK_IT_SOURCE(itsources, I2C_IT_ERR) != RESET))
 80053cc:	05b8      	lsls	r0, r7, #22
 80053ce:	d506      	bpl.n	80053de <HAL_I2C_ER_IRQHandler+0x3e>
 80053d0:	05f1      	lsls	r1, r6, #23
    __HAL_I2C_CLEAR_FLAG(hi2c, I2C_FLAG_ARLO);
 80053d2:	bf42      	ittt	mi
 80053d4:	f46f 7100 	mvnmi.w	r1, #512	@ 0x200
    error |= HAL_I2C_ERROR_ARLO;
 80053d8:	f045 0502 	orrmi.w	r5, r5, #2
    __HAL_I2C_CLEAR_FLAG(hi2c, I2C_FLAG_ARLO);
 80053dc:	6159      	strmi	r1, [r3, #20]
  if ((I2C_CHECK_FLAG(sr1itflags, I2C_FLAG_AF) != RESET) && (I2C_CHECK_IT_SOURCE(itsources, I2C_IT_ERR) != RESET))
 80053de:	0578      	lsls	r0, r7, #21
 80053e0:	d536      	bpl.n	8005450 <HAL_I2C_ER_IRQHandler+0xb0>
 80053e2:	05f1      	lsls	r1, r6, #23
 80053e4:	d534      	bpl.n	8005450 <HAL_I2C_ER_IRQHandler+0xb0>
    tmp2 = hi2c->XferCount;
 80053e6:	8d60      	ldrh	r0, [r4, #42]	@ 0x2a
    tmp3 = hi2c->State;
 80053e8:	f894 103d 	ldrb.w	r1, [r4, #61]	@ 0x3d
    if ((tmp1 == HAL_I2C_MODE_SLAVE) && (tmp2 == 0U) && \
 80053ec:	2a20      	cmp	r2, #32
    tmp4 = hi2c->PreviousState;
 80053ee:	f8d4 c030 	ldr.w	ip, [r4, #48]	@ 0x30
    tmp2 = hi2c->XferCount;
 80053f2:	b280      	uxth	r0, r0
    tmp3 = hi2c->State;
 80053f4:	b2c9      	uxtb	r1, r1
    if ((tmp1 == HAL_I2C_MODE_SLAVE) && (tmp2 == 0U) && \
 80053f6:	d15f      	bne.n	80054b8 <HAL_I2C_ER_IRQHandler+0x118>
 80053f8:	2800      	cmp	r0, #0
 80053fa:	d15d      	bne.n	80054b8 <HAL_I2C_ER_IRQHandler+0x118>
 80053fc:	f001 00f7 	and.w	r0, r1, #247	@ 0xf7
 8005400:	2821      	cmp	r0, #33	@ 0x21
 8005402:	d004      	beq.n	800540e <HAL_I2C_ER_IRQHandler+0x6e>
        ((tmp3 == HAL_I2C_STATE_BUSY_TX) || (tmp3 == HAL_I2C_STATE_BUSY_TX_LISTEN) || \
 8005404:	2928      	cmp	r1, #40	@ 0x28
 8005406:	d157      	bne.n	80054b8 <HAL_I2C_ER_IRQHandler+0x118>
         ((tmp3 == HAL_I2C_STATE_LISTEN) && (tmp4 == I2C_STATE_SLAVE_BUSY_TX))))
 8005408:	f1bc 0f21 	cmp.w	ip, #33	@ 0x21
 800540c:	d154      	bne.n	80054b8 <HAL_I2C_ER_IRQHandler+0x118>
  HAL_I2C_StateTypeDef CurrentState = hi2c->State;
 800540e:	f894 203d 	ldrb.w	r2, [r4, #61]	@ 0x3d
  uint32_t CurrentXferOptions       = hi2c->XferOptions;
 8005412:	6ae1      	ldr	r1, [r4, #44]	@ 0x2c
  HAL_I2C_StateTypeDef CurrentState = hi2c->State;
 8005414:	b2d2      	uxtb	r2, r2
  if (((CurrentXferOptions ==  I2C_FIRST_AND_LAST_FRAME) || (CurrentXferOptions == I2C_LAST_FRAME)) && \
 8005416:	2908      	cmp	r1, #8
 8005418:	d001      	beq.n	800541e <HAL_I2C_ER_IRQHandler+0x7e>
 800541a:	2920      	cmp	r1, #32
 800541c:	d12a      	bne.n	8005474 <HAL_I2C_ER_IRQHandler+0xd4>
 800541e:	2a28      	cmp	r2, #40	@ 0x28
 8005420:	d128      	bne.n	8005474 <HAL_I2C_ER_IRQHandler+0xd4>
    hi2c->XferOptions = I2C_NO_OPTION_FRAME;
 8005422:	4a2e      	ldr	r2, [pc, #184]	@ (80054dc <HAL_I2C_ER_IRQHandler+0x13c>)
    HAL_I2C_ListenCpltCallback(hi2c);
 8005424:	4620      	mov	r0, r4
    hi2c->XferOptions = I2C_NO_OPTION_FRAME;
 8005426:	62e2      	str	r2, [r4, #44]	@ 0x2c
    __HAL_I2C_DISABLE_IT(hi2c, I2C_IT_EVT | I2C_IT_BUF | I2C_IT_ERR);
 8005428:	685a      	ldr	r2, [r3, #4]
 800542a:	f422 62e0 	bic.w	r2, r2, #1792	@ 0x700
 800542e:	605a      	str	r2, [r3, #4]
    __HAL_I2C_CLEAR_FLAG(hi2c, I2C_FLAG_AF);
 8005430:	f46f 6280 	mvn.w	r2, #1024	@ 0x400
 8005434:	615a      	str	r2, [r3, #20]
    CLEAR_BIT(hi2c->Instance->CR1, I2C_CR1_ACK);
 8005436:	681a      	ldr	r2, [r3, #0]
 8005438:	f422 6280 	bic.w	r2, r2, #1024	@ 0x400
 800543c:	601a      	str	r2, [r3, #0]
    hi2c->PreviousState = I2C_STATE_NONE;
 800543e:	2300      	movs	r3, #0
    hi2c->State         = HAL_I2C_STATE_READY;
 8005440:	2220      	movs	r2, #32
    hi2c->PreviousState = I2C_STATE_NONE;
 8005442:	6323      	str	r3, [r4, #48]	@ 0x30
    hi2c->State         = HAL_I2C_STATE_READY;
 8005444:	f884 203d 	strb.w	r2, [r4, #61]	@ 0x3d
    hi2c->Mode          = HAL_I2C_MODE_NONE;
 8005448:	f884 303e 	strb.w	r3, [r4, #62]	@ 0x3e
    HAL_I2C_ListenCpltCallback(hi2c);
 800544c:	f7ff f943 	bl	80046d6 <HAL_I2C_ListenCpltCallback>
  if ((I2C_CHECK_FLAG(sr1itflags, I2C_FLAG_OVR) != RESET) && (I2C_CHECK_IT_SOURCE(itsources, I2C_IT_ERR) != RESET))
 8005450:	053a      	lsls	r2, r7, #20
 8005452:	d53f      	bpl.n	80054d4 <HAL_I2C_ER_IRQHandler+0x134>
 8005454:	05f3      	lsls	r3, r6, #23
 8005456:	d53d      	bpl.n	80054d4 <HAL_I2C_ER_IRQHandler+0x134>
    __HAL_I2C_CLEAR_FLAG(hi2c, I2C_FLAG_OVR);
 8005458:	f46f 6200 	mvn.w	r2, #2048	@ 0x800
 800545c:	6823      	ldr	r3, [r4, #0]
    error |= HAL_I2C_ERROR_OVR;
 800545e:	f045 0508 	orr.w	r5, r5, #8
    __HAL_I2C_CLEAR_FLAG(hi2c, I2C_FLAG_OVR);
 8005462:	615a      	str	r2, [r3, #20]
    hi2c->ErrorCode |= error;
 8005464:	6c23      	ldr	r3, [r4, #64]	@ 0x40
    I2C_ITError(hi2c);
 8005466:	4620      	mov	r0, r4
    hi2c->ErrorCode |= error;
 8005468:	431d      	orrs	r5, r3
 800546a:	6425      	str	r5, [r4, #64]	@ 0x40
}
 800546c:	e8bd 40f8 	ldmia.w	sp!, {r3, r4, r5, r6, r7, lr}
    I2C_ITError(hi2c);
 8005470:	f7ff ba94 	b.w	800499c <I2C_ITError>
  else if (CurrentState == HAL_I2C_STATE_BUSY_TX)
 8005474:	2a21      	cmp	r2, #33	@ 0x21
 8005476:	d11b      	bne.n	80054b0 <HAL_I2C_ER_IRQHandler+0x110>
    hi2c->XferOptions   = I2C_NO_OPTION_FRAME;
 8005478:	4918      	ldr	r1, [pc, #96]	@ (80054dc <HAL_I2C_ER_IRQHandler+0x13c>)
 800547a:	62e1      	str	r1, [r4, #44]	@ 0x2c
    hi2c->PreviousState = I2C_STATE_SLAVE_BUSY_TX;
 800547c:	6322      	str	r2, [r4, #48]	@ 0x30
    hi2c->Mode          = HAL_I2C_MODE_NONE;
 800547e:	2100      	movs	r1, #0
    hi2c->State         = HAL_I2C_STATE_READY;
 8005480:	2220      	movs	r2, #32
 8005482:	f884 203d 	strb.w	r2, [r4, #61]	@ 0x3d
    hi2c->Mode          = HAL_I2C_MODE_NONE;
 8005486:	f884 103e 	strb.w	r1, [r4, #62]	@ 0x3e
    __HAL_I2C_DISABLE_IT(hi2c, I2C_IT_EVT | I2C_IT_BUF | I2C_IT_ERR);
 800548a:	685a      	ldr	r2, [r3, #4]
 800548c:	f422 62e0 	bic.w	r2, r2, #1792	@ 0x700
 8005490:	605a      	str	r2, [r3, #4]
    __HAL_I2C_CLEAR_FLAG(hi2c, I2C_FLAG_AF);
 8005492:	f46f 6280 	mvn.w	r2, #1024	@ 0x400
 8005496:	615a      	str	r2, [r3, #20]
    CLEAR_BIT(hi2c->Instance->CR1, I2C_CR1_ACK);
 8005498:	681a      	ldr	r2, [r3, #0]
 800549a:	f422 6280 	bic.w	r2, r2, #1024	@ 0x400
 800549e:	601a      	str	r2, [r3, #0]
  if (__HAL_I2C_GET_FLAG(hi2c, I2C_FLAG_TXE) != RESET)
 80054a0:	695a      	ldr	r2, [r3, #20]
 80054a2:	0610      	lsls	r0, r2, #24
    hi2c->Instance->DR = 0x00U;
 80054a4:	bf48      	it	mi
 80054a6:	6119      	strmi	r1, [r3, #16]
    HAL_I2C_SlaveTxCpltCallback(hi2c);
 80054a8:	4620      	mov	r0, r4
 80054aa:	f7ff f911 	bl	80046d0 <HAL_I2C_SlaveTxCpltCallback>
 80054ae:	e7cf      	b.n	8005450 <HAL_I2C_ER_IRQHandler+0xb0>
    __HAL_I2C_CLEAR_FLAG(hi2c, I2C_FLAG_AF);
 80054b0:	f46f 6280 	mvn.w	r2, #1024	@ 0x400
 80054b4:	615a      	str	r2, [r3, #20]
 80054b6:	e7cb      	b.n	8005450 <HAL_I2C_ER_IRQHandler+0xb0>
      __HAL_I2C_CLEAR_FLAG(hi2c, I2C_FLAG_AF);
 80054b8:	f46f 6180 	mvn.w	r1, #1024	@ 0x400
      if ((CurrentMode == HAL_I2C_MODE_MASTER) || (CurrentMode == HAL_I2C_MODE_MEM))
 80054bc:	2a10      	cmp	r2, #16
      __HAL_I2C_CLEAR_FLAG(hi2c, I2C_FLAG_AF);
 80054be:	6159      	str	r1, [r3, #20]
      error |= HAL_I2C_ERROR_AF;
 80054c0:	f045 0504 	orr.w	r5, r5, #4
      if ((CurrentMode == HAL_I2C_MODE_MASTER) || (CurrentMode == HAL_I2C_MODE_MEM))
 80054c4:	d001      	beq.n	80054ca <HAL_I2C_ER_IRQHandler+0x12a>
 80054c6:	2a40      	cmp	r2, #64	@ 0x40
 80054c8:	d1c2      	bne.n	8005450 <HAL_I2C_ER_IRQHandler+0xb0>
        SET_BIT(hi2c->Instance->CR1, I2C_CR1_STOP);
 80054ca:	681a      	ldr	r2, [r3, #0]
 80054cc:	f442 7200 	orr.w	r2, r2, #512	@ 0x200
 80054d0:	601a      	str	r2, [r3, #0]
 80054d2:	e7bd      	b.n	8005450 <HAL_I2C_ER_IRQHandler+0xb0>
  if (error != HAL_I2C_ERROR_NONE)
 80054d4:	2d00      	cmp	r5, #0
 80054d6:	d1c5      	bne.n	8005464 <HAL_I2C_ER_IRQHandler+0xc4>
}
 80054d8:	bdf8      	pop	{r3, r4, r5, r6, r7, pc}
 80054da:	bf00      	nop
 80054dc:	ffff0000 	.word	0xffff0000

080054e0 <HAL_I2C_GetState>:
  return hi2c->State;
 80054e0:	f890 003d 	ldrb.w	r0, [r0, #61]	@ 0x3d
}
 80054e4:	4770      	bx	lr

080054e6 <HAL_PCD_Init>:
  *         parameters in the PCD_InitTypeDef and initialize the associated handle.
  * @param  hpcd PCD handle
  * @retval HAL status
  */
HAL_StatusTypeDef HAL_PCD_Init(PCD_HandleTypeDef *hpcd)
{
 80054e6:	b5f8      	push	{r3, r4, r5, r6, r7, lr}
  uint8_t i;

  /* Check the PCD handle allocation */
  if (hpcd == NULL)
 80054e8:	4604      	mov	r4, r0
 80054ea:	b1e0      	cbz	r0, 8005526 <HAL_PCD_Init+0x40>
  }

  /* Check the parameters */
  assert_param(IS_PCD_ALL_INSTANCE(hpcd->Instance));

  if (hpcd->State == HAL_PCD_STATE_RESET)
 80054ec:	f890 3291 	ldrb.w	r3, [r0, #657]	@ 0x291
 80054f0:	f003 02ff 	and.w	r2, r3, #255	@ 0xff
 80054f4:	b91b      	cbnz	r3, 80054fe <HAL_PCD_Init+0x18>
  {
    /* Allocate lock resource and initialize it */
    hpcd->Lock = HAL_UNLOCKED;
 80054f6:	f880 2290 	strb.w	r2, [r0, #656]	@ 0x290

    /* Init the low level hardware */
    hpcd->MspInitCallback(hpcd);
#else
    /* Init the low level hardware : GPIO, CLOCK, NVIC... */
    HAL_PCD_MspInit(hpcd);
 80054fa:	f003 fb39 	bl	8008b70 <HAL_PCD_MspInit>
#endif /* (USE_HAL_PCD_REGISTER_CALLBACKS) */
  }

  hpcd->State = HAL_PCD_STATE_BUSY;
 80054fe:	2303      	movs	r3, #3
 8005500:	f884 3291 	strb.w	r3, [r4, #657]	@ 0x291

  /* Disable DMA mode for FS instance */
  hpcd->Init.dma_enable = 0U;
 8005504:	2300      	movs	r3, #0

  /* Disable the Interrupts */
  __HAL_PCD_DISABLE(hpcd);
 8005506:	4625      	mov	r5, r4
  hpcd->Init.dma_enable = 0U;
 8005508:	7163      	strb	r3, [r4, #5]
  __HAL_PCD_DISABLE(hpcd);
 800550a:	f855 0b04 	ldr.w	r0, [r5], #4
 800550e:	f001 fff1 	bl	80074f4 <USB_DisableGlobalInt>

  /*Init the Core (common init.) */
  if (USB_CoreInit(hpcd->Instance, hpcd->Init) != HAL_OK)
 8005512:	e895 000e 	ldmia.w	r5, {r1, r2, r3}
 8005516:	6820      	ldr	r0, [r4, #0]
 8005518:	f001 ffdc 	bl	80074d4 <USB_CoreInit>
 800551c:	4601      	mov	r1, r0
 800551e:	b128      	cbz	r0, 800552c <HAL_PCD_Init+0x46>
  {
    hpcd->State = HAL_PCD_STATE_ERROR;
 8005520:	2302      	movs	r3, #2
 8005522:	f884 3291 	strb.w	r3, [r4, #657]	@ 0x291
    return HAL_ERROR;
 8005526:	2501      	movs	r5, #1
  hpcd->USB_Address = 0U;
  hpcd->State = HAL_PCD_STATE_READY;
  (void)USB_DevDisconnect(hpcd->Instance);

  return HAL_OK;
}
 8005528:	4628      	mov	r0, r5
 800552a:	bdf8      	pop	{r3, r4, r5, r6, r7, pc}
  if (USB_SetCurrentMode(hpcd->Instance, USB_DEVICE_MODE) != HAL_OK)
 800552c:	6820      	ldr	r0, [r4, #0]
 800552e:	f001 ffeb 	bl	8007508 <USB_SetCurrentMode>
 8005532:	2800      	cmp	r0, #0
 8005534:	d1f4      	bne.n	8005520 <HAL_PCD_Init+0x3a>
 8005536:	4602      	mov	r2, r0
    hpcd->IN_ep[i].is_in = 1U;
 8005538:	2701      	movs	r7, #1
  for (i = 0U; i < hpcd->Init.dev_endpoints; i++)
 800553a:	7926      	ldrb	r6, [r4, #4]
 800553c:	f104 0310 	add.w	r3, r4, #16
 8005540:	b2c1      	uxtb	r1, r0
 8005542:	428e      	cmp	r6, r1
 8005544:	f103 0328 	add.w	r3, r3, #40	@ 0x28
 8005548:	d818      	bhi.n	800557c <HAL_PCD_Init+0x96>
 800554a:	2100      	movs	r1, #0
    hpcd->OUT_ep[i].is_in = 0U;
 800554c:	460a      	mov	r2, r1
 800554e:	f504 73a8 	add.w	r3, r4, #336	@ 0x150
 8005552:	b2c8      	uxtb	r0, r1
  for (i = 0U; i < hpcd->Init.dev_endpoints; i++)
 8005554:	4286      	cmp	r6, r0
 8005556:	f103 0328 	add.w	r3, r3, #40	@ 0x28
 800555a:	d81b      	bhi.n	8005594 <HAL_PCD_Init+0xae>
  if (USB_DevInit(hpcd->Instance, hpcd->Init) != HAL_OK)
 800555c:	e895 000e 	ldmia.w	r5, {r1, r2, r3}
 8005560:	6820      	ldr	r0, [r4, #0]
 8005562:	f001 ffd3 	bl	800750c <USB_DevInit>
 8005566:	4605      	mov	r5, r0
 8005568:	2800      	cmp	r0, #0
 800556a:	d1d9      	bne.n	8005520 <HAL_PCD_Init+0x3a>
  hpcd->State = HAL_PCD_STATE_READY;
 800556c:	2301      	movs	r3, #1
  hpcd->USB_Address = 0U;
 800556e:	7360      	strb	r0, [r4, #13]
  (void)USB_DevDisconnect(hpcd->Instance);
 8005570:	6820      	ldr	r0, [r4, #0]
  hpcd->State = HAL_PCD_STATE_READY;
 8005572:	f884 3291 	strb.w	r3, [r4, #657]	@ 0x291
  (void)USB_DevDisconnect(hpcd->Instance);
 8005576:	f002 fa7f 	bl	8007a78 <USB_DevDisconnect>
  return HAL_OK;
 800557a:	e7d5      	b.n	8005528 <HAL_PCD_Init+0x42>
    hpcd->IN_ep[i].xfer_buff = 0U;
 800557c:	e943 2206 	strd	r2, r2, [r3, #-24]
    hpcd->IN_ep[i].is_in = 1U;
 8005580:	f803 7c27 	strb.w	r7, [r3, #-39]
    hpcd->IN_ep[i].num = i;
 8005584:	f803 1c28 	strb.w	r1, [r3, #-40]
    hpcd->IN_ep[i].type = EP_TYPE_CTRL;
 8005588:	f803 2c25 	strb.w	r2, [r3, #-37]
    hpcd->IN_ep[i].xfer_len = 0U;
 800558c:	f843 2c10 	str.w	r2, [r3, #-16]
  for (i = 0U; i < hpcd->Init.dev_endpoints; i++)
 8005590:	3001      	adds	r0, #1
 8005592:	e7d5      	b.n	8005540 <HAL_PCD_Init+0x5a>
    hpcd->OUT_ep[i].xfer_buff = 0U;
 8005594:	e943 2206 	strd	r2, r2, [r3, #-24]
    hpcd->OUT_ep[i].is_in = 0U;
 8005598:	f803 2c27 	strb.w	r2, [r3, #-39]
    hpcd->OUT_ep[i].num = i;
 800559c:	f803 0c28 	strb.w	r0, [r3, #-40]
    hpcd->OUT_ep[i].type = EP_TYPE_CTRL;
 80055a0:	f803 2c25 	strb.w	r2, [r3, #-37]
    hpcd->OUT_ep[i].xfer_len = 0U;
 80055a4:	f843 2c10 	str.w	r2, [r3, #-16]
  for (i = 0U; i < hpcd->Init.dev_endpoints; i++)
 80055a8:	3101      	adds	r1, #1
 80055aa:	e7d2      	b.n	8005552 <HAL_PCD_Init+0x6c>

080055ac <HAL_PCD_Start>:
  * @brief  Start the USB device
  * @param  hpcd PCD handle
  * @retval HAL status
  */
HAL_StatusTypeDef HAL_PCD_Start(PCD_HandleTypeDef *hpcd)
{
 80055ac:	b538      	push	{r3, r4, r5, lr}
  __HAL_LOCK(hpcd);
 80055ae:	f890 3290 	ldrb.w	r3, [r0, #656]	@ 0x290
{
 80055b2:	4604      	mov	r4, r0
  __HAL_LOCK(hpcd);
 80055b4:	2b01      	cmp	r3, #1
 80055b6:	d010      	beq.n	80055da <HAL_PCD_Start+0x2e>
 80055b8:	2501      	movs	r5, #1
 80055ba:	f880 5290 	strb.w	r5, [r0, #656]	@ 0x290
  __HAL_PCD_ENABLE(hpcd);
 80055be:	6800      	ldr	r0, [r0, #0]
 80055c0:	f001 ff8f 	bl	80074e2 <USB_EnableGlobalInt>

#if defined (USB)
  HAL_PCDEx_SetConnectionState(hpcd, 1U);
 80055c4:	4629      	mov	r1, r5
 80055c6:	4620      	mov	r0, r4
 80055c8:	f003 fbe1 	bl	8008d8e <HAL_PCDEx_SetConnectionState>
#endif /* defined (USB) */

  (void)USB_DevConnect(hpcd->Instance);
 80055cc:	6820      	ldr	r0, [r4, #0]
 80055ce:	f002 fa51 	bl	8007a74 <USB_DevConnect>
  __HAL_UNLOCK(hpcd);
 80055d2:	2000      	movs	r0, #0
 80055d4:	f884 0290 	strb.w	r0, [r4, #656]	@ 0x290

  return HAL_OK;
}
 80055d8:	bd38      	pop	{r3, r4, r5, pc}
  __HAL_LOCK(hpcd);
 80055da:	2002      	movs	r0, #2
 80055dc:	e7fc      	b.n	80055d8 <HAL_PCD_Start+0x2c>

080055de <HAL_PCD_SetAddress>:
  * @param  hpcd PCD handle
  * @param  address new device address
  * @retval HAL status
  */
HAL_StatusTypeDef HAL_PCD_SetAddress(PCD_HandleTypeDef *hpcd, uint8_t address)
{
 80055de:	b510      	push	{r4, lr}
  __HAL_LOCK(hpcd);
 80055e0:	f890 2290 	ldrb.w	r2, [r0, #656]	@ 0x290
{
 80055e4:	4604      	mov	r4, r0
  __HAL_LOCK(hpcd);
 80055e6:	2a01      	cmp	r2, #1
 80055e8:	d00a      	beq.n	8005600 <HAL_PCD_SetAddress+0x22>
 80055ea:	2201      	movs	r2, #1
  hpcd->USB_Address = address;
 80055ec:	7341      	strb	r1, [r0, #13]
  __HAL_LOCK(hpcd);
 80055ee:	f880 2290 	strb.w	r2, [r0, #656]	@ 0x290
  (void)USB_SetDevAddress(hpcd->Instance, address);
 80055f2:	6800      	ldr	r0, [r0, #0]
 80055f4:	f002 fa38 	bl	8007a68 <USB_SetDevAddress>
  __HAL_UNLOCK(hpcd);
 80055f8:	2000      	movs	r0, #0
 80055fa:	f884 0290 	strb.w	r0, [r4, #656]	@ 0x290

  return HAL_OK;
}
 80055fe:	bd10      	pop	{r4, pc}
  __HAL_LOCK(hpcd);
 8005600:	2002      	movs	r0, #2
 8005602:	e7fc      	b.n	80055fe <HAL_PCD_SetAddress+0x20>

08005604 <HAL_PCD_IRQHandler>:
{
 8005604:	e92d 4ff0 	stmdb	sp!, {r4, r5, r6, r7, r8, r9, sl, fp, lr}
 8005608:	4604      	mov	r4, r0
 800560a:	b087      	sub	sp, #28
  uint32_t wIstr = USB_ReadInterrupts(hpcd->Instance);
 800560c:	6800      	ldr	r0, [r0, #0]
 800560e:	f002 fa35 	bl	8007a7c <USB_ReadInterrupts>
  if ((wIstr & USB_ISTR_CTR) == USB_ISTR_CTR)
 8005612:	f410 4500 	ands.w	r5, r0, #32768	@ 0x8000
 8005616:	f000 8425 	beq.w	8005e64 <HAL_PCD_IRQHandler+0x860>
        ep = &hpcd->IN_ep[epindex];

        /* clear int flag */
        PCD_CLEAR_TX_EP_CTR(hpcd->Instance, epindex);

        if (ep->type == EP_TYPE_ISOC)
 800561a:	f04f 0928 	mov.w	r9, #40	@ 0x28
        PCD_CLEAR_TX_EP_CTR(hpcd->Instance, epindex);
 800561e:	4ec5      	ldr	r6, [pc, #788]	@ (8005934 <HAL_PCD_IRQHandler+0x330>)
  while ((hpcd->Instance->ISTR & USB_ISTR_CTR) != 0U)
 8005620:	6820      	ldr	r0, [r4, #0]
 8005622:	f8b0 3044 	ldrh.w	r3, [r0, #68]	@ 0x44
 8005626:	0419      	lsls	r1, r3, #16
 8005628:	d402      	bmi.n	8005630 <HAL_PCD_IRQHandler+0x2c>
}
 800562a:	b007      	add	sp, #28
 800562c:	e8bd 8ff0 	ldmia.w	sp!, {r4, r5, r6, r7, r8, r9, sl, fp, pc}
    wIstr = hpcd->Instance->ISTR;
 8005630:	f8b0 7044 	ldrh.w	r7, [r0, #68]	@ 0x44
 8005634:	b2b9      	uxth	r1, r7
    if (epindex == 0U)
 8005636:	f017 070f 	ands.w	r7, r7, #15
 800563a:	f040 80bf 	bne.w	80057bc <HAL_PCD_IRQHandler+0x1b8>
      if ((wIstr & USB_ISTR_DIR) == 0U)
 800563e:	f011 0110 	ands.w	r1, r1, #16
 8005642:	d126      	bne.n	8005692 <HAL_PCD_IRQHandler+0x8e>
        PCD_CLEAR_TX_EP_CTR(hpcd->Instance, PCD_ENDP0);
 8005644:	8803      	ldrh	r3, [r0, #0]
 8005646:	b29b      	uxth	r3, r3
 8005648:	4033      	ands	r3, r6
 800564a:	f443 4300 	orr.w	r3, r3, #32768	@ 0x8000
 800564e:	8003      	strh	r3, [r0, #0]
        ep->xfer_count = PCD_GET_EP_TX_CNT(hpcd->Instance, ep->num);
 8005650:	f8b0 3050 	ldrh.w	r3, [r0, #80]	@ 0x50
 8005654:	7c22      	ldrb	r2, [r4, #16]
 8005656:	b29b      	uxth	r3, r3
 8005658:	eb03 03c2 	add.w	r3, r3, r2, lsl #3
 800565c:	eb00 0343 	add.w	r3, r0, r3, lsl #1
 8005660:	f8b3 3404 	ldrh.w	r3, [r3, #1028]	@ 0x404
        ep->xfer_buff += ep->xfer_count;
 8005664:	6a62      	ldr	r2, [r4, #36]	@ 0x24
        ep->xfer_count = PCD_GET_EP_TX_CNT(hpcd->Instance, ep->num);
 8005666:	f3c3 0309 	ubfx	r3, r3, #0, #10
        ep->xfer_buff += ep->xfer_count;
 800566a:	441a      	add	r2, r3
        ep->xfer_count = PCD_GET_EP_TX_CNT(hpcd->Instance, ep->num);
 800566c:	62e3      	str	r3, [r4, #44]	@ 0x2c
        HAL_PCD_DataInStageCallback(hpcd, 0U);
 800566e:	4620      	mov	r0, r4
        ep->xfer_buff += ep->xfer_count;
 8005670:	6262      	str	r2, [r4, #36]	@ 0x24
        HAL_PCD_DataInStageCallback(hpcd, 0U);
 8005672:	f003 fab4 	bl	8008bde <HAL_PCD_DataInStageCallback>
        if ((hpcd->USB_Address > 0U) && (ep->xfer_len == 0U))
 8005676:	7b63      	ldrb	r3, [r4, #13]
 8005678:	2b00      	cmp	r3, #0
 800567a:	d0d1      	beq.n	8005620 <HAL_PCD_IRQHandler+0x1c>
 800567c:	6aa2      	ldr	r2, [r4, #40]	@ 0x28
 800567e:	2a00      	cmp	r2, #0
 8005680:	d1ce      	bne.n	8005620 <HAL_PCD_IRQHandler+0x1c>
          hpcd->Instance->DADDR = ((uint16_t)hpcd->USB_Address | USB_DADDR_EF);
 8005682:	7b63      	ldrb	r3, [r4, #13]
 8005684:	6821      	ldr	r1, [r4, #0]
 8005686:	f043 0380 	orr.w	r3, r3, #128	@ 0x80
 800568a:	f8a1 304c 	strh.w	r3, [r1, #76]	@ 0x4c
          hpcd->USB_Address = 0U;
 800568e:	7362      	strb	r2, [r4, #13]
 8005690:	e7c6      	b.n	8005620 <HAL_PCD_IRQHandler+0x1c>
        wEPVal = PCD_GET_ENDPOINT(hpcd->Instance, PCD_ENDP0);
 8005692:	8805      	ldrh	r5, [r0, #0]
 8005694:	b2ab      	uxth	r3, r5
        if ((wEPVal & USB_EP_SETUP) != 0U)
 8005696:	f415 6500 	ands.w	r5, r5, #2048	@ 0x800
 800569a:	d021      	beq.n	80056e0 <HAL_PCD_IRQHandler+0xdc>
          ep->xfer_count = PCD_GET_EP_RX_CNT(hpcd->Instance, ep->num);
 800569c:	f8b0 3050 	ldrh.w	r3, [r0, #80]	@ 0x50
 80056a0:	f894 2150 	ldrb.w	r2, [r4, #336]	@ 0x150
 80056a4:	b29b      	uxth	r3, r3
 80056a6:	eb03 03c2 	add.w	r3, r3, r2, lsl #3
 80056aa:	eb00 0343 	add.w	r3, r0, r3, lsl #1
 80056ae:	f8b3 340c 	ldrh.w	r3, [r3, #1036]	@ 0x40c
          USB_ReadPMA(hpcd->Instance, (uint8_t *)hpcd->Setup,
 80056b2:	f8b4 2156 	ldrh.w	r2, [r4, #342]	@ 0x156
 80056b6:	f3c3 0309 	ubfx	r3, r3, #0, #10
          ep->xfer_count = PCD_GET_EP_RX_CNT(hpcd->Instance, ep->num);
 80056ba:	f8c4 316c 	str.w	r3, [r4, #364]	@ 0x16c
          USB_ReadPMA(hpcd->Instance, (uint8_t *)hpcd->Setup,
 80056be:	f504 7126 	add.w	r1, r4, #664	@ 0x298
 80056c2:	f002 fc22 	bl	8007f0a <USB_ReadPMA>
          PCD_CLEAR_RX_EP_CTR(hpcd->Instance, PCD_ENDP0);
 80056c6:	6822      	ldr	r2, [r4, #0]
          HAL_PCD_SetupStageCallback(hpcd);
 80056c8:	4620      	mov	r0, r4
          PCD_CLEAR_RX_EP_CTR(hpcd->Instance, PCD_ENDP0);
 80056ca:	8813      	ldrh	r3, [r2, #0]
 80056cc:	f023 0370 	bic.w	r3, r3, #112	@ 0x70
 80056d0:	051b      	lsls	r3, r3, #20
 80056d2:	0d1b      	lsrs	r3, r3, #20
 80056d4:	f043 0380 	orr.w	r3, r3, #128	@ 0x80
 80056d8:	8013      	strh	r3, [r2, #0]
          HAL_PCD_SetupStageCallback(hpcd);
 80056da:	f003 fa71 	bl	8008bc0 <HAL_PCD_SetupStageCallback>
 80056de:	e79f      	b.n	8005620 <HAL_PCD_IRQHandler+0x1c>
        else if ((wEPVal & USB_EP_CTR_RX) != 0U)
 80056e0:	041b      	lsls	r3, r3, #16
 80056e2:	d59d      	bpl.n	8005620 <HAL_PCD_IRQHandler+0x1c>
          PCD_CLEAR_RX_EP_CTR(hpcd->Instance, PCD_ENDP0);
 80056e4:	8803      	ldrh	r3, [r0, #0]
 80056e6:	f023 0370 	bic.w	r3, r3, #112	@ 0x70
 80056ea:	051b      	lsls	r3, r3, #20
 80056ec:	0d1b      	lsrs	r3, r3, #20
 80056ee:	f043 0380 	orr.w	r3, r3, #128	@ 0x80
 80056f2:	8003      	strh	r3, [r0, #0]
          ep->xfer_count = PCD_GET_EP_RX_CNT(hpcd->Instance, ep->num);
 80056f4:	f8b0 3050 	ldrh.w	r3, [r0, #80]	@ 0x50
 80056f8:	f894 2150 	ldrb.w	r2, [r4, #336]	@ 0x150
 80056fc:	b29b      	uxth	r3, r3
 80056fe:	eb03 03c2 	add.w	r3, r3, r2, lsl #3
 8005702:	eb00 0343 	add.w	r3, r0, r3, lsl #1
 8005706:	f8b3 340c 	ldrh.w	r3, [r3, #1036]	@ 0x40c
 800570a:	f3c3 0309 	ubfx	r3, r3, #0, #10
 800570e:	f8c4 316c 	str.w	r3, [r4, #364]	@ 0x16c
          if ((ep->xfer_count != 0U) && (ep->xfer_buff != 0U))
 8005712:	b18b      	cbz	r3, 8005738 <HAL_PCD_IRQHandler+0x134>
 8005714:	f8d4 1164 	ldr.w	r1, [r4, #356]	@ 0x164
 8005718:	b171      	cbz	r1, 8005738 <HAL_PCD_IRQHandler+0x134>
            USB_ReadPMA(hpcd->Instance, ep->xfer_buff,
 800571a:	f8b4 2156 	ldrh.w	r2, [r4, #342]	@ 0x156
 800571e:	f002 fbf4 	bl	8007f0a <USB_ReadPMA>
            ep->xfer_buff += ep->xfer_count;
 8005722:	f8d4 3164 	ldr.w	r3, [r4, #356]	@ 0x164
 8005726:	f8d4 216c 	ldr.w	r2, [r4, #364]	@ 0x16c
            HAL_PCD_DataOutStageCallback(hpcd, 0U);
 800572a:	4629      	mov	r1, r5
            ep->xfer_buff += ep->xfer_count;
 800572c:	4413      	add	r3, r2
            HAL_PCD_DataOutStageCallback(hpcd, 0U);
 800572e:	4620      	mov	r0, r4
            ep->xfer_buff += ep->xfer_count;
 8005730:	f8c4 3164 	str.w	r3, [r4, #356]	@ 0x164
            HAL_PCD_DataOutStageCallback(hpcd, 0U);
 8005734:	f003 fa4a 	bl	8008bcc <HAL_PCD_DataOutStageCallback>
          wEPVal = (uint16_t)PCD_GET_ENDPOINT(hpcd->Instance, PCD_ENDP0);
 8005738:	6821      	ldr	r1, [r4, #0]
 800573a:	880a      	ldrh	r2, [r1, #0]
          if (((wEPVal & USB_EP_SETUP) == 0U) && ((wEPVal & USB_EP_RX_STRX) != USB_EP_RX_VALID))
 800573c:	0517      	lsls	r7, r2, #20
          wEPVal = (uint16_t)PCD_GET_ENDPOINT(hpcd->Instance, PCD_ENDP0);
 800573e:	b293      	uxth	r3, r2
          if (((wEPVal & USB_EP_SETUP) == 0U) && ((wEPVal & USB_EP_RX_STRX) != USB_EP_RX_VALID))
 8005740:	f53f af6e 	bmi.w	8005620 <HAL_PCD_IRQHandler+0x1c>
 8005744:	f403 5340 	and.w	r3, r3, #12288	@ 0x3000
 8005748:	f5b3 5f40 	cmp.w	r3, #12288	@ 0x3000
 800574c:	f43f af68 	beq.w	8005620 <HAL_PCD_IRQHandler+0x1c>
            PCD_SET_EP_RX_CNT(hpcd->Instance, PCD_ENDP0, ep->maxpacket);
 8005750:	f8b1 2050 	ldrh.w	r2, [r1, #80]	@ 0x50
 8005754:	f201 400c 	addw	r0, r1, #1036	@ 0x40c
 8005758:	b292      	uxth	r2, r2
 800575a:	5a83      	ldrh	r3, [r0, r2]
 800575c:	f8d4 5160 	ldr.w	r5, [r4, #352]	@ 0x160
 8005760:	f3c3 0309 	ubfx	r3, r3, #0, #10
 8005764:	2d3e      	cmp	r5, #62	@ 0x3e
 8005766:	5283      	strh	r3, [r0, r2]
 8005768:	d91d      	bls.n	80057a6 <HAL_PCD_IRQHandler+0x1a2>
 800576a:	5a83      	ldrh	r3, [r0, r2]
 800576c:	096f      	lsrs	r7, r5, #5
 800576e:	06ed      	lsls	r5, r5, #27
 8005770:	bf08      	it	eq
 8005772:	f107 37ff 	addeq.w	r7, r7, #4294967295
 8005776:	b29b      	uxth	r3, r3
 8005778:	ea43 2387 	orr.w	r3, r3, r7, lsl #10
 800577c:	ea6f 4343 	mvn.w	r3, r3, lsl #17
 8005780:	ea6f 4353 	mvn.w	r3, r3, lsr #17
 8005784:	b29b      	uxth	r3, r3
 8005786:	5283      	strh	r3, [r0, r2]
            PCD_SET_EP_RX_STATUS(hpcd->Instance, PCD_ENDP0, USB_EP_RX_VALID);
 8005788:	880b      	ldrh	r3, [r1, #0]
 800578a:	f423 4380 	bic.w	r3, r3, #16384	@ 0x4000
 800578e:	f023 0370 	bic.w	r3, r3, #112	@ 0x70
 8005792:	041b      	lsls	r3, r3, #16
 8005794:	0c1b      	lsrs	r3, r3, #16
 8005796:	f483 5340 	eor.w	r3, r3, #12288	@ 0x3000
 800579a:	f443 4300 	orr.w	r3, r3, #32768	@ 0x8000
 800579e:	f043 0380 	orr.w	r3, r3, #128	@ 0x80
 80057a2:	800b      	strh	r3, [r1, #0]
 80057a4:	e73c      	b.n	8005620 <HAL_PCD_IRQHandler+0x1c>
            PCD_SET_EP_RX_CNT(hpcd->Instance, PCD_ENDP0, ep->maxpacket);
 80057a6:	5a83      	ldrh	r3, [r0, r2]
 80057a8:	2d00      	cmp	r5, #0
 80057aa:	d0e7      	beq.n	800577c <HAL_PCD_IRQHandler+0x178>
 80057ac:	f005 0701 	and.w	r7, r5, #1
 80057b0:	b29b      	uxth	r3, r3
 80057b2:	eb07 0555 	add.w	r5, r7, r5, lsr #1
 80057b6:	ea43 2385 	orr.w	r3, r3, r5, lsl #10
 80057ba:	e7e3      	b.n	8005784 <HAL_PCD_IRQHandler+0x180>
      wEPVal = PCD_GET_ENDPOINT(hpcd->Instance, epindex);
 80057bc:	f830 3027 	ldrh.w	r3, [r0, r7, lsl #2]
      if ((wEPVal & USB_EP_CTR_RX) != 0U)
 80057c0:	0419      	lsls	r1, r3, #16
      wEPVal = PCD_GET_ENDPOINT(hpcd->Instance, epindex);
 80057c2:	fa1f f883 	uxth.w	r8, r3
      if ((wEPVal & USB_EP_CTR_RX) != 0U)
 80057c6:	f140 80f3 	bpl.w	80059b0 <HAL_PCD_IRQHandler+0x3ac>
        PCD_CLEAR_RX_EP_CTR(hpcd->Instance, epindex);
 80057ca:	f830 3027 	ldrh.w	r3, [r0, r7, lsl #2]
          count = (uint16_t)PCD_GET_EP_RX_CNT(hpcd->Instance, ep->num);
 80057ce:	fb09 4207 	mla	r2, r9, r7, r4
        PCD_CLEAR_RX_EP_CTR(hpcd->Instance, epindex);
 80057d2:	f023 0370 	bic.w	r3, r3, #112	@ 0x70
 80057d6:	051b      	lsls	r3, r3, #20
 80057d8:	0d1b      	lsrs	r3, r3, #20
 80057da:	f043 0380 	orr.w	r3, r3, #128	@ 0x80
 80057de:	f820 3027 	strh.w	r3, [r0, r7, lsl #2]
        if (ep->doublebuffer == 0U)
 80057e2:	f892 515c 	ldrb.w	r5, [r2, #348]	@ 0x15c
          count = (uint16_t)PCD_GET_EP_RX_CNT(hpcd->Instance, ep->num);
 80057e6:	f892 3150 	ldrb.w	r3, [r2, #336]	@ 0x150
            USB_ReadPMA(hpcd->Instance, ep->xfer_buff, ep->pmaadress, count);
 80057ea:	f8d2 1164 	ldr.w	r1, [r2, #356]	@ 0x164
 80057ee:	f500 6e80 	add.w	lr, r0, #1024	@ 0x400
        if (ep->doublebuffer == 0U)
 80057f2:	b995      	cbnz	r5, 800581a <HAL_PCD_IRQHandler+0x216>
          count = (uint16_t)PCD_GET_EP_RX_CNT(hpcd->Instance, ep->num);
 80057f4:	f8b0 5050 	ldrh.w	r5, [r0, #80]	@ 0x50
 80057f8:	b2ad      	uxth	r5, r5
 80057fa:	3506      	adds	r5, #6
 80057fc:	eb05 03c3 	add.w	r3, r5, r3, lsl #3
 8005800:	f83e 5013 	ldrh.w	r5, [lr, r3, lsl #1]
 8005804:	f3c5 0509 	ubfx	r5, r5, #0, #10
          if (count != 0U)
 8005808:	2d00      	cmp	r5, #0
 800580a:	f000 80b6 	beq.w	800597a <HAL_PCD_IRQHandler+0x376>
            USB_ReadPMA(hpcd->Instance, ep->xfer_buff, ep->pmaadress, count);
 800580e:	462b      	mov	r3, r5
 8005810:	f8b2 2156 	ldrh.w	r2, [r2, #342]	@ 0x156
                USB_ReadPMA(hpcd->Instance, ep->xfer_buff, ep->pmaaddr1, count);
 8005814:	f002 fb79 	bl	8007f0a <USB_ReadPMA>
 8005818:	e0af      	b.n	800597a <HAL_PCD_IRQHandler+0x376>
          if (ep->type == EP_TYPE_BULK)
 800581a:	f892 5153 	ldrb.w	r5, [r2, #339]	@ 0x153
 800581e:	2d02      	cmp	r5, #2
 8005820:	f040 808a 	bne.w	8005938 <HAL_PCD_IRQHandler+0x334>
                                      PCD_EPTypeDef *ep, uint16_t wEPVal)
{
  uint16_t count;

  /* Manage Buffer0 OUT */
  if ((wEPVal & USB_EP_DTOG_RX) != 0U)
 8005824:	f418 4580 	ands.w	r5, r8, #16384	@ 0x4000
 8005828:	9501      	str	r5, [sp, #4]
  {
    /* Get count of received Data on buffer0 */
    count = (uint16_t)PCD_GET_EP_DBUF0_CNT(hpcd->Instance, ep->num);
 800582a:	f8b0 5050 	ldrh.w	r5, [r0, #80]	@ 0x50
 800582e:	ea4f 0bc3 	mov.w	fp, r3, lsl #3
 8005832:	b2ad      	uxth	r5, r5

    if (ep->xfer_len >= count)
 8005834:	f8d2 c168 	ldr.w	ip, [r2, #360]	@ 0x168
 8005838:	f008 0a40 	and.w	sl, r8, #64	@ 0x40
    count = (uint16_t)PCD_GET_EP_DBUF0_CNT(hpcd->Instance, ep->num);
 800583c:	445d      	add	r5, fp
  if ((wEPVal & USB_EP_DTOG_RX) != 0U)
 800583e:	d03c      	beq.n	80058ba <HAL_PCD_IRQHandler+0x2b6>
    count = (uint16_t)PCD_GET_EP_DBUF0_CNT(hpcd->Instance, ep->num);
 8005840:	3502      	adds	r5, #2
 8005842:	f83e 5015 	ldrh.w	r5, [lr, r5, lsl #1]
 8005846:	f3c5 0509 	ubfx	r5, r5, #0, #10
    if (ep->xfer_len >= count)
 800584a:	4565      	cmp	r5, ip
 800584c:	d914      	bls.n	8005878 <HAL_PCD_IRQHandler+0x274>
 800584e:	f04f 0c00 	mov.w	ip, #0
 8005852:	f8c2 c168 	str.w	ip, [r2, #360]	@ 0x168
    }

    if (ep->xfer_len == 0U)
    {
      /* set NAK to OUT endpoint since double buffer is enabled */
      PCD_SET_EP_RX_STATUS(hpcd->Instance, ep->num, USB_EP_RX_NAK);
 8005856:	f830 2023 	ldrh.w	r2, [r0, r3, lsl #2]
 800585a:	f422 4280 	bic.w	r2, r2, #16384	@ 0x4000
 800585e:	f022 0270 	bic.w	r2, r2, #112	@ 0x70
 8005862:	0412      	lsls	r2, r2, #16
 8005864:	0c12      	lsrs	r2, r2, #16
 8005866:	f482 5200 	eor.w	r2, r2, #8192	@ 0x2000
 800586a:	f442 4200 	orr.w	r2, r2, #32768	@ 0x8000
 800586e:	f042 0280 	orr.w	r2, r2, #128	@ 0x80
 8005872:	f820 2023 	strh.w	r2, [r0, r3, lsl #2]
 8005876:	e006      	b.n	8005886 <HAL_PCD_IRQHandler+0x282>
      ep->xfer_len -= count;
 8005878:	ebac 0c05 	sub.w	ip, ip, r5
 800587c:	f8c2 c168 	str.w	ip, [r2, #360]	@ 0x168
    if (ep->xfer_len == 0U)
 8005880:	f1bc 0f00 	cmp.w	ip, #0
 8005884:	d0e7      	beq.n	8005856 <HAL_PCD_IRQHandler+0x252>
    }

    /* Check if Buffer1 is in blocked state which requires to toggle */
    if ((wEPVal & USB_EP_DTOG_TX) != 0U)
 8005886:	f1ba 0f00 	cmp.w	sl, #0
 800588a:	d00d      	beq.n	80058a8 <HAL_PCD_IRQHandler+0x2a4>
    {
      PCD_FREE_USER_BUFFER(hpcd->Instance, ep->num, 0U);
 800588c:	f830 2023 	ldrh.w	r2, [r0, r3, lsl #2]
 8005890:	f422 42e0 	bic.w	r2, r2, #28672	@ 0x7000
 8005894:	f022 0270 	bic.w	r2, r2, #112	@ 0x70
 8005898:	0412      	lsls	r2, r2, #16
 800589a:	0c12      	lsrs	r2, r2, #16
 800589c:	f442 4200 	orr.w	r2, r2, #32768	@ 0x8000
 80058a0:	f042 02c0 	orr.w	r2, r2, #192	@ 0xc0
 80058a4:	f820 2023 	strh.w	r2, [r0, r3, lsl #2]
    }

    if (count != 0U)
 80058a8:	2d00      	cmp	r5, #0
 80058aa:	d066      	beq.n	800597a <HAL_PCD_IRQHandler+0x376>
    {
      USB_ReadPMA(hpcd->Instance, ep->xfer_buff, ep->pmaaddr0, count);
 80058ac:	2228      	movs	r2, #40	@ 0x28
 80058ae:	fb02 4207 	mla	r2, r2, r7, r4
                USB_ReadPMA(hpcd->Instance, ep->xfer_buff, ep->pmaaddr0, count);
 80058b2:	462b      	mov	r3, r5
 80058b4:	f8b2 2158 	ldrh.w	r2, [r2, #344]	@ 0x158
 80058b8:	e7ac      	b.n	8005814 <HAL_PCD_IRQHandler+0x210>
  }
  /* Manage Buffer 1 DTOG_RX=0 */
  else
  {
    /* Get count of received data */
    count = (uint16_t)PCD_GET_EP_DBUF1_CNT(hpcd->Instance, ep->num);
 80058ba:	3506      	adds	r5, #6
 80058bc:	f83e 5015 	ldrh.w	r5, [lr, r5, lsl #1]
 80058c0:	f3c5 0509 	ubfx	r5, r5, #0, #10

    if (ep->xfer_len >= count)
 80058c4:	4565      	cmp	r5, ip
 80058c6:	d914      	bls.n	80058f2 <HAL_PCD_IRQHandler+0x2ee>
 80058c8:	f8dd c004 	ldr.w	ip, [sp, #4]
 80058cc:	f8c2 c168 	str.w	ip, [r2, #360]	@ 0x168
    }

    if (ep->xfer_len == 0U)
    {
      /* set NAK on the current endpoint */
      PCD_SET_EP_RX_STATUS(hpcd->Instance, ep->num, USB_EP_RX_NAK);
 80058d0:	f830 2023 	ldrh.w	r2, [r0, r3, lsl #2]
 80058d4:	f422 4280 	bic.w	r2, r2, #16384	@ 0x4000
 80058d8:	f022 0270 	bic.w	r2, r2, #112	@ 0x70
 80058dc:	0412      	lsls	r2, r2, #16
 80058de:	0c12      	lsrs	r2, r2, #16
 80058e0:	f482 5200 	eor.w	r2, r2, #8192	@ 0x2000
 80058e4:	f442 4200 	orr.w	r2, r2, #32768	@ 0x8000
 80058e8:	f042 0280 	orr.w	r2, r2, #128	@ 0x80
 80058ec:	f820 2023 	strh.w	r2, [r0, r3, lsl #2]
 80058f0:	e006      	b.n	8005900 <HAL_PCD_IRQHandler+0x2fc>
      ep->xfer_len -= count;
 80058f2:	ebac 0c05 	sub.w	ip, ip, r5
 80058f6:	f8c2 c168 	str.w	ip, [r2, #360]	@ 0x168
    if (ep->xfer_len == 0U)
 80058fa:	f1bc 0f00 	cmp.w	ip, #0
 80058fe:	d0e7      	beq.n	80058d0 <HAL_PCD_IRQHandler+0x2cc>
    }

    /*Need to FreeUser Buffer*/
    if ((wEPVal & USB_EP_DTOG_TX) == 0U)
 8005900:	f1ba 0f00 	cmp.w	sl, #0
 8005904:	d10d      	bne.n	8005922 <HAL_PCD_IRQHandler+0x31e>
    {
      PCD_FREE_USER_BUFFER(hpcd->Instance, ep->num, 0U);
 8005906:	f830 2023 	ldrh.w	r2, [r0, r3, lsl #2]
 800590a:	f422 42e0 	bic.w	r2, r2, #28672	@ 0x7000
 800590e:	f022 0270 	bic.w	r2, r2, #112	@ 0x70
 8005912:	0412      	lsls	r2, r2, #16
 8005914:	0c12      	lsrs	r2, r2, #16
 8005916:	f442 4200 	orr.w	r2, r2, #32768	@ 0x8000
 800591a:	f042 02c0 	orr.w	r2, r2, #192	@ 0xc0
 800591e:	f820 2023 	strh.w	r2, [r0, r3, lsl #2]
    }

    if (count != 0U)
 8005922:	b355      	cbz	r5, 800597a <HAL_PCD_IRQHandler+0x376>
    {
      USB_ReadPMA(hpcd->Instance, ep->xfer_buff, ep->pmaaddr1, count);
 8005924:	2228      	movs	r2, #40	@ 0x28
 8005926:	fb02 4207 	mla	r2, r2, r7, r4
                USB_ReadPMA(hpcd->Instance, ep->xfer_buff, ep->pmaaddr1, count);
 800592a:	462b      	mov	r3, r5
 800592c:	f8b2 215a 	ldrh.w	r2, [r2, #346]	@ 0x15a
 8005930:	e770      	b.n	8005814 <HAL_PCD_IRQHandler+0x210>
 8005932:	bf00      	nop
 8005934:	ffff8f0f 	.word	0xffff8f0f
            PCD_FREE_USER_BUFFER(hpcd->Instance, ep->num, 0U);
 8005938:	f830 5023 	ldrh.w	r5, [r0, r3, lsl #2]
 800593c:	f425 45e0 	bic.w	r5, r5, #28672	@ 0x7000
 8005940:	f025 0570 	bic.w	r5, r5, #112	@ 0x70
 8005944:	042d      	lsls	r5, r5, #16
 8005946:	0c2d      	lsrs	r5, r5, #16
 8005948:	f445 4500 	orr.w	r5, r5, #32768	@ 0x8000
 800594c:	f045 05c0 	orr.w	r5, r5, #192	@ 0xc0
 8005950:	f820 5023 	strh.w	r5, [r0, r3, lsl #2]
            if ((PCD_GET_ENDPOINT(hpcd->Instance, ep->num) & USB_EP_DTOG_RX) != 0U)
 8005954:	f892 5150 	ldrb.w	r5, [r2, #336]	@ 0x150
 8005958:	f830 3025 	ldrh.w	r3, [r0, r5, lsl #2]
              count = (uint16_t)PCD_GET_EP_DBUF0_CNT(hpcd->Instance, ep->num);
 800595c:	00ed      	lsls	r5, r5, #3
            if ((PCD_GET_ENDPOINT(hpcd->Instance, ep->num) & USB_EP_DTOG_RX) != 0U)
 800595e:	f413 4f80 	tst.w	r3, #16384	@ 0x4000
              count = (uint16_t)PCD_GET_EP_DBUF0_CNT(hpcd->Instance, ep->num);
 8005962:	f8b0 3050 	ldrh.w	r3, [r0, #80]	@ 0x50
 8005966:	b29b      	uxth	r3, r3
 8005968:	442b      	add	r3, r5
            if ((PCD_GET_ENDPOINT(hpcd->Instance, ep->num) & USB_EP_DTOG_RX) != 0U)
 800596a:	d052      	beq.n	8005a12 <HAL_PCD_IRQHandler+0x40e>
              count = (uint16_t)PCD_GET_EP_DBUF0_CNT(hpcd->Instance, ep->num);
 800596c:	3302      	adds	r3, #2
 800596e:	f83e 5013 	ldrh.w	r5, [lr, r3, lsl #1]
 8005972:	f3c5 0509 	ubfx	r5, r5, #0, #10
              if (count != 0U)
 8005976:	2d00      	cmp	r5, #0
 8005978:	d19b      	bne.n	80058b2 <HAL_PCD_IRQHandler+0x2ae>
        ep->xfer_count += count;
 800597a:	fb09 f107 	mul.w	r1, r9, r7
 800597e:	1863      	adds	r3, r4, r1
 8005980:	f8d3 216c 	ldr.w	r2, [r3, #364]	@ 0x16c
 8005984:	442a      	add	r2, r5
 8005986:	f8c3 216c 	str.w	r2, [r3, #364]	@ 0x16c
        ep->xfer_buff += count;
 800598a:	f8d3 2164 	ldr.w	r2, [r3, #356]	@ 0x164
 800598e:	442a      	add	r2, r5
 8005990:	f8c3 2164 	str.w	r2, [r3, #356]	@ 0x164
        if ((ep->xfer_len == 0U) || (count < ep->maxpacket))
 8005994:	f8d3 2168 	ldr.w	r2, [r3, #360]	@ 0x168
 8005998:	b11a      	cbz	r2, 80059a2 <HAL_PCD_IRQHandler+0x39e>
 800599a:	f8d3 3160 	ldr.w	r3, [r3, #352]	@ 0x160
 800599e:	429d      	cmp	r5, r3
 80059a0:	d23f      	bcs.n	8005a22 <HAL_PCD_IRQHandler+0x41e>
          HAL_PCD_DataOutStageCallback(hpcd, ep->num);
 80059a2:	fb09 4307 	mla	r3, r9, r7, r4
 80059a6:	4620      	mov	r0, r4
 80059a8:	f893 1150 	ldrb.w	r1, [r3, #336]	@ 0x150
 80059ac:	f003 f90e 	bl	8008bcc <HAL_PCD_DataOutStageCallback>
      if ((wEPVal & USB_EP_CTR_TX) != 0U)
 80059b0:	f018 0f80 	tst.w	r8, #128	@ 0x80
 80059b4:	f43f ae34 	beq.w	8005620 <HAL_PCD_IRQHandler+0x1c>
        PCD_CLEAR_TX_EP_CTR(hpcd->Instance, epindex);
 80059b8:	6820      	ldr	r0, [r4, #0]
        if (ep->type == EP_TYPE_ISOC)
 80059ba:	fb09 fc07 	mul.w	ip, r9, r7
        PCD_CLEAR_TX_EP_CTR(hpcd->Instance, epindex);
 80059be:	f830 3027 	ldrh.w	r3, [r0, r7, lsl #2]
 80059c2:	b29b      	uxth	r3, r3
 80059c4:	4033      	ands	r3, r6
 80059c6:	f443 4300 	orr.w	r3, r3, #32768	@ 0x8000
 80059ca:	f820 3027 	strh.w	r3, [r0, r7, lsl #2]
        if (ep->type == EP_TYPE_ISOC)
 80059ce:	eb04 030c 	add.w	r3, r4, ip
 80059d2:	7cda      	ldrb	r2, [r3, #19]
 80059d4:	2a01      	cmp	r2, #1
 80059d6:	d154      	bne.n	8005a82 <HAL_PCD_IRQHandler+0x47e>
          ep->xfer_len = 0U;
 80059d8:	2100      	movs	r1, #0
 80059da:	fb07 9209 	mla	r2, r7, r9, r9
 80059de:	50a1      	str	r1, [r4, r2]
          if (ep->doublebuffer != 0U)
 80059e0:	7f1a      	ldrb	r2, [r3, #28]
 80059e2:	b382      	cbz	r2, 8005a46 <HAL_PCD_IRQHandler+0x442>
            if ((wEPVal & USB_EP_DTOG_TX) != 0U)
 80059e4:	f018 0840 	ands.w	r8, r8, #64	@ 0x40
              PCD_SET_EP_DBUF0_CNT(hpcd->Instance, ep->num, ep->is_in, 0U);
 80059e8:	7c5a      	ldrb	r2, [r3, #17]
            if ((wEPVal & USB_EP_DTOG_TX) != 0U)
 80059ea:	d034      	beq.n	8005a56 <HAL_PCD_IRQHandler+0x452>
              PCD_SET_EP_DBUF0_CNT(hpcd->Instance, ep->num, ep->is_in, 0U);
 80059ec:	bb02      	cbnz	r2, 8005a30 <HAL_PCD_IRQHandler+0x42c>
 80059ee:	f8b0 2050 	ldrh.w	r2, [r0, #80]	@ 0x50
 80059f2:	7c1b      	ldrb	r3, [r3, #16]
 80059f4:	b292      	uxth	r2, r2
 80059f6:	011b      	lsls	r3, r3, #4
 80059f8:	f200 4004 	addw	r0, r0, #1028	@ 0x404
              PCD_SET_EP_DBUF1_CNT(hpcd->Instance, ep->num, ep->is_in, 0U);
 80059fc:	4410      	add	r0, r2
 80059fe:	5a1a      	ldrh	r2, [r3, r0]
 8005a00:	f3c2 0209 	ubfx	r2, r2, #0, #10
 8005a04:	521a      	strh	r2, [r3, r0]
 8005a06:	5a1a      	ldrh	r2, [r3, r0]
 8005a08:	b292      	uxth	r2, r2
 8005a0a:	f442 4200 	orr.w	r2, r2, #32768	@ 0x8000
 8005a0e:	521a      	strh	r2, [r3, r0]
 8005a10:	e019      	b.n	8005a46 <HAL_PCD_IRQHandler+0x442>
              count = (uint16_t)PCD_GET_EP_DBUF1_CNT(hpcd->Instance, ep->num);
 8005a12:	3306      	adds	r3, #6
 8005a14:	f83e 5013 	ldrh.w	r5, [lr, r3, lsl #1]
 8005a18:	f3c5 0509 	ubfx	r5, r5, #0, #10
              if (count != 0U)
 8005a1c:	2d00      	cmp	r5, #0
 8005a1e:	d0ac      	beq.n	800597a <HAL_PCD_IRQHandler+0x376>
 8005a20:	e783      	b.n	800592a <HAL_PCD_IRQHandler+0x326>
        ep = &hpcd->OUT_ep[epindex];
 8005a22:	f501 71a8 	add.w	r1, r1, #336	@ 0x150
          (void)USB_EPStartXfer(hpcd->Instance, ep);
 8005a26:	6820      	ldr	r0, [r4, #0]
 8005a28:	4421      	add	r1, r4
 8005a2a:	f002 f83d 	bl	8007aa8 <USB_EPStartXfer>
 8005a2e:	e7bf      	b.n	80059b0 <HAL_PCD_IRQHandler+0x3ac>
              PCD_SET_EP_DBUF0_CNT(hpcd->Instance, ep->num, ep->is_in, 0U);
 8005a30:	2a01      	cmp	r2, #1
 8005a32:	d108      	bne.n	8005a46 <HAL_PCD_IRQHandler+0x442>
 8005a34:	f8b0 2050 	ldrh.w	r2, [r0, #80]	@ 0x50
 8005a38:	7c1b      	ldrb	r3, [r3, #16]
 8005a3a:	b292      	uxth	r2, r2
 8005a3c:	f200 4004 	addw	r0, r0, #1028	@ 0x404
 8005a40:	011b      	lsls	r3, r3, #4
 8005a42:	4410      	add	r0, r2
 8005a44:	5219      	strh	r1, [r3, r0]
          HAL_PCD_DataInStageCallback(hpcd, ep->num);
 8005a46:	2328      	movs	r3, #40	@ 0x28
 8005a48:	fb03 4307 	mla	r3, r3, r7, r4
 8005a4c:	7c19      	ldrb	r1, [r3, #16]
              HAL_PCD_DataInStageCallback(hpcd, ep->num);
 8005a4e:	4620      	mov	r0, r4
 8005a50:	f003 f8c5 	bl	8008bde <HAL_PCD_DataInStageCallback>
 8005a54:	e5e4      	b.n	8005620 <HAL_PCD_IRQHandler+0x1c>
              PCD_SET_EP_DBUF1_CNT(hpcd->Instance, ep->num, ep->is_in, 0U);
 8005a56:	b93a      	cbnz	r2, 8005a68 <HAL_PCD_IRQHandler+0x464>
 8005a58:	f8b0 2050 	ldrh.w	r2, [r0, #80]	@ 0x50
 8005a5c:	7c1b      	ldrb	r3, [r3, #16]
 8005a5e:	b292      	uxth	r2, r2
 8005a60:	011b      	lsls	r3, r3, #4
 8005a62:	f200 400c 	addw	r0, r0, #1036	@ 0x40c
 8005a66:	e7c9      	b.n	80059fc <HAL_PCD_IRQHandler+0x3f8>
 8005a68:	2a01      	cmp	r2, #1
 8005a6a:	d1ec      	bne.n	8005a46 <HAL_PCD_IRQHandler+0x442>
 8005a6c:	f8b0 2050 	ldrh.w	r2, [r0, #80]	@ 0x50
 8005a70:	7c1b      	ldrb	r3, [r3, #16]
 8005a72:	b292      	uxth	r2, r2
 8005a74:	f200 400c 	addw	r0, r0, #1036	@ 0x40c
 8005a78:	011b      	lsls	r3, r3, #4
 8005a7a:	4410      	add	r0, r2
 8005a7c:	f823 8000 	strh.w	r8, [r3, r0]
 8005a80:	e7e1      	b.n	8005a46 <HAL_PCD_IRQHandler+0x442>
            TxPctSize = (uint16_t)PCD_GET_EP_TX_CNT(hpcd->Instance, ep->num);
 8005a82:	7c19      	ldrb	r1, [r3, #16]
 8005a84:	f8b0 5050 	ldrh.w	r5, [r0, #80]	@ 0x50
 8005a88:	ea4f 0ac1 	mov.w	sl, r1, lsl #3
 8005a8c:	b2ad      	uxth	r5, r5
          if ((wEPVal & USB_EP_KIND) == 0U)
 8005a8e:	f418 7b80 	ands.w	fp, r8, #256	@ 0x100
            if (ep->xfer_len > TxPctSize)
 8005a92:	6a9a      	ldr	r2, [r3, #40]	@ 0x28
 8005a94:	f500 6e80 	add.w	lr, r0, #1024	@ 0x400
            TxPctSize = (uint16_t)PCD_GET_EP_TX_CNT(hpcd->Instance, ep->num);
 8005a98:	4455      	add	r5, sl
          if ((wEPVal & USB_EP_KIND) == 0U)
 8005a9a:	d117      	bne.n	8005acc <HAL_PCD_IRQHandler+0x4c8>
            TxPctSize = (uint16_t)PCD_GET_EP_TX_CNT(hpcd->Instance, ep->num);
 8005a9c:	3502      	adds	r5, #2
 8005a9e:	f83e 5015 	ldrh.w	r5, [lr, r5, lsl #1]
            if (ep->xfer_len > TxPctSize)
 8005aa2:	f3c5 0509 	ubfx	r5, r5, #0, #10
 8005aa6:	4295      	cmp	r5, r2
 8005aa8:	d302      	bcc.n	8005ab0 <HAL_PCD_IRQHandler+0x4ac>
 8005aaa:	f8c3 b028 	str.w	fp, [r3, #40]	@ 0x28
 8005aae:	e7ce      	b.n	8005a4e <HAL_PCD_IRQHandler+0x44a>
              ep->xfer_len -= TxPctSize;
 8005ab0:	1b52      	subs	r2, r2, r5
 8005ab2:	629a      	str	r2, [r3, #40]	@ 0x28
              ep->xfer_buff += TxPctSize;
 8005ab4:	6a5a      	ldr	r2, [r3, #36]	@ 0x24
        ep = &hpcd->IN_ep[epindex];
 8005ab6:	f10c 0110 	add.w	r1, ip, #16
              ep->xfer_buff += TxPctSize;
 8005aba:	442a      	add	r2, r5
 8005abc:	625a      	str	r2, [r3, #36]	@ 0x24
              ep->xfer_count += TxPctSize;
 8005abe:	6ada      	ldr	r2, [r3, #44]	@ 0x2c
              (void)USB_EPStartXfer(hpcd->Instance, ep);
 8005ac0:	4421      	add	r1, r4
              ep->xfer_count += TxPctSize;
 8005ac2:	442a      	add	r2, r5
 8005ac4:	62da      	str	r2, [r3, #44]	@ 0x2c
              (void)USB_EPStartXfer(hpcd->Instance, ep);
 8005ac6:	f001 ffef 	bl	8007aa8 <USB_EPStartXfer>
 8005aca:	e5a9      	b.n	8005620 <HAL_PCD_IRQHandler+0x1c>
{
  uint32_t len;
  uint16_t TxPctSize;

  /* Data Buffer0 ACK received */
  if ((wEPVal & USB_EP_DTOG_TX) != 0U)
 8005acc:	f018 0c40 	ands.w	ip, r8, #64	@ 0x40
 8005ad0:	f408 4880 	and.w	r8, r8, #16384	@ 0x4000
 8005ad4:	f000 80e4 	beq.w	8005ca0 <HAL_PCD_IRQHandler+0x69c>
  {
    /* multi-packet on the NON control IN endpoint */
    TxPctSize = (uint16_t)PCD_GET_EP_DBUF0_CNT(hpcd->Instance, ep->num);
 8005ad8:	3502      	adds	r5, #2
 8005ada:	f83e 5015 	ldrh.w	r5, [lr, r5, lsl #1]
 8005ade:	fa1f f888 	uxth.w	r8, r8

    if (ep->xfer_len > TxPctSize)
 8005ae2:	f3c5 0509 	ubfx	r5, r5, #0, #10
 8005ae6:	4295      	cmp	r5, r2
    {
      ep->xfer_len -= TxPctSize;
    }
    else
    {
      ep->xfer_len = 0U;
 8005ae8:	bf2c      	ite	cs
 8005aea:	2200      	movcs	r2, #0
      ep->xfer_len -= TxPctSize;
 8005aec:	1b52      	subcc	r2, r2, r5
 8005aee:	629a      	str	r2, [r3, #40]	@ 0x28
    }

    /* Transfer is completed */
    if (ep->xfer_len == 0U)
 8005af0:	2a00      	cmp	r2, #0
 8005af2:	d155      	bne.n	8005ba0 <HAL_PCD_IRQHandler+0x59c>
    {
      PCD_SET_EP_DBUF0_CNT(hpcd->Instance, ep->num, ep->is_in, 0U);
 8005af4:	2328      	movs	r3, #40	@ 0x28
 8005af6:	fb03 4307 	mla	r3, r3, r7, r4
 8005afa:	7c5b      	ldrb	r3, [r3, #17]
 8005afc:	2b00      	cmp	r3, #0
 8005afe:	d13d      	bne.n	8005b7c <HAL_PCD_IRQHandler+0x578>
 8005b00:	f8b0 2050 	ldrh.w	r2, [r0, #80]	@ 0x50
 8005b04:	f200 4504 	addw	r5, r0, #1028	@ 0x404
 8005b08:	b292      	uxth	r2, r2
 8005b0a:	010b      	lsls	r3, r1, #4
 8005b0c:	4415      	add	r5, r2
 8005b0e:	5aea      	ldrh	r2, [r5, r3]
 8005b10:	f3c2 0209 	ubfx	r2, r2, #0, #10
 8005b14:	52ea      	strh	r2, [r5, r3]
 8005b16:	5aea      	ldrh	r2, [r5, r3]
 8005b18:	ea6f 4242 	mvn.w	r2, r2, lsl #17
 8005b1c:	ea6f 4252 	mvn.w	r2, r2, lsr #17
 8005b20:	b292      	uxth	r2, r2
 8005b22:	52ea      	strh	r2, [r5, r3]
      PCD_SET_EP_DBUF1_CNT(hpcd->Instance, ep->num, ep->is_in, 0U);
 8005b24:	f8b0 2050 	ldrh.w	r2, [r0, #80]	@ 0x50
 8005b28:	f200 400c 	addw	r0, r0, #1036	@ 0x40c
 8005b2c:	b292      	uxth	r2, r2
 8005b2e:	4410      	add	r0, r2
 8005b30:	5ac2      	ldrh	r2, [r0, r3]
 8005b32:	f3c2 0209 	ubfx	r2, r2, #0, #10
 8005b36:	52c2      	strh	r2, [r0, r3]
 8005b38:	5ac2      	ldrh	r2, [r0, r3]
 8005b3a:	ea6f 4242 	mvn.w	r2, r2, lsl #17
 8005b3e:	ea6f 4252 	mvn.w	r2, r2, lsr #17
 8005b42:	b292      	uxth	r2, r2
 8005b44:	52c2      	strh	r2, [r0, r3]

      /* TX COMPLETE */
#if (USE_HAL_PCD_REGISTER_CALLBACKS == 1U)
      hpcd->DataInStageCallback(hpcd, ep->num);
#else
      HAL_PCD_DataInStageCallback(hpcd, ep->num);
 8005b46:	4620      	mov	r0, r4
 8005b48:	f003 f849 	bl	8008bde <HAL_PCD_DataInStageCallback>
#endif /* USE_HAL_PCD_REGISTER_CALLBACKS */

      if ((wEPVal & USB_EP_DTOG_RX) != 0U)
 8005b4c:	f1b8 0f00 	cmp.w	r8, #0
 8005b50:	f000 80e4 	beq.w	8005d1c <HAL_PCD_IRQHandler+0x718>
#endif /* USE_HAL_PCD_REGISTER_CALLBACKS */

      /* need to Free USB Buff */
      if ((wEPVal & USB_EP_DTOG_RX) == 0U)
      {
        PCD_FREE_USER_BUFFER(hpcd->Instance, ep->num, 1U);
 8005b54:	2328      	movs	r3, #40	@ 0x28
 8005b56:	fb03 4307 	mla	r3, r3, r7, r4
 8005b5a:	6822      	ldr	r2, [r4, #0]
 8005b5c:	7c19      	ldrb	r1, [r3, #16]
 8005b5e:	f832 3021 	ldrh.w	r3, [r2, r1, lsl #2]
 8005b62:	f423 43e0 	bic.w	r3, r3, #28672	@ 0x7000
 8005b66:	f023 0370 	bic.w	r3, r3, #112	@ 0x70
 8005b6a:	041b      	lsls	r3, r3, #16
 8005b6c:	0c1b      	lsrs	r3, r3, #16
 8005b6e:	f443 4340 	orr.w	r3, r3, #49152	@ 0xc000
 8005b72:	f043 0380 	orr.w	r3, r3, #128	@ 0x80
 8005b76:	f822 3021 	strh.w	r3, [r2, r1, lsl #2]
 8005b7a:	e0cf      	b.n	8005d1c <HAL_PCD_IRQHandler+0x718>
      PCD_SET_EP_DBUF0_CNT(hpcd->Instance, ep->num, ep->is_in, 0U);
 8005b7c:	2b01      	cmp	r3, #1
 8005b7e:	d1e2      	bne.n	8005b46 <HAL_PCD_IRQHandler+0x542>
 8005b80:	f8b0 c050 	ldrh.w	ip, [r0, #80]	@ 0x50
 8005b84:	f200 4504 	addw	r5, r0, #1028	@ 0x404
 8005b88:	fa1f fc8c 	uxth.w	ip, ip
 8005b8c:	4465      	add	r5, ip
 8005b8e:	010b      	lsls	r3, r1, #4
 8005b90:	52ea      	strh	r2, [r5, r3]
      PCD_SET_EP_DBUF1_CNT(hpcd->Instance, ep->num, ep->is_in, 0U);
 8005b92:	f8b0 5050 	ldrh.w	r5, [r0, #80]	@ 0x50
 8005b96:	f200 400c 	addw	r0, r0, #1036	@ 0x40c
 8005b9a:	b2ad      	uxth	r5, r5
 8005b9c:	4428      	add	r0, r5
 8005b9e:	e7d1      	b.n	8005b44 <HAL_PCD_IRQHandler+0x540>
      if ((wEPVal & USB_EP_DTOG_RX) != 0U)
 8005ba0:	f1b8 0f00 	cmp.w	r8, #0
 8005ba4:	d00d      	beq.n	8005bc2 <HAL_PCD_IRQHandler+0x5be>
        PCD_FREE_USER_BUFFER(hpcd->Instance, ep->num, 1U);
 8005ba6:	f830 2021 	ldrh.w	r2, [r0, r1, lsl #2]
 8005baa:	f422 42e0 	bic.w	r2, r2, #28672	@ 0x7000
 8005bae:	f022 0270 	bic.w	r2, r2, #112	@ 0x70
 8005bb2:	0412      	lsls	r2, r2, #16
 8005bb4:	0c12      	lsrs	r2, r2, #16
 8005bb6:	f442 4240 	orr.w	r2, r2, #49152	@ 0xc000
 8005bba:	f042 0280 	orr.w	r2, r2, #128	@ 0x80
 8005bbe:	f820 2021 	strh.w	r2, [r0, r1, lsl #2]
      if (ep->xfer_fill_db == 1U)
 8005bc2:	f04f 0e28 	mov.w	lr, #40	@ 0x28
 8005bc6:	fb0e 4e07 	mla	lr, lr, r7, r4
 8005bca:	f89e 2034 	ldrb.w	r2, [lr, #52]	@ 0x34
 8005bce:	2a01      	cmp	r2, #1
 8005bd0:	f040 80a4 	bne.w	8005d1c <HAL_PCD_IRQHandler+0x718>
        ep->xfer_buff += TxPctSize;
 8005bd4:	f8de 2024 	ldr.w	r2, [lr, #36]	@ 0x24
 8005bd8:	eb02 0c05 	add.w	ip, r2, r5
 8005bdc:	f8ce c024 	str.w	ip, [lr, #36]	@ 0x24
        ep->xfer_count += TxPctSize;
 8005be0:	6ada      	ldr	r2, [r3, #44]	@ 0x2c
 8005be2:	442a      	add	r2, r5
 8005be4:	62da      	str	r2, [r3, #44]	@ 0x2c
        if (ep->xfer_len_db >= ep->maxpacket)
 8005be6:	f8de 3030 	ldr.w	r3, [lr, #48]	@ 0x30
 8005bea:	f8de 2020 	ldr.w	r2, [lr, #32]
 8005bee:	4293      	cmp	r3, r2
 8005bf0:	d331      	bcc.n	8005c56 <HAL_PCD_IRQHandler+0x652>
          ep->xfer_len_db -= len;
 8005bf2:	1a9b      	subs	r3, r3, r2
 8005bf4:	f8ce 3030 	str.w	r3, [lr, #48]	@ 0x30
        PCD_SET_EP_DBUF0_CNT(hpcd->Instance, ep->num, ep->is_in, len);
 8005bf8:	2328      	movs	r3, #40	@ 0x28
 8005bfa:	fb03 4307 	mla	r3, r3, r7, r4
 8005bfe:	7c5d      	ldrb	r5, [r3, #17]
 8005c00:	b293      	uxth	r3, r2
 8005c02:	2d00      	cmp	r5, #0
 8005c04:	d141      	bne.n	8005c8a <HAL_PCD_IRQHandler+0x686>
 8005c06:	f8b0 e050 	ldrh.w	lr, [r0, #80]	@ 0x50
 8005c0a:	f200 4504 	addw	r5, r0, #1028	@ 0x404
 8005c0e:	fa1f fe8e 	uxth.w	lr, lr
 8005c12:	4475      	add	r5, lr
 8005c14:	0109      	lsls	r1, r1, #4
 8005c16:	f835 e001 	ldrh.w	lr, [r5, r1]
 8005c1a:	2a3e      	cmp	r2, #62	@ 0x3e
 8005c1c:	f3ce 0e09 	ubfx	lr, lr, #0, #10
 8005c20:	f825 e001 	strh.w	lr, [r5, r1]
 8005c24:	d923      	bls.n	8005c6e <HAL_PCD_IRQHandler+0x66a>
 8005c26:	ea4f 1e52 	mov.w	lr, r2, lsr #5
 8005c2a:	06d2      	lsls	r2, r2, #27
 8005c2c:	5a6a      	ldrh	r2, [r5, r1]
 8005c2e:	bf08      	it	eq
 8005c30:	f10e 3eff 	addeq.w	lr, lr, #4294967295
 8005c34:	b292      	uxth	r2, r2
 8005c36:	ea42 228e 	orr.w	r2, r2, lr, lsl #10
 8005c3a:	ea6f 4242 	mvn.w	r2, r2, lsl #17
 8005c3e:	ea6f 4252 	mvn.w	r2, r2, lsr #17
 8005c42:	b292      	uxth	r2, r2
 8005c44:	526a      	strh	r2, [r5, r1]
        USB_WritePMA(hpcd->Instance, ep->xfer_buff,  ep->pmaaddr0, (uint16_t)len);
 8005c46:	2228      	movs	r2, #40	@ 0x28
 8005c48:	fb02 4207 	mla	r2, r2, r7, r4
 8005c4c:	8b12      	ldrh	r2, [r2, #24]

        /* Set the Double buffer counter for pmabuffer1 */
        PCD_SET_EP_DBUF1_CNT(hpcd->Instance, ep->num, ep->is_in, len);

        /* Copy the user buffer to USB PMA */
        USB_WritePMA(hpcd->Instance, ep->xfer_buff,  ep->pmaaddr1, (uint16_t)len);
 8005c4e:	4661      	mov	r1, ip
 8005c50:	f001 ff1a 	bl	8007a88 <USB_WritePMA>
 8005c54:	e062      	b.n	8005d1c <HAL_PCD_IRQHandler+0x718>
        else if (ep->xfer_len_db == 0U)
 8005c56:	b91b      	cbnz	r3, 8005c60 <HAL_PCD_IRQHandler+0x65c>
          len = TxPctSize;
 8005c58:	462a      	mov	r2, r5
          ep->xfer_fill_db = 0U;
 8005c5a:	f88e 3034 	strb.w	r3, [lr, #52]	@ 0x34
 8005c5e:	e7cb      	b.n	8005bf8 <HAL_PCD_IRQHandler+0x5f4>
          ep->xfer_fill_db = 0U;
 8005c60:	2200      	movs	r2, #0
 8005c62:	f88e 2034 	strb.w	r2, [lr, #52]	@ 0x34
          ep->xfer_len_db = 0U;
 8005c66:	f8ce 2030 	str.w	r2, [lr, #48]	@ 0x30
          len = ep->xfer_len_db;
 8005c6a:	461a      	mov	r2, r3
 8005c6c:	e7c4      	b.n	8005bf8 <HAL_PCD_IRQHandler+0x5f4>
        PCD_SET_EP_DBUF0_CNT(hpcd->Instance, ep->num, ep->is_in, len);
 8005c6e:	b90a      	cbnz	r2, 8005c74 <HAL_PCD_IRQHandler+0x670>
 8005c70:	5a6a      	ldrh	r2, [r5, r1]
 8005c72:	e7e2      	b.n	8005c3a <HAL_PCD_IRQHandler+0x636>
 8005c74:	f835 e001 	ldrh.w	lr, [r5, r1]
 8005c78:	f002 0801 	and.w	r8, r2, #1
 8005c7c:	fa1f fe8e 	uxth.w	lr, lr
 8005c80:	eb08 0252 	add.w	r2, r8, r2, lsr #1
 8005c84:	ea4e 2282 	orr.w	r2, lr, r2, lsl #10
 8005c88:	e7db      	b.n	8005c42 <HAL_PCD_IRQHandler+0x63e>
 8005c8a:	2d01      	cmp	r5, #1
 8005c8c:	d1db      	bne.n	8005c46 <HAL_PCD_IRQHandler+0x642>
 8005c8e:	f8b0 5050 	ldrh.w	r5, [r0, #80]	@ 0x50
 8005c92:	f200 4204 	addw	r2, r0, #1028	@ 0x404
 8005c96:	b2ad      	uxth	r5, r5
 8005c98:	442a      	add	r2, r5
 8005c9a:	0109      	lsls	r1, r1, #4
 8005c9c:	5253      	strh	r3, [r2, r1]
 8005c9e:	e7d2      	b.n	8005c46 <HAL_PCD_IRQHandler+0x642>
    TxPctSize = (uint16_t)PCD_GET_EP_DBUF1_CNT(hpcd->Instance, ep->num);
 8005ca0:	3506      	adds	r5, #6
 8005ca2:	f83e 5015 	ldrh.w	r5, [lr, r5, lsl #1]
 8005ca6:	fa1f f888 	uxth.w	r8, r8
    if (ep->xfer_len >= TxPctSize)
 8005caa:	f3c5 0509 	ubfx	r5, r5, #0, #10
 8005cae:	4295      	cmp	r5, r2
      ep->xfer_len = 0U;
 8005cb0:	bf8c      	ite	hi
 8005cb2:	4662      	movhi	r2, ip
      ep->xfer_len -= TxPctSize;
 8005cb4:	1b52      	subls	r2, r2, r5
 8005cb6:	629a      	str	r2, [r3, #40]	@ 0x28
    if (ep->xfer_len == 0U)
 8005cb8:	2a00      	cmp	r2, #0
 8005cba:	d157      	bne.n	8005d6c <HAL_PCD_IRQHandler+0x768>
      PCD_SET_EP_DBUF0_CNT(hpcd->Instance, ep->num, ep->is_in, 0U);
 8005cbc:	2328      	movs	r3, #40	@ 0x28
 8005cbe:	fb03 4307 	mla	r3, r3, r7, r4
 8005cc2:	7c5b      	ldrb	r3, [r3, #17]
 8005cc4:	2b00      	cmp	r3, #0
 8005cc6:	d13f      	bne.n	8005d48 <HAL_PCD_IRQHandler+0x744>
 8005cc8:	f8b0 2050 	ldrh.w	r2, [r0, #80]	@ 0x50
 8005ccc:	f200 4504 	addw	r5, r0, #1028	@ 0x404
 8005cd0:	b292      	uxth	r2, r2
 8005cd2:	010b      	lsls	r3, r1, #4
 8005cd4:	4415      	add	r5, r2
 8005cd6:	5aea      	ldrh	r2, [r5, r3]
 8005cd8:	f3c2 0209 	ubfx	r2, r2, #0, #10
 8005cdc:	52ea      	strh	r2, [r5, r3]
 8005cde:	5aea      	ldrh	r2, [r5, r3]
 8005ce0:	ea6f 4242 	mvn.w	r2, r2, lsl #17
 8005ce4:	ea6f 4252 	mvn.w	r2, r2, lsr #17
 8005ce8:	b292      	uxth	r2, r2
 8005cea:	52ea      	strh	r2, [r5, r3]
      PCD_SET_EP_DBUF1_CNT(hpcd->Instance, ep->num, ep->is_in, 0U);
 8005cec:	f8b0 2050 	ldrh.w	r2, [r0, #80]	@ 0x50
 8005cf0:	f200 400c 	addw	r0, r0, #1036	@ 0x40c
 8005cf4:	b292      	uxth	r2, r2
 8005cf6:	4410      	add	r0, r2
 8005cf8:	5ac2      	ldrh	r2, [r0, r3]
 8005cfa:	f3c2 0209 	ubfx	r2, r2, #0, #10
 8005cfe:	52c2      	strh	r2, [r0, r3]
 8005d00:	5ac2      	ldrh	r2, [r0, r3]
 8005d02:	ea6f 4242 	mvn.w	r2, r2, lsl #17
 8005d06:	ea6f 4252 	mvn.w	r2, r2, lsr #17
 8005d0a:	b292      	uxth	r2, r2
 8005d0c:	52c2      	strh	r2, [r0, r3]
      HAL_PCD_DataInStageCallback(hpcd, ep->num);
 8005d0e:	4620      	mov	r0, r4
 8005d10:	f002 ff65 	bl	8008bde <HAL_PCD_DataInStageCallback>
      if ((wEPVal & USB_EP_DTOG_RX) == 0U)
 8005d14:	f1b8 0f00 	cmp.w	r8, #0
 8005d18:	f43f af1c 	beq.w	8005b54 <HAL_PCD_IRQHandler+0x550>
      }
    }
  }

  /*enable endpoint IN*/
  PCD_SET_EP_TX_STATUS(hpcd->Instance, ep->num, USB_EP_TX_VALID);
 8005d1c:	2328      	movs	r3, #40	@ 0x28
 8005d1e:	fb03 4707 	mla	r7, r3, r7, r4
 8005d22:	6822      	ldr	r2, [r4, #0]
 8005d24:	7c39      	ldrb	r1, [r7, #16]
 8005d26:	f832 3021 	ldrh.w	r3, [r2, r1, lsl #2]
 8005d2a:	f423 43e0 	bic.w	r3, r3, #28672	@ 0x7000
 8005d2e:	f023 0340 	bic.w	r3, r3, #64	@ 0x40
 8005d32:	041b      	lsls	r3, r3, #16
 8005d34:	0c1b      	lsrs	r3, r3, #16
 8005d36:	f083 0330 	eor.w	r3, r3, #48	@ 0x30
 8005d3a:	f443 4300 	orr.w	r3, r3, #32768	@ 0x8000
 8005d3e:	f043 0380 	orr.w	r3, r3, #128	@ 0x80
 8005d42:	f822 3021 	strh.w	r3, [r2, r1, lsl #2]

  return HAL_OK;
 8005d46:	e46b      	b.n	8005620 <HAL_PCD_IRQHandler+0x1c>
      PCD_SET_EP_DBUF0_CNT(hpcd->Instance, ep->num, ep->is_in, 0U);
 8005d48:	2b01      	cmp	r3, #1
 8005d4a:	d1e0      	bne.n	8005d0e <HAL_PCD_IRQHandler+0x70a>
 8005d4c:	f8b0 c050 	ldrh.w	ip, [r0, #80]	@ 0x50
 8005d50:	f200 4504 	addw	r5, r0, #1028	@ 0x404
 8005d54:	fa1f fc8c 	uxth.w	ip, ip
 8005d58:	4465      	add	r5, ip
 8005d5a:	010b      	lsls	r3, r1, #4
 8005d5c:	52ea      	strh	r2, [r5, r3]
      PCD_SET_EP_DBUF1_CNT(hpcd->Instance, ep->num, ep->is_in, 0U);
 8005d5e:	f8b0 5050 	ldrh.w	r5, [r0, #80]	@ 0x50
 8005d62:	f200 400c 	addw	r0, r0, #1036	@ 0x40c
 8005d66:	b2ad      	uxth	r5, r5
 8005d68:	4428      	add	r0, r5
 8005d6a:	e7cf      	b.n	8005d0c <HAL_PCD_IRQHandler+0x708>
      if ((wEPVal & USB_EP_DTOG_RX) == 0U)
 8005d6c:	f1b8 0f00 	cmp.w	r8, #0
 8005d70:	d10d      	bne.n	8005d8e <HAL_PCD_IRQHandler+0x78a>
        PCD_FREE_USER_BUFFER(hpcd->Instance, ep->num, 1U);
 8005d72:	f830 2021 	ldrh.w	r2, [r0, r1, lsl #2]
 8005d76:	f422 42e0 	bic.w	r2, r2, #28672	@ 0x7000
 8005d7a:	f022 0270 	bic.w	r2, r2, #112	@ 0x70
 8005d7e:	0412      	lsls	r2, r2, #16
 8005d80:	0c12      	lsrs	r2, r2, #16
 8005d82:	f442 4240 	orr.w	r2, r2, #49152	@ 0xc000
 8005d86:	f042 0280 	orr.w	r2, r2, #128	@ 0x80
 8005d8a:	f820 2021 	strh.w	r2, [r0, r1, lsl #2]
      if (ep->xfer_fill_db == 1U)
 8005d8e:	f04f 0e28 	mov.w	lr, #40	@ 0x28
 8005d92:	fb0e 4e07 	mla	lr, lr, r7, r4
 8005d96:	f89e 2034 	ldrb.w	r2, [lr, #52]	@ 0x34
 8005d9a:	2a01      	cmp	r2, #1
 8005d9c:	d1be      	bne.n	8005d1c <HAL_PCD_IRQHandler+0x718>
        ep->xfer_buff += TxPctSize;
 8005d9e:	f8de 2024 	ldr.w	r2, [lr, #36]	@ 0x24
 8005da2:	eb02 0c05 	add.w	ip, r2, r5
 8005da6:	f8ce c024 	str.w	ip, [lr, #36]	@ 0x24
        ep->xfer_count += TxPctSize;
 8005daa:	6ada      	ldr	r2, [r3, #44]	@ 0x2c
 8005dac:	442a      	add	r2, r5
 8005dae:	62da      	str	r2, [r3, #44]	@ 0x2c
        if (ep->xfer_len_db >= ep->maxpacket)
 8005db0:	f8de 3030 	ldr.w	r3, [lr, #48]	@ 0x30
 8005db4:	f8de 2020 	ldr.w	r2, [lr, #32]
 8005db8:	4293      	cmp	r3, r2
 8005dba:	d32e      	bcc.n	8005e1a <HAL_PCD_IRQHandler+0x816>
          ep->xfer_len_db -= len;
 8005dbc:	1a9b      	subs	r3, r3, r2
 8005dbe:	f8ce 3030 	str.w	r3, [lr, #48]	@ 0x30
        PCD_SET_EP_DBUF1_CNT(hpcd->Instance, ep->num, ep->is_in, len);
 8005dc2:	2328      	movs	r3, #40	@ 0x28
 8005dc4:	fb03 4307 	mla	r3, r3, r7, r4
 8005dc8:	7c5d      	ldrb	r5, [r3, #17]
 8005dca:	b293      	uxth	r3, r2
 8005dcc:	2d00      	cmp	r5, #0
 8005dce:	d13e      	bne.n	8005e4e <HAL_PCD_IRQHandler+0x84a>
 8005dd0:	f8b0 e050 	ldrh.w	lr, [r0, #80]	@ 0x50
 8005dd4:	f200 450c 	addw	r5, r0, #1036	@ 0x40c
 8005dd8:	fa1f fe8e 	uxth.w	lr, lr
 8005ddc:	4475      	add	r5, lr
 8005dde:	0109      	lsls	r1, r1, #4
 8005de0:	f835 e001 	ldrh.w	lr, [r5, r1]
 8005de4:	2a3e      	cmp	r2, #62	@ 0x3e
 8005de6:	f3ce 0e09 	ubfx	lr, lr, #0, #10
 8005dea:	f825 e001 	strh.w	lr, [r5, r1]
 8005dee:	d920      	bls.n	8005e32 <HAL_PCD_IRQHandler+0x82e>
 8005df0:	ea4f 1e52 	mov.w	lr, r2, lsr #5
 8005df4:	06d2      	lsls	r2, r2, #27
 8005df6:	5a6a      	ldrh	r2, [r5, r1]
 8005df8:	bf08      	it	eq
 8005dfa:	f10e 3eff 	addeq.w	lr, lr, #4294967295
 8005dfe:	b292      	uxth	r2, r2
 8005e00:	ea42 228e 	orr.w	r2, r2, lr, lsl #10
 8005e04:	ea6f 4242 	mvn.w	r2, r2, lsl #17
 8005e08:	ea6f 4252 	mvn.w	r2, r2, lsr #17
 8005e0c:	b292      	uxth	r2, r2
 8005e0e:	526a      	strh	r2, [r5, r1]
        USB_WritePMA(hpcd->Instance, ep->xfer_buff,  ep->pmaaddr1, (uint16_t)len);
 8005e10:	2228      	movs	r2, #40	@ 0x28
 8005e12:	fb02 4207 	mla	r2, r2, r7, r4
 8005e16:	8b52      	ldrh	r2, [r2, #26]
 8005e18:	e719      	b.n	8005c4e <HAL_PCD_IRQHandler+0x64a>
        else if (ep->xfer_len_db == 0U)
 8005e1a:	b91b      	cbnz	r3, 8005e24 <HAL_PCD_IRQHandler+0x820>
          len = TxPctSize;
 8005e1c:	462a      	mov	r2, r5
          ep->xfer_fill_db = 0U;
 8005e1e:	f88e 3034 	strb.w	r3, [lr, #52]	@ 0x34
 8005e22:	e7ce      	b.n	8005dc2 <HAL_PCD_IRQHandler+0x7be>
          ep->xfer_len_db = 0U;
 8005e24:	2200      	movs	r2, #0
 8005e26:	f8ce 2030 	str.w	r2, [lr, #48]	@ 0x30
          ep->xfer_fill_db = 0;
 8005e2a:	f88e 2034 	strb.w	r2, [lr, #52]	@ 0x34
          len = ep->xfer_len_db;
 8005e2e:	461a      	mov	r2, r3
 8005e30:	e7c7      	b.n	8005dc2 <HAL_PCD_IRQHandler+0x7be>
        PCD_SET_EP_DBUF1_CNT(hpcd->Instance, ep->num, ep->is_in, len);
 8005e32:	b90a      	cbnz	r2, 8005e38 <HAL_PCD_IRQHandler+0x834>
 8005e34:	5a6a      	ldrh	r2, [r5, r1]
 8005e36:	e7e5      	b.n	8005e04 <HAL_PCD_IRQHandler+0x800>
 8005e38:	f835 e001 	ldrh.w	lr, [r5, r1]
 8005e3c:	f002 0801 	and.w	r8, r2, #1
 8005e40:	fa1f fe8e 	uxth.w	lr, lr
 8005e44:	eb08 0252 	add.w	r2, r8, r2, lsr #1
 8005e48:	ea4e 2282 	orr.w	r2, lr, r2, lsl #10
 8005e4c:	e7de      	b.n	8005e0c <HAL_PCD_IRQHandler+0x808>
 8005e4e:	2d01      	cmp	r5, #1
 8005e50:	d1de      	bne.n	8005e10 <HAL_PCD_IRQHandler+0x80c>
 8005e52:	f8b0 2050 	ldrh.w	r2, [r0, #80]	@ 0x50
 8005e56:	f200 450c 	addw	r5, r0, #1036	@ 0x40c
 8005e5a:	b292      	uxth	r2, r2
 8005e5c:	4415      	add	r5, r2
 8005e5e:	010a      	lsls	r2, r1, #4
 8005e60:	52ab      	strh	r3, [r5, r2]
 8005e62:	e7d5      	b.n	8005e10 <HAL_PCD_IRQHandler+0x80c>
  if ((wIstr & USB_ISTR_RESET) == USB_ISTR_RESET)
 8005e64:	0542      	lsls	r2, r0, #21
 8005e66:	d512      	bpl.n	8005e8e <HAL_PCD_IRQHandler+0x88a>
    __HAL_PCD_CLEAR_FLAG(hpcd, USB_ISTR_RESET);
 8005e68:	6822      	ldr	r2, [r4, #0]
    HAL_PCD_ResetCallback(hpcd);
 8005e6a:	4620      	mov	r0, r4
    __HAL_PCD_CLEAR_FLAG(hpcd, USB_ISTR_RESET);
 8005e6c:	f8b2 3044 	ldrh.w	r3, [r2, #68]	@ 0x44
 8005e70:	f423 6380 	bic.w	r3, r3, #1024	@ 0x400
 8005e74:	041b      	lsls	r3, r3, #16
 8005e76:	0c1b      	lsrs	r3, r3, #16
 8005e78:	f8a2 3044 	strh.w	r3, [r2, #68]	@ 0x44
    HAL_PCD_ResetCallback(hpcd);
 8005e7c:	f002 febb 	bl	8008bf6 <HAL_PCD_ResetCallback>
    (void)HAL_PCD_SetAddress(hpcd, 0U);
 8005e80:	4629      	mov	r1, r5
 8005e82:	4620      	mov	r0, r4
}
 8005e84:	b007      	add	sp, #28
 8005e86:	e8bd 4ff0 	ldmia.w	sp!, {r4, r5, r6, r7, r8, r9, sl, fp, lr}
    (void)HAL_PCD_SetAddress(hpcd, 0U);
 8005e8a:	f7ff bba8 	b.w	80055de <HAL_PCD_SetAddress>
  if ((wIstr & USB_ISTR_PMAOVR) == USB_ISTR_PMAOVR)
 8005e8e:	0443      	lsls	r3, r0, #17
 8005e90:	d50a      	bpl.n	8005ea8 <HAL_PCD_IRQHandler+0x8a4>
    __HAL_PCD_CLEAR_FLAG(hpcd, USB_ISTR_PMAOVR);
 8005e92:	6822      	ldr	r2, [r4, #0]
 8005e94:	f8b2 3044 	ldrh.w	r3, [r2, #68]	@ 0x44
 8005e98:	f423 4380 	bic.w	r3, r3, #16384	@ 0x4000
    __HAL_PCD_CLEAR_FLAG(hpcd, USB_ISTR_ESOF);
 8005e9c:	041b      	lsls	r3, r3, #16
 8005e9e:	0c1b      	lsrs	r3, r3, #16
 8005ea0:	f8a2 3044 	strh.w	r3, [r2, #68]	@ 0x44
    return;
 8005ea4:	f7ff bbc1 	b.w	800562a <HAL_PCD_IRQHandler+0x26>
  if ((wIstr & USB_ISTR_ERR) == USB_ISTR_ERR)
 8005ea8:	0487      	lsls	r7, r0, #18
 8005eaa:	d505      	bpl.n	8005eb8 <HAL_PCD_IRQHandler+0x8b4>
    __HAL_PCD_CLEAR_FLAG(hpcd, USB_ISTR_ERR);
 8005eac:	6822      	ldr	r2, [r4, #0]
 8005eae:	f8b2 3044 	ldrh.w	r3, [r2, #68]	@ 0x44
 8005eb2:	f423 5300 	bic.w	r3, r3, #8192	@ 0x2000
 8005eb6:	e7f1      	b.n	8005e9c <HAL_PCD_IRQHandler+0x898>
  if ((wIstr & USB_ISTR_WKUP) == USB_ISTR_WKUP)
 8005eb8:	04c6      	lsls	r6, r0, #19
 8005eba:	d519      	bpl.n	8005ef0 <HAL_PCD_IRQHandler+0x8ec>
    hpcd->Instance->CNTR &= (uint16_t) ~(USB_CNTR_LP_MODE);
 8005ebc:	6822      	ldr	r2, [r4, #0]
    HAL_PCD_ResumeCallback(hpcd);
 8005ebe:	4620      	mov	r0, r4
    hpcd->Instance->CNTR &= (uint16_t) ~(USB_CNTR_LP_MODE);
 8005ec0:	f8b2 3040 	ldrh.w	r3, [r2, #64]	@ 0x40
 8005ec4:	f023 0304 	bic.w	r3, r3, #4
 8005ec8:	041b      	lsls	r3, r3, #16
 8005eca:	0c1b      	lsrs	r3, r3, #16
 8005ecc:	f8a2 3040 	strh.w	r3, [r2, #64]	@ 0x40
    hpcd->Instance->CNTR &= (uint16_t) ~(USB_CNTR_FSUSP);
 8005ed0:	f8b2 3040 	ldrh.w	r3, [r2, #64]	@ 0x40
 8005ed4:	f023 0308 	bic.w	r3, r3, #8
 8005ed8:	041b      	lsls	r3, r3, #16
 8005eda:	0c1b      	lsrs	r3, r3, #16
 8005edc:	f8a2 3040 	strh.w	r3, [r2, #64]	@ 0x40
    HAL_PCD_ResumeCallback(hpcd);
 8005ee0:	f002 feac 	bl	8008c3c <HAL_PCD_ResumeCallback>
    __HAL_PCD_CLEAR_FLAG(hpcd, USB_ISTR_WKUP);
 8005ee4:	6822      	ldr	r2, [r4, #0]
 8005ee6:	f8b2 3044 	ldrh.w	r3, [r2, #68]	@ 0x44
 8005eea:	f423 5380 	bic.w	r3, r3, #4096	@ 0x1000
 8005eee:	e7d5      	b.n	8005e9c <HAL_PCD_IRQHandler+0x898>
  if ((wIstr & USB_ISTR_SUSP) == USB_ISTR_SUSP)
 8005ef0:	0505      	lsls	r5, r0, #20
 8005ef2:	d548      	bpl.n	8005f86 <HAL_PCD_IRQHandler+0x982>
      store_ep[i] = PCD_GET_ENDPOINT(hpcd->Instance, i);
 8005ef4:	6823      	ldr	r3, [r4, #0]
 8005ef6:	ad02      	add	r5, sp, #8
 8005ef8:	4618      	mov	r0, r3
 8005efa:	4629      	mov	r1, r5
 8005efc:	461a      	mov	r2, r3
 8005efe:	f103 0620 	add.w	r6, r3, #32
 8005f02:	f832 7b04 	ldrh.w	r7, [r2], #4
    for (i = 0U; i < 8U; i++)
 8005f06:	4296      	cmp	r6, r2
      store_ep[i] = PCD_GET_ENDPOINT(hpcd->Instance, i);
 8005f08:	f821 7b02 	strh.w	r7, [r1], #2
    for (i = 0U; i < 8U; i++)
 8005f0c:	d1f9      	bne.n	8005f02 <HAL_PCD_IRQHandler+0x8fe>
    hpcd->Instance->CNTR |= (uint16_t)(USB_CNTR_FRES);
 8005f0e:	f8b3 2040 	ldrh.w	r2, [r3, #64]	@ 0x40
 8005f12:	b292      	uxth	r2, r2
 8005f14:	f042 0201 	orr.w	r2, r2, #1
 8005f18:	f8a3 2040 	strh.w	r2, [r3, #64]	@ 0x40
    hpcd->Instance->CNTR &= (uint16_t)(~USB_CNTR_FRES);
 8005f1c:	f8b3 2040 	ldrh.w	r2, [r3, #64]	@ 0x40
 8005f20:	f022 0201 	bic.w	r2, r2, #1
 8005f24:	0412      	lsls	r2, r2, #16
 8005f26:	0c12      	lsrs	r2, r2, #16
 8005f28:	f8a3 2040 	strh.w	r2, [r3, #64]	@ 0x40
    while ((hpcd->Instance->ISTR & USB_ISTR_RESET) == 0U)
 8005f2c:	f8b3 2044 	ldrh.w	r2, [r3, #68]	@ 0x44
 8005f30:	0551      	lsls	r1, r2, #21
 8005f32:	d5fb      	bpl.n	8005f2c <HAL_PCD_IRQHandler+0x928>
    __HAL_PCD_CLEAR_FLAG(hpcd, USB_ISTR_RESET);
 8005f34:	f8b3 2044 	ldrh.w	r2, [r3, #68]	@ 0x44
 8005f38:	f422 6280 	bic.w	r2, r2, #1024	@ 0x400
 8005f3c:	0412      	lsls	r2, r2, #16
 8005f3e:	0c12      	lsrs	r2, r2, #16
 8005f40:	f8a3 2044 	strh.w	r2, [r3, #68]	@ 0x44
      PCD_SET_ENDPOINT(hpcd->Instance, i, store_ep[i]);
 8005f44:	f835 2b02 	ldrh.w	r2, [r5], #2
 8005f48:	f820 2b04 	strh.w	r2, [r0], #4
    for (i = 0U; i < 8U; i++)
 8005f4c:	4286      	cmp	r6, r0
 8005f4e:	d1f9      	bne.n	8005f44 <HAL_PCD_IRQHandler+0x940>
    hpcd->Instance->CNTR |= (uint16_t)USB_CNTR_FSUSP;
 8005f50:	f8b3 2040 	ldrh.w	r2, [r3, #64]	@ 0x40
    HAL_PCD_SuspendCallback(hpcd);
 8005f54:	4620      	mov	r0, r4
    hpcd->Instance->CNTR |= (uint16_t)USB_CNTR_FSUSP;
 8005f56:	b292      	uxth	r2, r2
 8005f58:	f042 0208 	orr.w	r2, r2, #8
 8005f5c:	f8a3 2040 	strh.w	r2, [r3, #64]	@ 0x40
    __HAL_PCD_CLEAR_FLAG(hpcd, USB_ISTR_SUSP);
 8005f60:	f8b3 2044 	ldrh.w	r2, [r3, #68]	@ 0x44
 8005f64:	f422 6200 	bic.w	r2, r2, #2048	@ 0x800
 8005f68:	0412      	lsls	r2, r2, #16
 8005f6a:	0c12      	lsrs	r2, r2, #16
 8005f6c:	f8a3 2044 	strh.w	r2, [r3, #68]	@ 0x44
    hpcd->Instance->CNTR |= (uint16_t)USB_CNTR_LP_MODE;
 8005f70:	f8b3 2040 	ldrh.w	r2, [r3, #64]	@ 0x40
 8005f74:	b292      	uxth	r2, r2
 8005f76:	f042 0204 	orr.w	r2, r2, #4
 8005f7a:	f8a3 2040 	strh.w	r2, [r3, #64]	@ 0x40
    HAL_PCD_SuspendCallback(hpcd);
 8005f7e:	f002 fe4d 	bl	8008c1c <HAL_PCD_SuspendCallback>
    return;
 8005f82:	f7ff bb52 	b.w	800562a <HAL_PCD_IRQHandler+0x26>
  if ((wIstr & USB_ISTR_SOF) == USB_ISTR_SOF)
 8005f86:	0582      	lsls	r2, r0, #22
 8005f88:	d50d      	bpl.n	8005fa6 <HAL_PCD_IRQHandler+0x9a2>
    __HAL_PCD_CLEAR_FLAG(hpcd, USB_ISTR_SOF);
 8005f8a:	6822      	ldr	r2, [r4, #0]
    HAL_PCD_SOFCallback(hpcd);
 8005f8c:	4620      	mov	r0, r4
    __HAL_PCD_CLEAR_FLAG(hpcd, USB_ISTR_SOF);
 8005f8e:	f8b2 3044 	ldrh.w	r3, [r2, #68]	@ 0x44
 8005f92:	f423 7300 	bic.w	r3, r3, #512	@ 0x200
 8005f96:	041b      	lsls	r3, r3, #16
 8005f98:	0c1b      	lsrs	r3, r3, #16
 8005f9a:	f8a2 3044 	strh.w	r3, [r2, #68]	@ 0x44
    HAL_PCD_SOFCallback(hpcd);
 8005f9e:	f002 fe26 	bl	8008bee <HAL_PCD_SOFCallback>
    return;
 8005fa2:	f7ff bb42 	b.w	800562a <HAL_PCD_IRQHandler+0x26>
  if ((wIstr & USB_ISTR_ESOF) == USB_ISTR_ESOF)
 8005fa6:	05c3      	lsls	r3, r0, #23
 8005fa8:	f57f ab3f 	bpl.w	800562a <HAL_PCD_IRQHandler+0x26>
    __HAL_PCD_CLEAR_FLAG(hpcd, USB_ISTR_ESOF);
 8005fac:	6822      	ldr	r2, [r4, #0]
 8005fae:	f8b2 3044 	ldrh.w	r3, [r2, #68]	@ 0x44
 8005fb2:	f423 7380 	bic.w	r3, r3, #256	@ 0x100
 8005fb6:	e771      	b.n	8005e9c <HAL_PCD_IRQHandler+0x898>

08005fb8 <HAL_PCD_EP_Open>:
{
 8005fb8:	b570      	push	{r4, r5, r6, lr}
 8005fba:	2428      	movs	r4, #40	@ 0x28
 8005fbc:	4605      	mov	r5, r0
 8005fbe:	f001 0007 	and.w	r0, r1, #7
 8005fc2:	4344      	muls	r4, r0
  if ((ep_addr & 0x80U) == 0x80U)
 8005fc4:	f011 0f80 	tst.w	r1, #128	@ 0x80
    ep = &hpcd->IN_ep[ep_addr & EP_ADDR_MSK];
 8005fc8:	bf14      	ite	ne
 8005fca:	f104 0110 	addne.w	r1, r4, #16
    ep = &hpcd->OUT_ep[ep_addr & EP_ADDR_MSK];
 8005fce:	f504 71a8 	addeq.w	r1, r4, #336	@ 0x150
 8005fd2:	eb05 0604 	add.w	r6, r5, r4
    ep->is_in = 1U;
 8005fd6:	bf15      	itete	ne
 8005fd8:	2401      	movne	r4, #1
    ep->is_in = 0U;
 8005fda:	2400      	moveq	r4, #0
    ep->is_in = 1U;
 8005fdc:	7474      	strbne	r4, [r6, #17]
    ep->is_in = 0U;
 8005fde:	f886 4151 	strbeq.w	r4, [r6, #337]	@ 0x151
    ep = &hpcd->IN_ep[ep_addr & EP_ADDR_MSK];
 8005fe2:	bf14      	ite	ne
 8005fe4:	1949      	addne	r1, r1, r5
    ep = &hpcd->OUT_ep[ep_addr & EP_ADDR_MSK];
 8005fe6:	1949      	addeq	r1, r1, r5
  if (ep_type == EP_TYPE_BULK)
 8005fe8:	2b02      	cmp	r3, #2
  ep->type = ep_type;
 8005fea:	70cb      	strb	r3, [r1, #3]
    ep->data_pid_start = 0U;
 8005fec:	bf08      	it	eq
 8005fee:	2300      	moveq	r3, #0
  ep->num = ep_addr & EP_ADDR_MSK;
 8005ff0:	7008      	strb	r0, [r1, #0]
    ep->data_pid_start = 0U;
 8005ff2:	bf08      	it	eq
 8005ff4:	710b      	strbeq	r3, [r1, #4]
  ep->maxpacket = ep_mps;
 8005ff6:	610a      	str	r2, [r1, #16]
  __HAL_LOCK(hpcd);
 8005ff8:	f895 3290 	ldrb.w	r3, [r5, #656]	@ 0x290
 8005ffc:	2b01      	cmp	r3, #1
 8005ffe:	d009      	beq.n	8006014 <HAL_PCD_EP_Open+0x5c>
 8006000:	2301      	movs	r3, #1
  (void)USB_ActivateEndpoint(hpcd->Instance, ep);
 8006002:	6828      	ldr	r0, [r5, #0]
  __HAL_LOCK(hpcd);
 8006004:	f885 3290 	strb.w	r3, [r5, #656]	@ 0x290
  (void)USB_ActivateEndpoint(hpcd->Instance, ep);
 8006008:	f001 fa92 	bl	8007530 <USB_ActivateEndpoint>
  __HAL_UNLOCK(hpcd);
 800600c:	2000      	movs	r0, #0
 800600e:	f885 0290 	strb.w	r0, [r5, #656]	@ 0x290
}
 8006012:	bd70      	pop	{r4, r5, r6, pc}
  __HAL_LOCK(hpcd);
 8006014:	2002      	movs	r0, #2
 8006016:	e7fc      	b.n	8006012 <HAL_PCD_EP_Open+0x5a>

08006018 <HAL_PCD_EP_Close>:
  if ((ep_addr & 0x80U) == 0x80U)
 8006018:	2328      	movs	r3, #40	@ 0x28
 800601a:	f001 0207 	and.w	r2, r1, #7
 800601e:	4353      	muls	r3, r2
 8006020:	f011 0f80 	tst.w	r1, #128	@ 0x80
{
 8006024:	b510      	push	{r4, lr}
 8006026:	4604      	mov	r4, r0
    ep = &hpcd->IN_ep[ep_addr & EP_ADDR_MSK];
 8006028:	bf18      	it	ne
 800602a:	f103 0110 	addne.w	r1, r3, #16
 800602e:	4418      	add	r0, r3
    ep = &hpcd->OUT_ep[ep_addr & EP_ADDR_MSK];
 8006030:	bf0b      	itete	eq
 8006032:	f503 71a8 	addeq.w	r1, r3, #336	@ 0x150
    ep->is_in = 1U;
 8006036:	2301      	movne	r3, #1
    ep->is_in = 0U;
 8006038:	2300      	moveq	r3, #0
    ep = &hpcd->IN_ep[ep_addr & EP_ADDR_MSK];
 800603a:	1909      	addne	r1, r1, r4
    ep = &hpcd->OUT_ep[ep_addr & EP_ADDR_MSK];
 800603c:	bf0a      	itet	eq
 800603e:	1909      	addeq	r1, r1, r4
    ep->is_in = 1U;
 8006040:	7443      	strbne	r3, [r0, #17]
    ep->is_in = 0U;
 8006042:	f880 3151 	strbeq.w	r3, [r0, #337]	@ 0x151
  ep->num = ep_addr & EP_ADDR_MSK;
 8006046:	700a      	strb	r2, [r1, #0]
  __HAL_LOCK(hpcd);
 8006048:	f894 3290 	ldrb.w	r3, [r4, #656]	@ 0x290
 800604c:	2b01      	cmp	r3, #1
 800604e:	d009      	beq.n	8006064 <HAL_PCD_EP_Close+0x4c>
 8006050:	2301      	movs	r3, #1
  (void)USB_DeactivateEndpoint(hpcd->Instance, ep);
 8006052:	6820      	ldr	r0, [r4, #0]
  __HAL_LOCK(hpcd);
 8006054:	f884 3290 	strb.w	r3, [r4, #656]	@ 0x290
  (void)USB_DeactivateEndpoint(hpcd->Instance, ep);
 8006058:	f001 fbca 	bl	80077f0 <USB_DeactivateEndpoint>
  __HAL_UNLOCK(hpcd);
 800605c:	2000      	movs	r0, #0
 800605e:	f884 0290 	strb.w	r0, [r4, #656]	@ 0x290
}
 8006062:	bd10      	pop	{r4, pc}
  __HAL_LOCK(hpcd);
 8006064:	2002      	movs	r0, #2
 8006066:	e7fc      	b.n	8006062 <HAL_PCD_EP_Close+0x4a>

08006068 <HAL_PCD_EP_Receive>:
{
 8006068:	b570      	push	{r4, r5, r6, lr}
  ep->xfer_buff = pBuf;
 800606a:	2428      	movs	r4, #40	@ 0x28
  ep->xfer_count = 0U;
 800606c:	2600      	movs	r6, #0
 800606e:	f001 0107 	and.w	r1, r1, #7
  ep->xfer_buff = pBuf;
 8006072:	434c      	muls	r4, r1
 8006074:	1905      	adds	r5, r0, r4
  ep->num = ep_addr & EP_ADDR_MSK;
 8006076:	f885 1150 	strb.w	r1, [r5, #336]	@ 0x150
  ep->is_in = 0U;
 800607a:	f885 6151 	strb.w	r6, [r5, #337]	@ 0x151
  ep = &hpcd->OUT_ep[ep_addr & EP_ADDR_MSK];
 800607e:	f504 71a8 	add.w	r1, r4, #336	@ 0x150
  (void)USB_EPStartXfer(hpcd->Instance, ep);
 8006082:	4401      	add	r1, r0
  ep->xfer_len = len;
 8006084:	e9c5 2359 	strd	r2, r3, [r5, #356]	@ 0x164
  ep->xfer_count = 0U;
 8006088:	f8c5 616c 	str.w	r6, [r5, #364]	@ 0x16c
  (void)USB_EPStartXfer(hpcd->Instance, ep);
 800608c:	6800      	ldr	r0, [r0, #0]
 800608e:	f001 fd0b 	bl	8007aa8 <USB_EPStartXfer>
}
 8006092:	4630      	mov	r0, r6
 8006094:	bd70      	pop	{r4, r5, r6, pc}

08006096 <HAL_PCD_EP_GetRxCount>:
  return hpcd->OUT_ep[ep_addr & EP_ADDR_MSK].xfer_count;
 8006096:	2328      	movs	r3, #40	@ 0x28
 8006098:	f001 0107 	and.w	r1, r1, #7
 800609c:	fb03 0001 	mla	r0, r3, r1, r0
}
 80060a0:	f8d0 016c 	ldr.w	r0, [r0, #364]	@ 0x16c
 80060a4:	4770      	bx	lr

080060a6 <HAL_PCD_EP_Transmit>:
{
 80060a6:	b570      	push	{r4, r5, r6, lr}
 80060a8:	2528      	movs	r5, #40	@ 0x28
 80060aa:	f001 0107 	and.w	r1, r1, #7
 80060ae:	434d      	muls	r5, r1
  ep->xfer_buff = pBuf;
 80060b0:	1944      	adds	r4, r0, r5
  ep->xfer_len = len;
 80060b2:	e9c4 2309 	strd	r2, r3, [r4, #36]	@ 0x24
  ep->xfer_fill_db = 1U;
 80060b6:	2201      	movs	r2, #1
  ep->xfer_count = 0U;
 80060b8:	2600      	movs	r6, #0
  ep->num = ep_addr & EP_ADDR_MSK;
 80060ba:	7421      	strb	r1, [r4, #16]
  ep->xfer_fill_db = 1U;
 80060bc:	f884 2034 	strb.w	r2, [r4, #52]	@ 0x34
  ep->is_in = 1U;
 80060c0:	7462      	strb	r2, [r4, #17]
  ep = &hpcd->IN_ep[ep_addr & EP_ADDR_MSK];
 80060c2:	f105 0110 	add.w	r1, r5, #16
  (void)USB_EPStartXfer(hpcd->Instance, ep);
 80060c6:	4401      	add	r1, r0
  ep->xfer_len_db = len;
 80060c8:	6323      	str	r3, [r4, #48]	@ 0x30
  ep->xfer_count = 0U;
 80060ca:	62e6      	str	r6, [r4, #44]	@ 0x2c
  (void)USB_EPStartXfer(hpcd->Instance, ep);
 80060cc:	6800      	ldr	r0, [r0, #0]
 80060ce:	f001 fceb 	bl	8007aa8 <USB_EPStartXfer>
}
 80060d2:	4630      	mov	r0, r6
 80060d4:	bd70      	pop	{r4, r5, r6, pc}

080060d6 <HAL_PCD_EP_SetStall>:
{
 80060d6:	b538      	push	{r3, r4, r5, lr}
  if (((uint32_t)ep_addr & EP_ADDR_MSK) > hpcd->Init.dev_endpoints)
 80060d8:	7903      	ldrb	r3, [r0, #4]
 80060da:	f001 0507 	and.w	r5, r1, #7
 80060de:	42ab      	cmp	r3, r5
{
 80060e0:	4604      	mov	r4, r0
  if (((uint32_t)ep_addr & EP_ADDR_MSK) > hpcd->Init.dev_endpoints)
 80060e2:	d32a      	bcc.n	800613a <HAL_PCD_EP_SetStall+0x64>
  if ((0x80U & ep_addr) == 0x80U)
 80060e4:	f011 0f80 	tst.w	r1, #128	@ 0x80
 80060e8:	f04f 0328 	mov.w	r3, #40	@ 0x28
 80060ec:	d01c      	beq.n	8006128 <HAL_PCD_EP_SetStall+0x52>
    ep->is_in = 1U;
 80060ee:	2201      	movs	r2, #1
    ep = &hpcd->IN_ep[ep_addr & EP_ADDR_MSK];
 80060f0:	436b      	muls	r3, r5
 80060f2:	f103 0110 	add.w	r1, r3, #16
    ep->is_in = 1U;
 80060f6:	4403      	add	r3, r0
    ep = &hpcd->IN_ep[ep_addr & EP_ADDR_MSK];
 80060f8:	4401      	add	r1, r0
    ep->is_in = 1U;
 80060fa:	745a      	strb	r2, [r3, #17]
  ep->is_stall = 1U;
 80060fc:	2301      	movs	r3, #1
  ep->num = ep_addr & EP_ADDR_MSK;
 80060fe:	700d      	strb	r5, [r1, #0]
  ep->is_stall = 1U;
 8006100:	708b      	strb	r3, [r1, #2]
  __HAL_LOCK(hpcd);
 8006102:	f894 2290 	ldrb.w	r2, [r4, #656]	@ 0x290
 8006106:	429a      	cmp	r2, r3
 8006108:	d019      	beq.n	800613e <HAL_PCD_EP_SetStall+0x68>
  (void)USB_EPSetStall(hpcd->Instance, ep);
 800610a:	6820      	ldr	r0, [r4, #0]
  __HAL_LOCK(hpcd);
 800610c:	f884 3290 	strb.w	r3, [r4, #656]	@ 0x290
  (void)USB_EPSetStall(hpcd->Instance, ep);
 8006110:	f001 fc41 	bl	8007996 <USB_EPSetStall>
  if ((ep_addr & EP_ADDR_MSK) == 0U)
 8006114:	b925      	cbnz	r5, 8006120 <HAL_PCD_EP_SetStall+0x4a>
    (void)USB_EP0_OutStart(hpcd->Instance, (uint8_t *)hpcd->Setup);
 8006116:	6820      	ldr	r0, [r4, #0]
 8006118:	f504 7126 	add.w	r1, r4, #664	@ 0x298
 800611c:	f001 fcb2 	bl	8007a84 <USB_EP0_OutStart>
  __HAL_UNLOCK(hpcd);
 8006120:	2000      	movs	r0, #0
 8006122:	f884 0290 	strb.w	r0, [r4, #656]	@ 0x290
}
 8006126:	bd38      	pop	{r3, r4, r5, pc}
    ep->is_in = 0U;
 8006128:	2200      	movs	r2, #0
    ep = &hpcd->OUT_ep[ep_addr];
 800612a:	434b      	muls	r3, r1
 800612c:	f503 71a8 	add.w	r1, r3, #336	@ 0x150
    ep->is_in = 0U;
 8006130:	4403      	add	r3, r0
    ep = &hpcd->OUT_ep[ep_addr];
 8006132:	4401      	add	r1, r0
    ep->is_in = 0U;
 8006134:	f883 2151 	strb.w	r2, [r3, #337]	@ 0x151
 8006138:	e7e0      	b.n	80060fc <HAL_PCD_EP_SetStall+0x26>
    return HAL_ERROR;
 800613a:	2001      	movs	r0, #1
 800613c:	e7f3      	b.n	8006126 <HAL_PCD_EP_SetStall+0x50>
  __HAL_LOCK(hpcd);
 800613e:	2002      	movs	r0, #2
 8006140:	e7f1      	b.n	8006126 <HAL_PCD_EP_SetStall+0x50>

08006142 <HAL_PCD_EP_ClrStall>:
{
 8006142:	b538      	push	{r3, r4, r5, lr}
  if (((uint32_t)ep_addr & 0x0FU) > hpcd->Init.dev_endpoints)
 8006144:	7902      	ldrb	r2, [r0, #4]
 8006146:	f001 030f 	and.w	r3, r1, #15
 800614a:	429a      	cmp	r2, r3
{
 800614c:	4604      	mov	r4, r0
  if (((uint32_t)ep_addr & 0x0FU) > hpcd->Init.dev_endpoints)
 800614e:	d326      	bcc.n	800619e <HAL_PCD_EP_ClrStall+0x5c>
  if ((0x80U & ep_addr) == 0x80U)
 8006150:	2328      	movs	r3, #40	@ 0x28
 8006152:	f001 0207 	and.w	r2, r1, #7
 8006156:	4353      	muls	r3, r2
 8006158:	f011 0f80 	tst.w	r1, #128	@ 0x80
    ep = &hpcd->IN_ep[ep_addr & EP_ADDR_MSK];
 800615c:	bf14      	ite	ne
 800615e:	f103 0110 	addne.w	r1, r3, #16
    ep = &hpcd->OUT_ep[ep_addr & EP_ADDR_MSK];
 8006162:	f503 71a8 	addeq.w	r1, r3, #336	@ 0x150
 8006166:	4418      	add	r0, r3
  ep->is_stall = 0U;
 8006168:	f04f 0500 	mov.w	r5, #0
    ep->is_in = 1U;
 800616c:	bf15      	itete	ne
 800616e:	2301      	movne	r3, #1
    ep->is_in = 0U;
 8006170:	2300      	moveq	r3, #0
    ep = &hpcd->IN_ep[ep_addr & EP_ADDR_MSK];
 8006172:	1909      	addne	r1, r1, r4
    ep = &hpcd->OUT_ep[ep_addr & EP_ADDR_MSK];
 8006174:	1909      	addeq	r1, r1, r4
    ep->is_in = 1U;
 8006176:	bf14      	ite	ne
 8006178:	7443      	strbne	r3, [r0, #17]
    ep->is_in = 0U;
 800617a:	f880 3151 	strbeq.w	r3, [r0, #337]	@ 0x151
  ep->is_stall = 0U;
 800617e:	708d      	strb	r5, [r1, #2]
  ep->num = ep_addr & EP_ADDR_MSK;
 8006180:	700a      	strb	r2, [r1, #0]
  __HAL_LOCK(hpcd);
 8006182:	f894 3290 	ldrb.w	r3, [r4, #656]	@ 0x290
 8006186:	2b01      	cmp	r3, #1
 8006188:	d00b      	beq.n	80061a2 <HAL_PCD_EP_ClrStall+0x60>
 800618a:	2301      	movs	r3, #1
  (void)USB_EPClearStall(hpcd->Instance, ep);
 800618c:	6820      	ldr	r0, [r4, #0]
  __HAL_LOCK(hpcd);
 800618e:	f884 3290 	strb.w	r3, [r4, #656]	@ 0x290
  (void)USB_EPClearStall(hpcd->Instance, ep);
 8006192:	f001 fc20 	bl	80079d6 <USB_EPClearStall>
  return HAL_OK;
 8006196:	4628      	mov	r0, r5
  __HAL_UNLOCK(hpcd);
 8006198:	f884 5290 	strb.w	r5, [r4, #656]	@ 0x290
}
 800619c:	bd38      	pop	{r3, r4, r5, pc}
    return HAL_ERROR;
 800619e:	2001      	movs	r0, #1
 80061a0:	e7fc      	b.n	800619c <HAL_PCD_EP_ClrStall+0x5a>
  __HAL_LOCK(hpcd);
 80061a2:	2002      	movs	r0, #2
 80061a4:	e7fa      	b.n	800619c <HAL_PCD_EP_ClrStall+0x5a>

080061a6 <HAL_PCDEx_PMAConfig>:
  * @retval HAL status
  */

HAL_StatusTypeDef  HAL_PCDEx_PMAConfig(PCD_HandleTypeDef *hpcd, uint16_t ep_addr,
                                       uint16_t ep_kind, uint32_t pmaadress)
{
 80061a6:	b510      	push	{r4, lr}
 80061a8:	2428      	movs	r4, #40	@ 0x28
  PCD_EPTypeDef *ep;

  /* initialize ep structure*/
  if ((0x80U & ep_addr) == 0x80U)
 80061aa:	f011 0f80 	tst.w	r1, #128	@ 0x80
  {
    ep = &hpcd->IN_ep[ep_addr & EP_ADDR_MSK];
 80061ae:	bf1b      	ittet	ne
 80061b0:	f001 0107 	andne.w	r1, r1, #7
 80061b4:	fb04 0001 	mlane	r0, r4, r1, r0
  }
  else
  {
    ep = &hpcd->OUT_ep[ep_addr];
 80061b8:	fb04 0001 	mlaeq	r0, r4, r1, r0
    ep = &hpcd->IN_ep[ep_addr & EP_ADDR_MSK];
 80061bc:	3010      	addne	r0, #16
    ep = &hpcd->OUT_ep[ep_addr];
 80061be:	bf08      	it	eq
 80061c0:	f500 70a8 	addeq.w	r0, r0, #336	@ 0x150
  if (ep_kind == PCD_SNG_BUF)
  {
    /* Single Buffer */
    ep->doublebuffer = 0U;
    /* Configure the PMA */
    ep->pmaadress = (uint16_t)pmaadress;
 80061c4:	b299      	uxth	r1, r3
  if (ep_kind == PCD_SNG_BUF)
 80061c6:	b91a      	cbnz	r2, 80061d0 <HAL_PCDEx_PMAConfig+0x2a>
    ep->doublebuffer = 0U;
 80061c8:	7302      	strb	r2, [r0, #12]
    ep->pmaadress = (uint16_t)pmaadress;
 80061ca:	80c1      	strh	r1, [r0, #6]
    ep->pmaaddr1 = (uint16_t)((pmaadress & 0xFFFF0000U) >> 16);
  }
#endif /* (USE_USB_DOUBLE_BUFFER == 1U) */

  return HAL_OK;
}
 80061cc:	2000      	movs	r0, #0
 80061ce:	bd10      	pop	{r4, pc}
    ep->doublebuffer = 1U;
 80061d0:	2201      	movs	r2, #1
    ep->pmaaddr0 = (uint16_t)(pmaadress & 0xFFFFU);
 80061d2:	6083      	str	r3, [r0, #8]
    ep->doublebuffer = 1U;
 80061d4:	7302      	strb	r2, [r0, #12]
    ep->pmaaddr1 = (uint16_t)((pmaadress & 0xFFFF0000U) >> 16);
 80061d6:	e7f9      	b.n	80061cc <HAL_PCDEx_PMAConfig+0x26>

080061d8 <HAL_RCC_OscConfig>:
  *         supported by this macro. User should request a transition to HSE Off
  *         first and then HSE On or HSE Bypass.
  * @retval HAL status
  */
HAL_StatusTypeDef HAL_RCC_OscConfig(RCC_OscInitTypeDef  *RCC_OscInitStruct)
{
 80061d8:	e92d 41f3 	stmdb	sp!, {r0, r1, r4, r5, r6, r7, r8, lr}
  uint32_t tickstart;
  uint32_t pll_config;

  /* Check Null pointer */
  if (RCC_OscInitStruct == NULL)
 80061dc:	4605      	mov	r5, r0
 80061de:	b338      	cbz	r0, 8006230 <HAL_RCC_OscConfig+0x58>

  /* Check the parameters */
  assert_param(IS_RCC_OSCILLATORTYPE(RCC_OscInitStruct->OscillatorType));

  /*------------------------------- HSE Configuration ------------------------*/
  if (((RCC_OscInitStruct->OscillatorType) & RCC_OSCILLATORTYPE_HSE) == RCC_OSCILLATORTYPE_HSE)
 80061e0:	6803      	ldr	r3, [r0, #0]
 80061e2:	07db      	lsls	r3, r3, #31
 80061e4:	d410      	bmi.n	8006208 <HAL_RCC_OscConfig+0x30>
        }
      }
    }
  }
  /*----------------------------- HSI Configuration --------------------------*/
  if (((RCC_OscInitStruct->OscillatorType) & RCC_OSCILLATORTYPE_HSI) == RCC_OSCILLATORTYPE_HSI)
 80061e6:	682b      	ldr	r3, [r5, #0]
 80061e8:	079f      	lsls	r7, r3, #30
 80061ea:	d45e      	bmi.n	80062aa <HAL_RCC_OscConfig+0xd2>
        }
      }
    }
  }
  /*------------------------------ LSI Configuration -------------------------*/
  if (((RCC_OscInitStruct->OscillatorType) & RCC_OSCILLATORTYPE_LSI) == RCC_OSCILLATORTYPE_LSI)
 80061ec:	682b      	ldr	r3, [r5, #0]
 80061ee:	0719      	lsls	r1, r3, #28
 80061f0:	f100 8095 	bmi.w	800631e <HAL_RCC_OscConfig+0x146>
        }
      }
    }
  }
  /*------------------------------ LSE Configuration -------------------------*/
  if (((RCC_OscInitStruct->OscillatorType) & RCC_OSCILLATORTYPE_LSE) == RCC_OSCILLATORTYPE_LSE)
 80061f4:	682b      	ldr	r3, [r5, #0]
 80061f6:	075a      	lsls	r2, r3, #29
 80061f8:	f100 80c1 	bmi.w	800637e <HAL_RCC_OscConfig+0x1a6>

#endif /* RCC_CR_PLL2ON */
  /*-------------------------------- PLL Configuration -----------------------*/
  /* Check the parameters */
  assert_param(IS_RCC_PLL(RCC_OscInitStruct->PLL.PLLState));
  if ((RCC_OscInitStruct->PLL.PLLState) != RCC_PLL_NONE)
 80061fc:	69eb      	ldr	r3, [r5, #28]
 80061fe:	2b00      	cmp	r3, #0
 8006200:	f040 812c 	bne.w	800645c <HAL_RCC_OscConfig+0x284>
        }
      }
    }
  }

  return HAL_OK;
 8006204:	2000      	movs	r0, #0
 8006206:	e029      	b.n	800625c <HAL_RCC_OscConfig+0x84>
    if ((__HAL_RCC_GET_SYSCLK_SOURCE() == RCC_SYSCLKSOURCE_STATUS_HSE)
 8006208:	4c90      	ldr	r4, [pc, #576]	@ (800644c <HAL_RCC_OscConfig+0x274>)
 800620a:	6863      	ldr	r3, [r4, #4]
 800620c:	f003 030c 	and.w	r3, r3, #12
 8006210:	2b04      	cmp	r3, #4
 8006212:	d007      	beq.n	8006224 <HAL_RCC_OscConfig+0x4c>
        || ((__HAL_RCC_GET_SYSCLK_SOURCE() == RCC_SYSCLKSOURCE_STATUS_PLLCLK) && (__HAL_RCC_GET_PLL_OSCSOURCE() == RCC_PLLSOURCE_HSE)))
 8006214:	6863      	ldr	r3, [r4, #4]
 8006216:	f003 030c 	and.w	r3, r3, #12
 800621a:	2b08      	cmp	r3, #8
 800621c:	d10a      	bne.n	8006234 <HAL_RCC_OscConfig+0x5c>
 800621e:	6863      	ldr	r3, [r4, #4]
 8006220:	03de      	lsls	r6, r3, #15
 8006222:	d507      	bpl.n	8006234 <HAL_RCC_OscConfig+0x5c>
      if ((__HAL_RCC_GET_FLAG(RCC_FLAG_HSERDY) != RESET) && (RCC_OscInitStruct->HSEState == RCC_HSE_OFF))
 8006224:	6823      	ldr	r3, [r4, #0]
 8006226:	039c      	lsls	r4, r3, #14
 8006228:	d5dd      	bpl.n	80061e6 <HAL_RCC_OscConfig+0xe>
 800622a:	686b      	ldr	r3, [r5, #4]
 800622c:	2b00      	cmp	r3, #0
 800622e:	d1da      	bne.n	80061e6 <HAL_RCC_OscConfig+0xe>
    return HAL_ERROR;
 8006230:	2001      	movs	r0, #1
 8006232:	e013      	b.n	800625c <HAL_RCC_OscConfig+0x84>
      __HAL_RCC_HSE_CONFIG(RCC_OscInitStruct->HSEState);
 8006234:	686b      	ldr	r3, [r5, #4]
 8006236:	f5b3 3f80 	cmp.w	r3, #65536	@ 0x10000
 800623a:	d112      	bne.n	8006262 <HAL_RCC_OscConfig+0x8a>
 800623c:	6823      	ldr	r3, [r4, #0]
 800623e:	f443 3380 	orr.w	r3, r3, #65536	@ 0x10000
 8006242:	6023      	str	r3, [r4, #0]
        tickstart = HAL_GetTick();
 8006244:	f7fd f822 	bl	800328c <HAL_GetTick>
 8006248:	4606      	mov	r6, r0
        while (__HAL_RCC_GET_FLAG(RCC_FLAG_HSERDY) == RESET)
 800624a:	6823      	ldr	r3, [r4, #0]
 800624c:	0398      	lsls	r0, r3, #14
 800624e:	d4ca      	bmi.n	80061e6 <HAL_RCC_OscConfig+0xe>
          if ((HAL_GetTick() - tickstart) > HSE_TIMEOUT_VALUE)
 8006250:	f7fd f81c 	bl	800328c <HAL_GetTick>
 8006254:	1b80      	subs	r0, r0, r6
 8006256:	2864      	cmp	r0, #100	@ 0x64
 8006258:	d9f7      	bls.n	800624a <HAL_RCC_OscConfig+0x72>
            return HAL_TIMEOUT;
 800625a:	2003      	movs	r0, #3
}
 800625c:	b002      	add	sp, #8
 800625e:	e8bd 81f0 	ldmia.w	sp!, {r4, r5, r6, r7, r8, pc}
      __HAL_RCC_HSE_CONFIG(RCC_OscInitStruct->HSEState);
 8006262:	b99b      	cbnz	r3, 800628c <HAL_RCC_OscConfig+0xb4>
 8006264:	6823      	ldr	r3, [r4, #0]
 8006266:	f423 3380 	bic.w	r3, r3, #65536	@ 0x10000
 800626a:	6023      	str	r3, [r4, #0]
 800626c:	6823      	ldr	r3, [r4, #0]
 800626e:	f423 2380 	bic.w	r3, r3, #262144	@ 0x40000
 8006272:	6023      	str	r3, [r4, #0]
        tickstart = HAL_GetTick();
 8006274:	f7fd f80a 	bl	800328c <HAL_GetTick>
 8006278:	4606      	mov	r6, r0
        while (__HAL_RCC_GET_FLAG(RCC_FLAG_HSERDY) != RESET)
 800627a:	6823      	ldr	r3, [r4, #0]
 800627c:	0399      	lsls	r1, r3, #14
 800627e:	d5b2      	bpl.n	80061e6 <HAL_RCC_OscConfig+0xe>
          if ((HAL_GetTick() - tickstart) > HSE_TIMEOUT_VALUE)
 8006280:	f7fd f804 	bl	800328c <HAL_GetTick>
 8006284:	1b80      	subs	r0, r0, r6
 8006286:	2864      	cmp	r0, #100	@ 0x64
 8006288:	d9f7      	bls.n	800627a <HAL_RCC_OscConfig+0xa2>
 800628a:	e7e6      	b.n	800625a <HAL_RCC_OscConfig+0x82>
      __HAL_RCC_HSE_CONFIG(RCC_OscInitStruct->HSEState);
 800628c:	f5b3 2fa0 	cmp.w	r3, #327680	@ 0x50000
 8006290:	6823      	ldr	r3, [r4, #0]
 8006292:	d103      	bne.n	800629c <HAL_RCC_OscConfig+0xc4>
 8006294:	f443 2380 	orr.w	r3, r3, #262144	@ 0x40000
 8006298:	6023      	str	r3, [r4, #0]
 800629a:	e7cf      	b.n	800623c <HAL_RCC_OscConfig+0x64>
 800629c:	f423 3380 	bic.w	r3, r3, #65536	@ 0x10000
 80062a0:	6023      	str	r3, [r4, #0]
 80062a2:	6823      	ldr	r3, [r4, #0]
 80062a4:	f423 2380 	bic.w	r3, r3, #262144	@ 0x40000
 80062a8:	e7cb      	b.n	8006242 <HAL_RCC_OscConfig+0x6a>
    if ((__HAL_RCC_GET_SYSCLK_SOURCE() == RCC_SYSCLKSOURCE_STATUS_HSI)
 80062aa:	4c68      	ldr	r4, [pc, #416]	@ (800644c <HAL_RCC_OscConfig+0x274>)
 80062ac:	6863      	ldr	r3, [r4, #4]
 80062ae:	f013 0f0c 	tst.w	r3, #12
 80062b2:	d007      	beq.n	80062c4 <HAL_RCC_OscConfig+0xec>
        || ((__HAL_RCC_GET_SYSCLK_SOURCE() == RCC_SYSCLKSOURCE_STATUS_PLLCLK) && (__HAL_RCC_GET_PLL_OSCSOURCE() == RCC_PLLSOURCE_HSI_DIV2)))
 80062b4:	6863      	ldr	r3, [r4, #4]
 80062b6:	f003 030c 	and.w	r3, r3, #12
 80062ba:	2b08      	cmp	r3, #8
 80062bc:	d110      	bne.n	80062e0 <HAL_RCC_OscConfig+0x108>
 80062be:	6863      	ldr	r3, [r4, #4]
 80062c0:	03da      	lsls	r2, r3, #15
 80062c2:	d40d      	bmi.n	80062e0 <HAL_RCC_OscConfig+0x108>
      if ((__HAL_RCC_GET_FLAG(RCC_FLAG_HSIRDY) != RESET) && (RCC_OscInitStruct->HSIState != RCC_HSI_ON))
 80062c4:	6823      	ldr	r3, [r4, #0]
 80062c6:	079b      	lsls	r3, r3, #30
 80062c8:	d502      	bpl.n	80062d0 <HAL_RCC_OscConfig+0xf8>
 80062ca:	692b      	ldr	r3, [r5, #16]
 80062cc:	2b01      	cmp	r3, #1
 80062ce:	d1af      	bne.n	8006230 <HAL_RCC_OscConfig+0x58>
        __HAL_RCC_HSI_CALIBRATIONVALUE_ADJUST(RCC_OscInitStruct->HSICalibrationValue);
 80062d0:	6823      	ldr	r3, [r4, #0]
 80062d2:	696a      	ldr	r2, [r5, #20]
 80062d4:	f023 03f8 	bic.w	r3, r3, #248	@ 0xf8
 80062d8:	ea43 03c2 	orr.w	r3, r3, r2, lsl #3
 80062dc:	6023      	str	r3, [r4, #0]
 80062de:	e785      	b.n	80061ec <HAL_RCC_OscConfig+0x14>
      if (RCC_OscInitStruct->HSIState != RCC_HSI_OFF)
 80062e0:	692a      	ldr	r2, [r5, #16]
 80062e2:	4b5b      	ldr	r3, [pc, #364]	@ (8006450 <HAL_RCC_OscConfig+0x278>)
 80062e4:	b16a      	cbz	r2, 8006302 <HAL_RCC_OscConfig+0x12a>
        __HAL_RCC_HSI_ENABLE();
 80062e6:	2201      	movs	r2, #1
 80062e8:	601a      	str	r2, [r3, #0]
        tickstart = HAL_GetTick();
 80062ea:	f7fc ffcf 	bl	800328c <HAL_GetTick>
 80062ee:	4606      	mov	r6, r0
        while (__HAL_RCC_GET_FLAG(RCC_FLAG_HSIRDY) == RESET)
 80062f0:	6823      	ldr	r3, [r4, #0]
 80062f2:	079f      	lsls	r7, r3, #30
 80062f4:	d4ec      	bmi.n	80062d0 <HAL_RCC_OscConfig+0xf8>
          if ((HAL_GetTick() - tickstart) > HSI_TIMEOUT_VALUE)
 80062f6:	f7fc ffc9 	bl	800328c <HAL_GetTick>
 80062fa:	1b80      	subs	r0, r0, r6
 80062fc:	2802      	cmp	r0, #2
 80062fe:	d9f7      	bls.n	80062f0 <HAL_RCC_OscConfig+0x118>
 8006300:	e7ab      	b.n	800625a <HAL_RCC_OscConfig+0x82>
        __HAL_RCC_HSI_DISABLE();
 8006302:	601a      	str	r2, [r3, #0]
        tickstart = HAL_GetTick();
 8006304:	f7fc ffc2 	bl	800328c <HAL_GetTick>
 8006308:	4606      	mov	r6, r0
        while (__HAL_RCC_GET_FLAG(RCC_FLAG_HSIRDY) != RESET)
 800630a:	6823      	ldr	r3, [r4, #0]
 800630c:	0798      	lsls	r0, r3, #30
 800630e:	f57f af6d 	bpl.w	80061ec <HAL_RCC_OscConfig+0x14>
          if ((HAL_GetTick() - tickstart) > HSI_TIMEOUT_VALUE)
 8006312:	f7fc ffbb 	bl	800328c <HAL_GetTick>
 8006316:	1b80      	subs	r0, r0, r6
 8006318:	2802      	cmp	r0, #2
 800631a:	d9f6      	bls.n	800630a <HAL_RCC_OscConfig+0x132>
 800631c:	e79d      	b.n	800625a <HAL_RCC_OscConfig+0x82>
    if (RCC_OscInitStruct->LSIState != RCC_LSI_OFF)
 800631e:	69aa      	ldr	r2, [r5, #24]
 8006320:	4e4a      	ldr	r6, [pc, #296]	@ (800644c <HAL_RCC_OscConfig+0x274>)
 8006322:	4b4b      	ldr	r3, [pc, #300]	@ (8006450 <HAL_RCC_OscConfig+0x278>)
 8006324:	b1e2      	cbz	r2, 8006360 <HAL_RCC_OscConfig+0x188>
      __HAL_RCC_LSI_ENABLE();
 8006326:	2201      	movs	r2, #1
 8006328:	f8c3 2480 	str.w	r2, [r3, #1152]	@ 0x480
      tickstart = HAL_GetTick();
 800632c:	f7fc ffae 	bl	800328c <HAL_GetTick>
 8006330:	4604      	mov	r4, r0
      while (__HAL_RCC_GET_FLAG(RCC_FLAG_LSIRDY) == RESET)
 8006332:	6a73      	ldr	r3, [r6, #36]	@ 0x24
 8006334:	079b      	lsls	r3, r3, #30
 8006336:	d50d      	bpl.n	8006354 <HAL_RCC_OscConfig+0x17c>
  * @param  mdelay: specifies the delay time length, in milliseconds.
  * @retval None
  */
static void RCC_Delay(uint32_t mdelay)
{
  __IO uint32_t Delay = mdelay * (SystemCoreClock / 8U / 1000U);
 8006338:	f44f 52fa 	mov.w	r2, #8000	@ 0x1f40
 800633c:	4b45      	ldr	r3, [pc, #276]	@ (8006454 <HAL_RCC_OscConfig+0x27c>)
 800633e:	681b      	ldr	r3, [r3, #0]
 8006340:	fbb3 f3f2 	udiv	r3, r3, r2
 8006344:	9301      	str	r3, [sp, #4]
  do
  {
    __NOP();
 8006346:	bf00      	nop
  }
  while (Delay --);
 8006348:	9b01      	ldr	r3, [sp, #4]
 800634a:	1e5a      	subs	r2, r3, #1
 800634c:	9201      	str	r2, [sp, #4]
 800634e:	2b00      	cmp	r3, #0
 8006350:	d1f9      	bne.n	8006346 <HAL_RCC_OscConfig+0x16e>
 8006352:	e74f      	b.n	80061f4 <HAL_RCC_OscConfig+0x1c>
        if ((HAL_GetTick() - tickstart) > LSI_TIMEOUT_VALUE)
 8006354:	f7fc ff9a 	bl	800328c <HAL_GetTick>
 8006358:	1b00      	subs	r0, r0, r4
 800635a:	2802      	cmp	r0, #2
 800635c:	d9e9      	bls.n	8006332 <HAL_RCC_OscConfig+0x15a>
 800635e:	e77c      	b.n	800625a <HAL_RCC_OscConfig+0x82>
      __HAL_RCC_LSI_DISABLE();
 8006360:	f8c3 2480 	str.w	r2, [r3, #1152]	@ 0x480
      tickstart = HAL_GetTick();
 8006364:	f7fc ff92 	bl	800328c <HAL_GetTick>
 8006368:	4604      	mov	r4, r0
      while (__HAL_RCC_GET_FLAG(RCC_FLAG_LSIRDY) != RESET)
 800636a:	6a73      	ldr	r3, [r6, #36]	@ 0x24
 800636c:	079f      	lsls	r7, r3, #30
 800636e:	f57f af41 	bpl.w	80061f4 <HAL_RCC_OscConfig+0x1c>
        if ((HAL_GetTick() - tickstart) > LSI_TIMEOUT_VALUE)
 8006372:	f7fc ff8b 	bl	800328c <HAL_GetTick>
 8006376:	1b00      	subs	r0, r0, r4
 8006378:	2802      	cmp	r0, #2
 800637a:	d9f6      	bls.n	800636a <HAL_RCC_OscConfig+0x192>
 800637c:	e76d      	b.n	800625a <HAL_RCC_OscConfig+0x82>
    if (__HAL_RCC_PWR_IS_CLK_DISABLED())
 800637e:	4c33      	ldr	r4, [pc, #204]	@ (800644c <HAL_RCC_OscConfig+0x274>)
 8006380:	69e3      	ldr	r3, [r4, #28]
 8006382:	00d8      	lsls	r0, r3, #3
 8006384:	d424      	bmi.n	80063d0 <HAL_RCC_OscConfig+0x1f8>
      pwrclkchanged = SET;
 8006386:	2701      	movs	r7, #1
      __HAL_RCC_PWR_CLK_ENABLE();
 8006388:	69e3      	ldr	r3, [r4, #28]
 800638a:	f043 5380 	orr.w	r3, r3, #268435456	@ 0x10000000
 800638e:	61e3      	str	r3, [r4, #28]
 8006390:	69e3      	ldr	r3, [r4, #28]
 8006392:	f003 5380 	and.w	r3, r3, #268435456	@ 0x10000000
 8006396:	9300      	str	r3, [sp, #0]
 8006398:	9b00      	ldr	r3, [sp, #0]
    if (HAL_IS_BIT_CLR(PWR->CR, PWR_CR_DBP))
 800639a:	4e2f      	ldr	r6, [pc, #188]	@ (8006458 <HAL_RCC_OscConfig+0x280>)
 800639c:	6833      	ldr	r3, [r6, #0]
 800639e:	05d9      	lsls	r1, r3, #23
 80063a0:	d518      	bpl.n	80063d4 <HAL_RCC_OscConfig+0x1fc>
    __HAL_RCC_LSE_CONFIG(RCC_OscInitStruct->LSEState);
 80063a2:	68eb      	ldr	r3, [r5, #12]
 80063a4:	2b01      	cmp	r3, #1
 80063a6:	d126      	bne.n	80063f6 <HAL_RCC_OscConfig+0x21e>
 80063a8:	6a23      	ldr	r3, [r4, #32]
 80063aa:	f043 0301 	orr.w	r3, r3, #1
 80063ae:	6223      	str	r3, [r4, #32]
      tickstart = HAL_GetTick();
 80063b0:	f7fc ff6c 	bl	800328c <HAL_GetTick>
        if ((HAL_GetTick() - tickstart) > RCC_LSE_TIMEOUT_VALUE)
 80063b4:	f241 3888 	movw	r8, #5000	@ 0x1388
      tickstart = HAL_GetTick();
 80063b8:	4606      	mov	r6, r0
      while (__HAL_RCC_GET_FLAG(RCC_FLAG_LSERDY) == RESET)
 80063ba:	6a23      	ldr	r3, [r4, #32]
 80063bc:	079b      	lsls	r3, r3, #30
 80063be:	d53f      	bpl.n	8006440 <HAL_RCC_OscConfig+0x268>
    if (pwrclkchanged == SET)
 80063c0:	2f00      	cmp	r7, #0
 80063c2:	f43f af1b 	beq.w	80061fc <HAL_RCC_OscConfig+0x24>
      __HAL_RCC_PWR_CLK_DISABLE();
 80063c6:	69e3      	ldr	r3, [r4, #28]
 80063c8:	f023 5380 	bic.w	r3, r3, #268435456	@ 0x10000000
 80063cc:	61e3      	str	r3, [r4, #28]
 80063ce:	e715      	b.n	80061fc <HAL_RCC_OscConfig+0x24>
    FlagStatus       pwrclkchanged = RESET;
 80063d0:	2700      	movs	r7, #0
 80063d2:	e7e2      	b.n	800639a <HAL_RCC_OscConfig+0x1c2>
      SET_BIT(PWR->CR, PWR_CR_DBP);
 80063d4:	6833      	ldr	r3, [r6, #0]
 80063d6:	f443 7380 	orr.w	r3, r3, #256	@ 0x100
 80063da:	6033      	str	r3, [r6, #0]
      tickstart = HAL_GetTick();
 80063dc:	f7fc ff56 	bl	800328c <HAL_GetTick>
 80063e0:	4680      	mov	r8, r0
      while (HAL_IS_BIT_CLR(PWR->CR, PWR_CR_DBP))
 80063e2:	6833      	ldr	r3, [r6, #0]
 80063e4:	05da      	lsls	r2, r3, #23
 80063e6:	d4dc      	bmi.n	80063a2 <HAL_RCC_OscConfig+0x1ca>
        if ((HAL_GetTick() - tickstart) > RCC_DBP_TIMEOUT_VALUE)
 80063e8:	f7fc ff50 	bl	800328c <HAL_GetTick>
 80063ec:	eba0 0008 	sub.w	r0, r0, r8
 80063f0:	2864      	cmp	r0, #100	@ 0x64
 80063f2:	d9f6      	bls.n	80063e2 <HAL_RCC_OscConfig+0x20a>
 80063f4:	e731      	b.n	800625a <HAL_RCC_OscConfig+0x82>
    __HAL_RCC_LSE_CONFIG(RCC_OscInitStruct->LSEState);
 80063f6:	b9ab      	cbnz	r3, 8006424 <HAL_RCC_OscConfig+0x24c>
 80063f8:	6a23      	ldr	r3, [r4, #32]
        if ((HAL_GetTick() - tickstart) > RCC_LSE_TIMEOUT_VALUE)
 80063fa:	f241 3888 	movw	r8, #5000	@ 0x1388
    __HAL_RCC_LSE_CONFIG(RCC_OscInitStruct->LSEState);
 80063fe:	f023 0301 	bic.w	r3, r3, #1
 8006402:	6223      	str	r3, [r4, #32]
 8006404:	6a23      	ldr	r3, [r4, #32]
 8006406:	f023 0304 	bic.w	r3, r3, #4
 800640a:	6223      	str	r3, [r4, #32]
      tickstart = HAL_GetTick();
 800640c:	f7fc ff3e 	bl	800328c <HAL_GetTick>
 8006410:	4606      	mov	r6, r0
      while (__HAL_RCC_GET_FLAG(RCC_FLAG_LSERDY) != RESET)
 8006412:	6a23      	ldr	r3, [r4, #32]
 8006414:	0798      	lsls	r0, r3, #30
 8006416:	d5d3      	bpl.n	80063c0 <HAL_RCC_OscConfig+0x1e8>
        if ((HAL_GetTick() - tickstart) > RCC_LSE_TIMEOUT_VALUE)
 8006418:	f7fc ff38 	bl	800328c <HAL_GetTick>
 800641c:	1b80      	subs	r0, r0, r6
 800641e:	4540      	cmp	r0, r8
 8006420:	d9f7      	bls.n	8006412 <HAL_RCC_OscConfig+0x23a>
 8006422:	e71a      	b.n	800625a <HAL_RCC_OscConfig+0x82>
    __HAL_RCC_LSE_CONFIG(RCC_OscInitStruct->LSEState);
 8006424:	2b05      	cmp	r3, #5
 8006426:	6a23      	ldr	r3, [r4, #32]
 8006428:	d103      	bne.n	8006432 <HAL_RCC_OscConfig+0x25a>
 800642a:	f043 0304 	orr.w	r3, r3, #4
 800642e:	6223      	str	r3, [r4, #32]
 8006430:	e7ba      	b.n	80063a8 <HAL_RCC_OscConfig+0x1d0>
 8006432:	f023 0301 	bic.w	r3, r3, #1
 8006436:	6223      	str	r3, [r4, #32]
 8006438:	6a23      	ldr	r3, [r4, #32]
 800643a:	f023 0304 	bic.w	r3, r3, #4
 800643e:	e7b6      	b.n	80063ae <HAL_RCC_OscConfig+0x1d6>
        if ((HAL_GetTick() - tickstart) > RCC_LSE_TIMEOUT_VALUE)
 8006440:	f7fc ff24 	bl	800328c <HAL_GetTick>
 8006444:	1b80      	subs	r0, r0, r6
 8006446:	4540      	cmp	r0, r8
 8006448:	d9b7      	bls.n	80063ba <HAL_RCC_OscConfig+0x1e2>
 800644a:	e706      	b.n	800625a <HAL_RCC_OscConfig+0x82>
 800644c:	40021000 	.word	0x40021000
 8006450:	42420000 	.word	0x42420000
 8006454:	2000006c 	.word	0x2000006c
 8006458:	40007000 	.word	0x40007000
    if (__HAL_RCC_GET_SYSCLK_SOURCE() != RCC_SYSCLKSOURCE_STATUS_PLLCLK)
 800645c:	4c2a      	ldr	r4, [pc, #168]	@ (8006508 <HAL_RCC_OscConfig+0x330>)
 800645e:	6862      	ldr	r2, [r4, #4]
 8006460:	f002 020c 	and.w	r2, r2, #12
 8006464:	2a08      	cmp	r2, #8
 8006466:	d03e      	beq.n	80064e6 <HAL_RCC_OscConfig+0x30e>
      if ((RCC_OscInitStruct->PLL.PLLState) == RCC_PLL_ON)
 8006468:	2200      	movs	r2, #0
 800646a:	2b02      	cmp	r3, #2
 800646c:	4b27      	ldr	r3, [pc, #156]	@ (800650c <HAL_RCC_OscConfig+0x334>)
        __HAL_RCC_PLL_DISABLE();
 800646e:	661a      	str	r2, [r3, #96]	@ 0x60
      if ((RCC_OscInitStruct->PLL.PLLState) == RCC_PLL_ON)
 8006470:	d12c      	bne.n	80064cc <HAL_RCC_OscConfig+0x2f4>
        tickstart = HAL_GetTick();
 8006472:	f7fc ff0b 	bl	800328c <HAL_GetTick>
 8006476:	4606      	mov	r6, r0
        while (__HAL_RCC_GET_FLAG(RCC_FLAG_PLLRDY)  != RESET)
 8006478:	6823      	ldr	r3, [r4, #0]
 800647a:	0199      	lsls	r1, r3, #6
 800647c:	d420      	bmi.n	80064c0 <HAL_RCC_OscConfig+0x2e8>
        if (RCC_OscInitStruct->PLL.PLLSource == RCC_PLLSOURCE_HSE)
 800647e:	6a2b      	ldr	r3, [r5, #32]
 8006480:	f5b3 3f80 	cmp.w	r3, #65536	@ 0x10000
 8006484:	d105      	bne.n	8006492 <HAL_RCC_OscConfig+0x2ba>
          __HAL_RCC_HSE_PREDIV_CONFIG(RCC_OscInitStruct->HSEPredivValue);
 8006486:	6862      	ldr	r2, [r4, #4]
 8006488:	68a9      	ldr	r1, [r5, #8]
 800648a:	f422 3200 	bic.w	r2, r2, #131072	@ 0x20000
 800648e:	430a      	orrs	r2, r1
 8006490:	6062      	str	r2, [r4, #4]
        __HAL_RCC_PLL_CONFIG(RCC_OscInitStruct->PLL.PLLSource,
 8006492:	6a69      	ldr	r1, [r5, #36]	@ 0x24
 8006494:	6862      	ldr	r2, [r4, #4]
 8006496:	430b      	orrs	r3, r1
 8006498:	f422 1274 	bic.w	r2, r2, #3997696	@ 0x3d0000
 800649c:	4313      	orrs	r3, r2
        __HAL_RCC_PLL_ENABLE();
 800649e:	2201      	movs	r2, #1
        __HAL_RCC_PLL_CONFIG(RCC_OscInitStruct->PLL.PLLSource,
 80064a0:	6063      	str	r3, [r4, #4]
        __HAL_RCC_PLL_ENABLE();
 80064a2:	4b1a      	ldr	r3, [pc, #104]	@ (800650c <HAL_RCC_OscConfig+0x334>)
 80064a4:	661a      	str	r2, [r3, #96]	@ 0x60
        tickstart = HAL_GetTick();
 80064a6:	f7fc fef1 	bl	800328c <HAL_GetTick>
 80064aa:	4605      	mov	r5, r0
        while (__HAL_RCC_GET_FLAG(RCC_FLAG_PLLRDY)  == RESET)
 80064ac:	6823      	ldr	r3, [r4, #0]
 80064ae:	019a      	lsls	r2, r3, #6
 80064b0:	f53f aea8 	bmi.w	8006204 <HAL_RCC_OscConfig+0x2c>
          if ((HAL_GetTick() - tickstart) > PLL_TIMEOUT_VALUE)
 80064b4:	f7fc feea 	bl	800328c <HAL_GetTick>
 80064b8:	1b40      	subs	r0, r0, r5
 80064ba:	2802      	cmp	r0, #2
 80064bc:	d9f6      	bls.n	80064ac <HAL_RCC_OscConfig+0x2d4>
 80064be:	e6cc      	b.n	800625a <HAL_RCC_OscConfig+0x82>
          if ((HAL_GetTick() - tickstart) > PLL_TIMEOUT_VALUE)
 80064c0:	f7fc fee4 	bl	800328c <HAL_GetTick>
 80064c4:	1b80      	subs	r0, r0, r6
 80064c6:	2802      	cmp	r0, #2
 80064c8:	d9d6      	bls.n	8006478 <HAL_RCC_OscConfig+0x2a0>
 80064ca:	e6c6      	b.n	800625a <HAL_RCC_OscConfig+0x82>
        tickstart = HAL_GetTick();
 80064cc:	f7fc fede 	bl	800328c <HAL_GetTick>
 80064d0:	4605      	mov	r5, r0
        while (__HAL_RCC_GET_FLAG(RCC_FLAG_PLLRDY)  != RESET)
 80064d2:	6823      	ldr	r3, [r4, #0]
 80064d4:	019b      	lsls	r3, r3, #6
 80064d6:	f57f ae95 	bpl.w	8006204 <HAL_RCC_OscConfig+0x2c>
          if ((HAL_GetTick() - tickstart) > PLL_TIMEOUT_VALUE)
 80064da:	f7fc fed7 	bl	800328c <HAL_GetTick>
 80064de:	1b40      	subs	r0, r0, r5
 80064e0:	2802      	cmp	r0, #2
 80064e2:	d9f6      	bls.n	80064d2 <HAL_RCC_OscConfig+0x2fa>
 80064e4:	e6b9      	b.n	800625a <HAL_RCC_OscConfig+0x82>
      if ((RCC_OscInitStruct->PLL.PLLState) == RCC_PLL_OFF)
 80064e6:	2b01      	cmp	r3, #1
 80064e8:	f43f aea2 	beq.w	8006230 <HAL_RCC_OscConfig+0x58>
        pll_config = RCC->CFGR;
 80064ec:	6860      	ldr	r0, [r4, #4]
        if ((READ_BIT(pll_config, RCC_CFGR_PLLSRC) != RCC_OscInitStruct->PLL.PLLSource) ||
 80064ee:	6a2b      	ldr	r3, [r5, #32]
 80064f0:	f400 3280 	and.w	r2, r0, #65536	@ 0x10000
 80064f4:	429a      	cmp	r2, r3
 80064f6:	f47f ae9b 	bne.w	8006230 <HAL_RCC_OscConfig+0x58>
 80064fa:	6a6b      	ldr	r3, [r5, #36]	@ 0x24
            (READ_BIT(pll_config, RCC_CFGR_PLLMULL) != RCC_OscInitStruct->PLL.PLLMUL))
 80064fc:	f400 1070 	and.w	r0, r0, #3932160	@ 0x3c0000
        if ((READ_BIT(pll_config, RCC_CFGR_PLLSRC) != RCC_OscInitStruct->PLL.PLLSource) ||
 8006500:	1ac0      	subs	r0, r0, r3
 8006502:	bf18      	it	ne
 8006504:	2001      	movne	r0, #1
 8006506:	e6a9      	b.n	800625c <HAL_RCC_OscConfig+0x84>
 8006508:	40021000 	.word	0x40021000
 800650c:	42420000 	.word	0x42420000

08006510 <HAL_RCC_GetSysClockFreq>:
  tmpreg = RCC->CFGR;
 8006510:	4a0d      	ldr	r2, [pc, #52]	@ (8006548 <HAL_RCC_GetSysClockFreq+0x38>)
 8006512:	6853      	ldr	r3, [r2, #4]
  switch (tmpreg & RCC_CFGR_SWS)
 8006514:	f003 010c 	and.w	r1, r3, #12
 8006518:	2908      	cmp	r1, #8
 800651a:	d112      	bne.n	8006542 <HAL_RCC_GetSysClockFreq+0x32>
      pllmul = aPLLMULFactorTable[(uint32_t)(tmpreg & RCC_CFGR_PLLMULL) >> RCC_CFGR_PLLMULL_Pos];
 800651c:	480b      	ldr	r0, [pc, #44]	@ (800654c <HAL_RCC_GetSysClockFreq+0x3c>)
 800651e:	f3c3 4183 	ubfx	r1, r3, #18, #4
      if ((tmpreg & RCC_CFGR_PLLSRC) != RCC_PLLSOURCE_HSI_DIV2)
 8006522:	03db      	lsls	r3, r3, #15
      pllmul = aPLLMULFactorTable[(uint32_t)(tmpreg & RCC_CFGR_PLLMULL) >> RCC_CFGR_PLLMULL_Pos];
 8006524:	5c40      	ldrb	r0, [r0, r1]
      if ((tmpreg & RCC_CFGR_PLLSRC) != RCC_PLLSOURCE_HSI_DIV2)
 8006526:	d509      	bpl.n	800653c <HAL_RCC_GetSysClockFreq+0x2c>
        prediv = aPredivFactorTable[(uint32_t)(RCC->CFGR & RCC_CFGR_PLLXTPRE) >> RCC_CFGR_PLLXTPRE_Pos];
 8006528:	6853      	ldr	r3, [r2, #4]
        pllclk = (uint32_t)((HSE_VALUE  * pllmul) / prediv);
 800652a:	4a09      	ldr	r2, [pc, #36]	@ (8006550 <HAL_RCC_GetSysClockFreq+0x40>)
        prediv = aPredivFactorTable[(uint32_t)(RCC->CFGR & RCC_CFGR_PLLXTPRE) >> RCC_CFGR_PLLXTPRE_Pos];
 800652c:	f3c3 4340 	ubfx	r3, r3, #17, #1
        pllclk = (uint32_t)((HSE_VALUE  * pllmul) / prediv);
 8006530:	4350      	muls	r0, r2
        prediv = aPredivFactorTable[(uint32_t)(RCC->CFGR & RCC_CFGR_PLLXTPRE) >> RCC_CFGR_PLLXTPRE_Pos];
 8006532:	4a08      	ldr	r2, [pc, #32]	@ (8006554 <HAL_RCC_GetSysClockFreq+0x44>)
 8006534:	5cd3      	ldrb	r3, [r2, r3]
        pllclk = (uint32_t)((HSE_VALUE  * pllmul) / prediv);
 8006536:	fbb0 f0f3 	udiv	r0, r0, r3
 800653a:	4770      	bx	lr
        pllclk = (uint32_t)((HSI_VALUE >> 1) * pllmul);
 800653c:	4b06      	ldr	r3, [pc, #24]	@ (8006558 <HAL_RCC_GetSysClockFreq+0x48>)
 800653e:	4358      	muls	r0, r3
 8006540:	4770      	bx	lr
      sysclockfreq = HSE_VALUE;
 8006542:	4803      	ldr	r0, [pc, #12]	@ (8006550 <HAL_RCC_GetSysClockFreq+0x40>)
}
 8006544:	4770      	bx	lr
 8006546:	bf00      	nop
 8006548:	40021000 	.word	0x40021000
 800654c:	0800b357 	.word	0x0800b357
 8006550:	007a1200 	.word	0x007a1200
 8006554:	0800b355 	.word	0x0800b355
 8006558:	003d0900 	.word	0x003d0900

0800655c <HAL_RCC_ClockConfig>:
{
 800655c:	e92d 41f0 	stmdb	sp!, {r4, r5, r6, r7, r8, lr}
 8006560:	460d      	mov	r5, r1
  if (RCC_ClkInitStruct == NULL)
 8006562:	4604      	mov	r4, r0
 8006564:	b910      	cbnz	r0, 800656c <HAL_RCC_ClockConfig+0x10>
    return HAL_ERROR;
 8006566:	2001      	movs	r0, #1
}
 8006568:	e8bd 81f0 	ldmia.w	sp!, {r4, r5, r6, r7, r8, pc}
  if (FLatency > __HAL_FLASH_GET_LATENCY())
 800656c:	4a44      	ldr	r2, [pc, #272]	@ (8006680 <HAL_RCC_ClockConfig+0x124>)
 800656e:	6813      	ldr	r3, [r2, #0]
 8006570:	f003 0307 	and.w	r3, r3, #7
 8006574:	428b      	cmp	r3, r1
 8006576:	d328      	bcc.n	80065ca <HAL_RCC_ClockConfig+0x6e>
if (((RCC_ClkInitStruct->ClockType) & RCC_CLOCKTYPE_HCLK) == RCC_CLOCKTYPE_HCLK)
 8006578:	6821      	ldr	r1, [r4, #0]
 800657a:	078e      	lsls	r6, r1, #30
 800657c:	d430      	bmi.n	80065e0 <HAL_RCC_ClockConfig+0x84>
  if (((RCC_ClkInitStruct->ClockType) & RCC_CLOCKTYPE_SYSCLK) == RCC_CLOCKTYPE_SYSCLK)
 800657e:	07ca      	lsls	r2, r1, #31
 8006580:	d443      	bmi.n	800660a <HAL_RCC_ClockConfig+0xae>
  if (FLatency < __HAL_FLASH_GET_LATENCY())
 8006582:	4a3f      	ldr	r2, [pc, #252]	@ (8006680 <HAL_RCC_ClockConfig+0x124>)
 8006584:	6813      	ldr	r3, [r2, #0]
 8006586:	f003 0307 	and.w	r3, r3, #7
 800658a:	42ab      	cmp	r3, r5
 800658c:	d865      	bhi.n	800665a <HAL_RCC_ClockConfig+0xfe>
if (((RCC_ClkInitStruct->ClockType) & RCC_CLOCKTYPE_PCLK1) == RCC_CLOCKTYPE_PCLK1)
 800658e:	6822      	ldr	r2, [r4, #0]
 8006590:	4d3c      	ldr	r5, [pc, #240]	@ (8006684 <HAL_RCC_ClockConfig+0x128>)
 8006592:	f012 0f04 	tst.w	r2, #4
 8006596:	d16c      	bne.n	8006672 <HAL_RCC_ClockConfig+0x116>
  if (((RCC_ClkInitStruct->ClockType) & RCC_CLOCKTYPE_PCLK2) == RCC_CLOCKTYPE_PCLK2)
 8006598:	0713      	lsls	r3, r2, #28
 800659a:	d506      	bpl.n	80065aa <HAL_RCC_ClockConfig+0x4e>
    MODIFY_REG(RCC->CFGR, RCC_CFGR_PPRE2, ((RCC_ClkInitStruct->APB2CLKDivider) << 3));
 800659c:	686b      	ldr	r3, [r5, #4]
 800659e:	6922      	ldr	r2, [r4, #16]
 80065a0:	f423 5360 	bic.w	r3, r3, #14336	@ 0x3800
 80065a4:	ea43 03c2 	orr.w	r3, r3, r2, lsl #3
 80065a8:	606b      	str	r3, [r5, #4]
  SystemCoreClock = HAL_RCC_GetSysClockFreq() >> AHBPrescTable[(RCC->CFGR & RCC_CFGR_HPRE) >> RCC_CFGR_HPRE_Pos];
 80065aa:	f7ff ffb1 	bl	8006510 <HAL_RCC_GetSysClockFreq>
 80065ae:	686b      	ldr	r3, [r5, #4]
 80065b0:	4a35      	ldr	r2, [pc, #212]	@ (8006688 <HAL_RCC_ClockConfig+0x12c>)
 80065b2:	f3c3 1303 	ubfx	r3, r3, #4, #4
 80065b6:	5cd3      	ldrb	r3, [r2, r3]
 80065b8:	40d8      	lsrs	r0, r3
 80065ba:	4b34      	ldr	r3, [pc, #208]	@ (800668c <HAL_RCC_ClockConfig+0x130>)
 80065bc:	6018      	str	r0, [r3, #0]
  HAL_InitTick(uwTickPrio);
 80065be:	4b34      	ldr	r3, [pc, #208]	@ (8006690 <HAL_RCC_ClockConfig+0x134>)
 80065c0:	6818      	ldr	r0, [r3, #0]
 80065c2:	f7fc fe21 	bl	8003208 <HAL_InitTick>
  return HAL_OK;
 80065c6:	2000      	movs	r0, #0
 80065c8:	e7ce      	b.n	8006568 <HAL_RCC_ClockConfig+0xc>
    __HAL_FLASH_SET_LATENCY(FLatency);
 80065ca:	6813      	ldr	r3, [r2, #0]
 80065cc:	f023 0307 	bic.w	r3, r3, #7
 80065d0:	430b      	orrs	r3, r1
 80065d2:	6013      	str	r3, [r2, #0]
    if (__HAL_FLASH_GET_LATENCY() != FLatency)
 80065d4:	6813      	ldr	r3, [r2, #0]
 80065d6:	f003 0307 	and.w	r3, r3, #7
 80065da:	428b      	cmp	r3, r1
 80065dc:	d1c3      	bne.n	8006566 <HAL_RCC_ClockConfig+0xa>
 80065de:	e7cb      	b.n	8006578 <HAL_RCC_ClockConfig+0x1c>
    if (((RCC_ClkInitStruct->ClockType) & RCC_CLOCKTYPE_PCLK1) == RCC_CLOCKTYPE_PCLK1)
 80065e0:	4b28      	ldr	r3, [pc, #160]	@ (8006684 <HAL_RCC_ClockConfig+0x128>)
 80065e2:	f011 0f04 	tst.w	r1, #4
      MODIFY_REG(RCC->CFGR, RCC_CFGR_PPRE1, RCC_HCLK_DIV16);
 80065e6:	bf1e      	ittt	ne
 80065e8:	685a      	ldrne	r2, [r3, #4]
 80065ea:	f442 62e0 	orrne.w	r2, r2, #1792	@ 0x700
 80065ee:	605a      	strne	r2, [r3, #4]
    if (((RCC_ClkInitStruct->ClockType) & RCC_CLOCKTYPE_PCLK2) == RCC_CLOCKTYPE_PCLK2)
 80065f0:	0708      	lsls	r0, r1, #28
      MODIFY_REG(RCC->CFGR, RCC_CFGR_PPRE2, (RCC_HCLK_DIV16 << 3));
 80065f2:	bf42      	ittt	mi
 80065f4:	685a      	ldrmi	r2, [r3, #4]
 80065f6:	f442 5260 	orrmi.w	r2, r2, #14336	@ 0x3800
 80065fa:	605a      	strmi	r2, [r3, #4]
    MODIFY_REG(RCC->CFGR, RCC_CFGR_HPRE, RCC_ClkInitStruct->AHBCLKDivider);
 80065fc:	685a      	ldr	r2, [r3, #4]
 80065fe:	68a0      	ldr	r0, [r4, #8]
 8006600:	f022 02f0 	bic.w	r2, r2, #240	@ 0xf0
 8006604:	4302      	orrs	r2, r0
 8006606:	605a      	str	r2, [r3, #4]
 8006608:	e7b9      	b.n	800657e <HAL_RCC_ClockConfig+0x22>
    if (RCC_ClkInitStruct->SYSCLKSource == RCC_SYSCLKSOURCE_HSE)
 800660a:	6862      	ldr	r2, [r4, #4]
 800660c:	4e1d      	ldr	r6, [pc, #116]	@ (8006684 <HAL_RCC_ClockConfig+0x128>)
 800660e:	2a01      	cmp	r2, #1
      if (__HAL_RCC_GET_FLAG(RCC_FLAG_HSERDY) == RESET)
 8006610:	6833      	ldr	r3, [r6, #0]
    if (RCC_ClkInitStruct->SYSCLKSource == RCC_SYSCLKSOURCE_HSE)
 8006612:	d11a      	bne.n	800664a <HAL_RCC_ClockConfig+0xee>
      if (__HAL_RCC_GET_FLAG(RCC_FLAG_HSERDY) == RESET)
 8006614:	f413 3f00 	tst.w	r3, #131072	@ 0x20000
      if (__HAL_RCC_GET_FLAG(RCC_FLAG_HSIRDY) == RESET)
 8006618:	d0a5      	beq.n	8006566 <HAL_RCC_ClockConfig+0xa>
    __HAL_RCC_SYSCLK_CONFIG(RCC_ClkInitStruct->SYSCLKSource);
 800661a:	6873      	ldr	r3, [r6, #4]
      if ((HAL_GetTick() - tickstart) > CLOCKSWITCH_TIMEOUT_VALUE)
 800661c:	f241 3888 	movw	r8, #5000	@ 0x1388
    __HAL_RCC_SYSCLK_CONFIG(RCC_ClkInitStruct->SYSCLKSource);
 8006620:	f023 0303 	bic.w	r3, r3, #3
 8006624:	4313      	orrs	r3, r2
 8006626:	6073      	str	r3, [r6, #4]
    tickstart = HAL_GetTick();
 8006628:	f7fc fe30 	bl	800328c <HAL_GetTick>
 800662c:	4607      	mov	r7, r0
    while (__HAL_RCC_GET_SYSCLK_SOURCE() != (RCC_ClkInitStruct->SYSCLKSource << RCC_CFGR_SWS_Pos))
 800662e:	6873      	ldr	r3, [r6, #4]
 8006630:	6862      	ldr	r2, [r4, #4]
 8006632:	f003 030c 	and.w	r3, r3, #12
 8006636:	ebb3 0f82 	cmp.w	r3, r2, lsl #2
 800663a:	d0a2      	beq.n	8006582 <HAL_RCC_ClockConfig+0x26>
      if ((HAL_GetTick() - tickstart) > CLOCKSWITCH_TIMEOUT_VALUE)
 800663c:	f7fc fe26 	bl	800328c <HAL_GetTick>
 8006640:	1bc0      	subs	r0, r0, r7
 8006642:	4540      	cmp	r0, r8
 8006644:	d9f3      	bls.n	800662e <HAL_RCC_ClockConfig+0xd2>
        return HAL_TIMEOUT;
 8006646:	2003      	movs	r0, #3
 8006648:	e78e      	b.n	8006568 <HAL_RCC_ClockConfig+0xc>
    else if (RCC_ClkInitStruct->SYSCLKSource == RCC_SYSCLKSOURCE_PLLCLK)
 800664a:	2a02      	cmp	r2, #2
 800664c:	d102      	bne.n	8006654 <HAL_RCC_ClockConfig+0xf8>
      if (__HAL_RCC_GET_FLAG(RCC_FLAG_PLLRDY) == RESET)
 800664e:	f013 7f00 	tst.w	r3, #33554432	@ 0x2000000
 8006652:	e7e1      	b.n	8006618 <HAL_RCC_ClockConfig+0xbc>
      if (__HAL_RCC_GET_FLAG(RCC_FLAG_HSIRDY) == RESET)
 8006654:	f013 0f02 	tst.w	r3, #2
 8006658:	e7de      	b.n	8006618 <HAL_RCC_ClockConfig+0xbc>
    __HAL_FLASH_SET_LATENCY(FLatency);
 800665a:	6813      	ldr	r3, [r2, #0]
 800665c:	f023 0307 	bic.w	r3, r3, #7
 8006660:	432b      	orrs	r3, r5
 8006662:	6013      	str	r3, [r2, #0]
    if (__HAL_FLASH_GET_LATENCY() != FLatency)
 8006664:	6813      	ldr	r3, [r2, #0]
 8006666:	f003 0307 	and.w	r3, r3, #7
 800666a:	42ab      	cmp	r3, r5
 800666c:	f47f af7b 	bne.w	8006566 <HAL_RCC_ClockConfig+0xa>
 8006670:	e78d      	b.n	800658e <HAL_RCC_ClockConfig+0x32>
    MODIFY_REG(RCC->CFGR, RCC_CFGR_PPRE1, RCC_ClkInitStruct->APB1CLKDivider);
 8006672:	686b      	ldr	r3, [r5, #4]
 8006674:	68e1      	ldr	r1, [r4, #12]
 8006676:	f423 63e0 	bic.w	r3, r3, #1792	@ 0x700
 800667a:	430b      	orrs	r3, r1
 800667c:	606b      	str	r3, [r5, #4]
 800667e:	e78b      	b.n	8006598 <HAL_RCC_ClockConfig+0x3c>
 8006680:	40022000 	.word	0x40022000
 8006684:	40021000 	.word	0x40021000
 8006688:	0800b345 	.word	0x0800b345
 800668c:	2000006c 	.word	0x2000006c
 8006690:	20000074 	.word	0x20000074

08006694 <HAL_RCC_GetPCLK1Freq>:
  return (HAL_RCC_GetHCLKFreq() >> APBPrescTable[(RCC->CFGR & RCC_CFGR_PPRE1) >> RCC_CFGR_PPRE1_Pos]);
 8006694:	4b04      	ldr	r3, [pc, #16]	@ (80066a8 <HAL_RCC_GetPCLK1Freq+0x14>)
 8006696:	4a05      	ldr	r2, [pc, #20]	@ (80066ac <HAL_RCC_GetPCLK1Freq+0x18>)
 8006698:	685b      	ldr	r3, [r3, #4]
 800669a:	f3c3 2302 	ubfx	r3, r3, #8, #3
 800669e:	5cd3      	ldrb	r3, [r2, r3]
 80066a0:	4a03      	ldr	r2, [pc, #12]	@ (80066b0 <HAL_RCC_GetPCLK1Freq+0x1c>)
 80066a2:	6810      	ldr	r0, [r2, #0]
}
 80066a4:	40d8      	lsrs	r0, r3
 80066a6:	4770      	bx	lr
 80066a8:	40021000 	.word	0x40021000
 80066ac:	0800b33d 	.word	0x0800b33d
 80066b0:	2000006c 	.word	0x2000006c

080066b4 <HAL_RCC_GetPCLK2Freq>:
  return (HAL_RCC_GetHCLKFreq() >> APBPrescTable[(RCC->CFGR & RCC_CFGR_PPRE2) >> RCC_CFGR_PPRE2_Pos]);
 80066b4:	4b04      	ldr	r3, [pc, #16]	@ (80066c8 <HAL_RCC_GetPCLK2Freq+0x14>)
 80066b6:	4a05      	ldr	r2, [pc, #20]	@ (80066cc <HAL_RCC_GetPCLK2Freq+0x18>)
 80066b8:	685b      	ldr	r3, [r3, #4]
 80066ba:	f3c3 23c2 	ubfx	r3, r3, #11, #3
 80066be:	5cd3      	ldrb	r3, [r2, r3]
 80066c0:	4a03      	ldr	r2, [pc, #12]	@ (80066d0 <HAL_RCC_GetPCLK2Freq+0x1c>)
 80066c2:	6810      	ldr	r0, [r2, #0]
}
 80066c4:	40d8      	lsrs	r0, r3
 80066c6:	4770      	bx	lr
 80066c8:	40021000 	.word	0x40021000
 80066cc:	0800b33d 	.word	0x0800b33d
 80066d0:	2000006c 	.word	0x2000006c

080066d4 <HAL_RCCEx_PeriphCLKConfig>:

  /* Check the parameters */
  assert_param(IS_RCC_PERIPHCLOCK(PeriphClkInit->PeriphClockSelection));

  /*------------------------------- RTC/LCD Configuration ------------------------*/
  if ((((PeriphClkInit->PeriphClockSelection) & RCC_PERIPHCLK_RTC) == RCC_PERIPHCLK_RTC))
 80066d4:	6803      	ldr	r3, [r0, #0]
{
 80066d6:	e92d 41f3 	stmdb	sp!, {r0, r1, r4, r5, r6, r7, r8, lr}
 80066da:	4605      	mov	r5, r0
  if ((((PeriphClkInit->PeriphClockSelection) & RCC_PERIPHCLK_RTC) == RCC_PERIPHCLK_RTC))
 80066dc:	07d8      	lsls	r0, r3, #31
 80066de:	d520      	bpl.n	8006722 <HAL_RCCEx_PeriphCLKConfig+0x4e>
    assert_param(IS_RCC_RTCCLKSOURCE(PeriphClkInit->RTCClockSelection));

    /* As soon as function is called to change RTC clock source, activation of the
       power domain is done. */
    /* Requires to enable write access to Backup Domain of necessary */
    if (__HAL_RCC_PWR_IS_CLK_DISABLED())
 80066e0:	4c36      	ldr	r4, [pc, #216]	@ (80067bc <HAL_RCCEx_PeriphCLKConfig+0xe8>)
 80066e2:	69e3      	ldr	r3, [r4, #28]
 80066e4:	00d9      	lsls	r1, r3, #3
 80066e6:	d42a      	bmi.n	800673e <HAL_RCCEx_PeriphCLKConfig+0x6a>
    {
      __HAL_RCC_PWR_CLK_ENABLE();
      pwrclkchanged = SET;
 80066e8:	2601      	movs	r6, #1
      __HAL_RCC_PWR_CLK_ENABLE();
 80066ea:	69e3      	ldr	r3, [r4, #28]
 80066ec:	f043 5380 	orr.w	r3, r3, #268435456	@ 0x10000000
 80066f0:	61e3      	str	r3, [r4, #28]
 80066f2:	69e3      	ldr	r3, [r4, #28]
 80066f4:	f003 5380 	and.w	r3, r3, #268435456	@ 0x10000000
 80066f8:	9301      	str	r3, [sp, #4]
 80066fa:	9b01      	ldr	r3, [sp, #4]
    }

    if (HAL_IS_BIT_CLR(PWR->CR, PWR_CR_DBP))
 80066fc:	4f30      	ldr	r7, [pc, #192]	@ (80067c0 <HAL_RCCEx_PeriphCLKConfig+0xec>)
 80066fe:	683b      	ldr	r3, [r7, #0]
 8006700:	05da      	lsls	r2, r3, #23
 8006702:	d51e      	bpl.n	8006742 <HAL_RCCEx_PeriphCLKConfig+0x6e>
        }
      }
    }

    /* Reset the Backup domain only if the RTC Clock source selection is modified from reset value */
    temp_reg = (RCC->BDCR & RCC_BDCR_RTCSEL);
 8006704:	6a23      	ldr	r3, [r4, #32]
    if ((temp_reg != 0x00000000U) && (temp_reg != (PeriphClkInit->RTCClockSelection & RCC_BDCR_RTCSEL)))
 8006706:	f413 7340 	ands.w	r3, r3, #768	@ 0x300
 800670a:	d12e      	bne.n	800676a <HAL_RCCEx_PeriphCLKConfig+0x96>
            return HAL_TIMEOUT;
          }
        }
      }
    }
    __HAL_RCC_RTC_CONFIG(PeriphClkInit->RTCClockSelection);
 800670c:	6a23      	ldr	r3, [r4, #32]
 800670e:	686a      	ldr	r2, [r5, #4]
 8006710:	f423 7340 	bic.w	r3, r3, #768	@ 0x300
 8006714:	4313      	orrs	r3, r2
 8006716:	6223      	str	r3, [r4, #32]

    /* Require to disable power clock if necessary */
    if (pwrclkchanged == SET)
 8006718:	b11e      	cbz	r6, 8006722 <HAL_RCCEx_PeriphCLKConfig+0x4e>
    {
      __HAL_RCC_PWR_CLK_DISABLE();
 800671a:	69e3      	ldr	r3, [r4, #28]
 800671c:	f023 5380 	bic.w	r3, r3, #268435456	@ 0x10000000
 8006720:	61e3      	str	r3, [r4, #28]
    }
  }

  /*------------------------------ ADC clock Configuration ------------------*/
  if (((PeriphClkInit->PeriphClockSelection) & RCC_PERIPHCLK_ADC) == RCC_PERIPHCLK_ADC)
 8006722:	682a      	ldr	r2, [r5, #0]
 8006724:	0791      	lsls	r1, r2, #30
 8006726:	d506      	bpl.n	8006736 <HAL_RCCEx_PeriphCLKConfig+0x62>
  {
    /* Check the parameters */
    assert_param(IS_RCC_ADCPLLCLK_DIV(PeriphClkInit->AdcClockSelection));

    /* Configure the ADC clock source */
    __HAL_RCC_ADC_CONFIG(PeriphClkInit->AdcClockSelection);
 8006728:	4924      	ldr	r1, [pc, #144]	@ (80067bc <HAL_RCCEx_PeriphCLKConfig+0xe8>)
 800672a:	68a8      	ldr	r0, [r5, #8]
 800672c:	684b      	ldr	r3, [r1, #4]
 800672e:	f423 4340 	bic.w	r3, r3, #49152	@ 0xc000
 8006732:	4303      	orrs	r3, r0
 8006734:	604b      	str	r3, [r1, #4]

#if defined(STM32F102x6) || defined(STM32F102xB) || defined(STM32F103x6)\
 || defined(STM32F103xB) || defined(STM32F103xE) || defined(STM32F103xG)\
 || defined(STM32F105xC) || defined(STM32F107xC)
  /*------------------------------ USB clock Configuration ------------------*/
  if (((PeriphClkInit->PeriphClockSelection) & RCC_PERIPHCLK_USB) == RCC_PERIPHCLK_USB)
 8006736:	06d3      	lsls	r3, r2, #27
 8006738:	d437      	bmi.n	80067aa <HAL_RCCEx_PeriphCLKConfig+0xd6>
    /* Configure the USB clock source */
    __HAL_RCC_USB_CONFIG(PeriphClkInit->UsbClockSelection);
  }
#endif /* STM32F102x6 || STM32F102xB || STM32F103x6 || STM32F103xB || STM32F103xE || STM32F103xG || STM32F105xC || STM32F107xC */

  return HAL_OK;
 800673a:	2000      	movs	r0, #0
 800673c:	e012      	b.n	8006764 <HAL_RCCEx_PeriphCLKConfig+0x90>
    FlagStatus pwrclkchanged = RESET;
 800673e:	2600      	movs	r6, #0
 8006740:	e7dc      	b.n	80066fc <HAL_RCCEx_PeriphCLKConfig+0x28>
      SET_BIT(PWR->CR, PWR_CR_DBP);
 8006742:	683b      	ldr	r3, [r7, #0]
 8006744:	f443 7380 	orr.w	r3, r3, #256	@ 0x100
 8006748:	603b      	str	r3, [r7, #0]
      tickstart = HAL_GetTick();
 800674a:	f7fc fd9f 	bl	800328c <HAL_GetTick>
 800674e:	4680      	mov	r8, r0
      while (HAL_IS_BIT_CLR(PWR->CR, PWR_CR_DBP))
 8006750:	683b      	ldr	r3, [r7, #0]
 8006752:	05db      	lsls	r3, r3, #23
 8006754:	d4d6      	bmi.n	8006704 <HAL_RCCEx_PeriphCLKConfig+0x30>
        if ((HAL_GetTick() - tickstart) > RCC_DBP_TIMEOUT_VALUE)
 8006756:	f7fc fd99 	bl	800328c <HAL_GetTick>
 800675a:	eba0 0008 	sub.w	r0, r0, r8
 800675e:	2864      	cmp	r0, #100	@ 0x64
 8006760:	d9f6      	bls.n	8006750 <HAL_RCCEx_PeriphCLKConfig+0x7c>
          return HAL_TIMEOUT;
 8006762:	2003      	movs	r0, #3
}
 8006764:	b002      	add	sp, #8
 8006766:	e8bd 81f0 	ldmia.w	sp!, {r4, r5, r6, r7, r8, pc}
    if ((temp_reg != 0x00000000U) && (temp_reg != (PeriphClkInit->RTCClockSelection & RCC_BDCR_RTCSEL)))
 800676a:	686a      	ldr	r2, [r5, #4]
 800676c:	f402 7240 	and.w	r2, r2, #768	@ 0x300
 8006770:	429a      	cmp	r2, r3
 8006772:	d0cb      	beq.n	800670c <HAL_RCCEx_PeriphCLKConfig+0x38>
      __HAL_RCC_BACKUPRESET_FORCE();
 8006774:	2001      	movs	r0, #1
 8006776:	4a13      	ldr	r2, [pc, #76]	@ (80067c4 <HAL_RCCEx_PeriphCLKConfig+0xf0>)
      temp_reg = (RCC->BDCR & ~(RCC_BDCR_RTCSEL));
 8006778:	6a23      	ldr	r3, [r4, #32]
      __HAL_RCC_BACKUPRESET_FORCE();
 800677a:	f8c2 0440 	str.w	r0, [r2, #1088]	@ 0x440
      __HAL_RCC_BACKUPRESET_RELEASE();
 800677e:	2000      	movs	r0, #0
      temp_reg = (RCC->BDCR & ~(RCC_BDCR_RTCSEL));
 8006780:	f423 7140 	bic.w	r1, r3, #768	@ 0x300
      if (HAL_IS_BIT_SET(temp_reg, RCC_BDCR_LSEON))
 8006784:	07df      	lsls	r7, r3, #31
      __HAL_RCC_BACKUPRESET_RELEASE();
 8006786:	f8c2 0440 	str.w	r0, [r2, #1088]	@ 0x440
      RCC->BDCR = temp_reg;
 800678a:	6221      	str	r1, [r4, #32]
      if (HAL_IS_BIT_SET(temp_reg, RCC_BDCR_LSEON))
 800678c:	d5be      	bpl.n	800670c <HAL_RCCEx_PeriphCLKConfig+0x38>
        tickstart = HAL_GetTick();
 800678e:	f7fc fd7d 	bl	800328c <HAL_GetTick>
          if ((HAL_GetTick() - tickstart) > RCC_LSE_TIMEOUT_VALUE)
 8006792:	f241 3888 	movw	r8, #5000	@ 0x1388
        tickstart = HAL_GetTick();
 8006796:	4607      	mov	r7, r0
        while (__HAL_RCC_GET_FLAG(RCC_FLAG_LSERDY) == RESET)
 8006798:	6a23      	ldr	r3, [r4, #32]
 800679a:	0798      	lsls	r0, r3, #30
 800679c:	d4b6      	bmi.n	800670c <HAL_RCCEx_PeriphCLKConfig+0x38>
          if ((HAL_GetTick() - tickstart) > RCC_LSE_TIMEOUT_VALUE)
 800679e:	f7fc fd75 	bl	800328c <HAL_GetTick>
 80067a2:	1bc0      	subs	r0, r0, r7
 80067a4:	4540      	cmp	r0, r8
 80067a6:	d9f7      	bls.n	8006798 <HAL_RCCEx_PeriphCLKConfig+0xc4>
 80067a8:	e7db      	b.n	8006762 <HAL_RCCEx_PeriphCLKConfig+0x8e>
    __HAL_RCC_USB_CONFIG(PeriphClkInit->UsbClockSelection);
 80067aa:	4a04      	ldr	r2, [pc, #16]	@ (80067bc <HAL_RCCEx_PeriphCLKConfig+0xe8>)
 80067ac:	68e9      	ldr	r1, [r5, #12]
 80067ae:	6853      	ldr	r3, [r2, #4]
 80067b0:	f423 0380 	bic.w	r3, r3, #4194304	@ 0x400000
 80067b4:	430b      	orrs	r3, r1
 80067b6:	6053      	str	r3, [r2, #4]
 80067b8:	e7bf      	b.n	800673a <HAL_RCCEx_PeriphCLKConfig+0x66>
 80067ba:	bf00      	nop
 80067bc:	40021000 	.word	0x40021000
 80067c0:	40007000 	.word	0x40007000
 80067c4:	42420000 	.word	0x42420000

080067c8 <TIM_OC1_SetConfig>:
  uint32_t tmpccmrx;
  uint32_t tmpccer;
  uint32_t tmpcr2;

  /* Get the TIMx CCER register value */
  tmpccer = TIMx->CCER;
 80067c8:	6a03      	ldr	r3, [r0, #32]

  /* Disable the Channel 1: Reset the CC1E Bit */
  TIMx->CCER &= ~TIM_CCER_CC1E;
 80067ca:	6a02      	ldr	r2, [r0, #32]
{
 80067cc:	b570      	push	{r4, r5, r6, lr}
  TIMx->CCER &= ~TIM_CCER_CC1E;
 80067ce:	f022 0201 	bic.w	r2, r2, #1
 80067d2:	6202      	str	r2, [r0, #32]

  /* Get the TIMx CR2 register value */
  tmpcr2 =  TIMx->CR2;
 80067d4:	6844      	ldr	r4, [r0, #4]

  /* Get the TIMx CCMR1 register value */
  tmpccmrx = TIMx->CCMR1;
 80067d6:	6982      	ldr	r2, [r0, #24]

  /* Reset the Output Compare Mode Bits */
  tmpccmrx &= ~TIM_CCMR1_OC1M;
  tmpccmrx &= ~TIM_CCMR1_CC1S;
  /* Select the Output Compare Mode */
  tmpccmrx |= OC_Config->OCMode;
 80067d8:	680d      	ldr	r5, [r1, #0]
  tmpccmrx &= ~TIM_CCMR1_CC1S;
 80067da:	f022 0273 	bic.w	r2, r2, #115	@ 0x73
  tmpccmrx |= OC_Config->OCMode;
 80067de:	432a      	orrs	r2, r5

  /* Reset the Output Polarity level */
  tmpccer &= ~TIM_CCER_CC1P;
  /* Set the Output Compare Polarity */
  tmpccer |= OC_Config->OCPolarity;
 80067e0:	688d      	ldr	r5, [r1, #8]
  tmpccer &= ~TIM_CCER_CC1P;
 80067e2:	f023 0302 	bic.w	r3, r3, #2
  tmpccer |= OC_Config->OCPolarity;
 80067e6:	432b      	orrs	r3, r5

  if (IS_TIM_CCXN_INSTANCE(TIMx, TIM_CHANNEL_1))
 80067e8:	4d0a      	ldr	r5, [pc, #40]	@ (8006814 <TIM_OC1_SetConfig+0x4c>)
 80067ea:	42a8      	cmp	r0, r5
 80067ec:	d10b      	bne.n	8006806 <TIM_OC1_SetConfig+0x3e>
    assert_param(IS_TIM_OCN_POLARITY(OC_Config->OCNPolarity));

    /* Reset the Output N Polarity level */
    tmpccer &= ~TIM_CCER_CC1NP;
    /* Set the Output N Polarity */
    tmpccer |= OC_Config->OCNPolarity;
 80067ee:	68cd      	ldr	r5, [r1, #12]
    tmpccer &= ~TIM_CCER_CC1NP;
 80067f0:	f023 0308 	bic.w	r3, r3, #8
    tmpccer |= OC_Config->OCNPolarity;
 80067f4:	432b      	orrs	r3, r5
    assert_param(IS_TIM_OCNIDLE_STATE(OC_Config->OCNIdleState));
    assert_param(IS_TIM_OCIDLE_STATE(OC_Config->OCIdleState));

    /* Reset the Output Compare and Output Compare N IDLE State */
    tmpcr2 &= ~TIM_CR2_OIS1;
    tmpcr2 &= ~TIM_CR2_OIS1N;
 80067f6:	f424 7440 	bic.w	r4, r4, #768	@ 0x300
    /* Set the Output Idle state */
    tmpcr2 |= OC_Config->OCIdleState;
    /* Set the Output N Idle state */
    tmpcr2 |= OC_Config->OCNIdleState;
 80067fa:	e9d1 5605 	ldrd	r5, r6, [r1, #20]
 80067fe:	4335      	orrs	r5, r6
    tmpccer &= ~TIM_CCER_CC1NE;
 8006800:	f023 0304 	bic.w	r3, r3, #4
    tmpcr2 |= OC_Config->OCNIdleState;
 8006804:	432c      	orrs	r4, r5
  }

  /* Write to TIMx CR2 */
  TIMx->CR2 = tmpcr2;
 8006806:	6044      	str	r4, [r0, #4]

  /* Write to TIMx CCMR1 */
  TIMx->CCMR1 = tmpccmrx;
 8006808:	6182      	str	r2, [r0, #24]

  /* Set the Capture Compare Register value */
  TIMx->CCR1 = OC_Config->Pulse;
 800680a:	684a      	ldr	r2, [r1, #4]
 800680c:	6342      	str	r2, [r0, #52]	@ 0x34

  /* Write to TIMx CCER */
  TIMx->CCER = tmpccer;
 800680e:	6203      	str	r3, [r0, #32]
}
 8006810:	bd70      	pop	{r4, r5, r6, pc}
 8006812:	bf00      	nop
 8006814:	40012c00 	.word	0x40012c00

08006818 <TIM_OC3_SetConfig>:
  uint32_t tmpccmrx;
  uint32_t tmpccer;
  uint32_t tmpcr2;

  /* Get the TIMx CCER register value */
  tmpccer = TIMx->CCER;
 8006818:	6a03      	ldr	r3, [r0, #32]

  /* Disable the Channel 3: Reset the CC2E Bit */
  TIMx->CCER &= ~TIM_CCER_CC3E;
 800681a:	6a02      	ldr	r2, [r0, #32]
{
 800681c:	b570      	push	{r4, r5, r6, lr}
  TIMx->CCER &= ~TIM_CCER_CC3E;
 800681e:	f422 7280 	bic.w	r2, r2, #256	@ 0x100
 8006822:	6202      	str	r2, [r0, #32]

  /* Get the TIMx CR2 register value */
  tmpcr2 =  TIMx->CR2;
 8006824:	6844      	ldr	r4, [r0, #4]

  /* Get the TIMx CCMR2 register value */
  tmpccmrx = TIMx->CCMR2;
 8006826:	69c2      	ldr	r2, [r0, #28]

  /* Reset the Output Compare mode and Capture/Compare selection Bits */
  tmpccmrx &= ~TIM_CCMR2_OC3M;
  tmpccmrx &= ~TIM_CCMR2_CC3S;
  /* Select the Output Compare Mode */
  tmpccmrx |= OC_Config->OCMode;
 8006828:	680d      	ldr	r5, [r1, #0]
  tmpccmrx &= ~TIM_CCMR2_CC3S;
 800682a:	f022 0273 	bic.w	r2, r2, #115	@ 0x73
  tmpccmrx |= OC_Config->OCMode;
 800682e:	432a      	orrs	r2, r5

  /* Reset the Output Polarity level */
  tmpccer &= ~TIM_CCER_CC3P;
  /* Set the Output Compare Polarity */
  tmpccer |= (OC_Config->OCPolarity << 8U);
 8006830:	688d      	ldr	r5, [r1, #8]
  tmpccer &= ~TIM_CCER_CC3P;
 8006832:	f423 7300 	bic.w	r3, r3, #512	@ 0x200
  tmpccer |= (OC_Config->OCPolarity << 8U);
 8006836:	ea43 2305 	orr.w	r3, r3, r5, lsl #8

  if (IS_TIM_CCXN_INSTANCE(TIMx, TIM_CHANNEL_3))
 800683a:	4d0b      	ldr	r5, [pc, #44]	@ (8006868 <TIM_OC3_SetConfig+0x50>)
 800683c:	42a8      	cmp	r0, r5
 800683e:	d10d      	bne.n	800685c <TIM_OC3_SetConfig+0x44>
    assert_param(IS_TIM_OCN_POLARITY(OC_Config->OCNPolarity));

    /* Reset the Output N Polarity level */
    tmpccer &= ~TIM_CCER_CC3NP;
    /* Set the Output N Polarity */
    tmpccer |= (OC_Config->OCNPolarity << 8U);
 8006840:	68cd      	ldr	r5, [r1, #12]
    tmpccer &= ~TIM_CCER_CC3NP;
 8006842:	f423 6300 	bic.w	r3, r3, #2048	@ 0x800
    tmpccer |= (OC_Config->OCNPolarity << 8U);
 8006846:	ea43 2305 	orr.w	r3, r3, r5, lsl #8
    assert_param(IS_TIM_OCNIDLE_STATE(OC_Config->OCNIdleState));
    assert_param(IS_TIM_OCIDLE_STATE(OC_Config->OCIdleState));

    /* Reset the Output Compare and Output Compare N IDLE State */
    tmpcr2 &= ~TIM_CR2_OIS3;
    tmpcr2 &= ~TIM_CR2_OIS3N;
 800684a:	f424 5440 	bic.w	r4, r4, #12288	@ 0x3000
    /* Set the Output Idle state */
    tmpcr2 |= (OC_Config->OCIdleState << 4U);
    /* Set the Output N Idle state */
    tmpcr2 |= (OC_Config->OCNIdleState << 4U);
 800684e:	e9d1 5605 	ldrd	r5, r6, [r1, #20]
 8006852:	4335      	orrs	r5, r6
    tmpccer &= ~TIM_CCER_CC3NE;
 8006854:	f423 6380 	bic.w	r3, r3, #1024	@ 0x400
    tmpcr2 |= (OC_Config->OCNIdleState << 4U);
 8006858:	ea44 1405 	orr.w	r4, r4, r5, lsl #4
  }

  /* Write to TIMx CR2 */
  TIMx->CR2 = tmpcr2;
 800685c:	6044      	str	r4, [r0, #4]

  /* Write to TIMx CCMR2 */
  TIMx->CCMR2 = tmpccmrx;
 800685e:	61c2      	str	r2, [r0, #28]

  /* Set the Capture Compare Register value */
  TIMx->CCR3 = OC_Config->Pulse;
 8006860:	684a      	ldr	r2, [r1, #4]
 8006862:	63c2      	str	r2, [r0, #60]	@ 0x3c

  /* Write to TIMx CCER */
  TIMx->CCER = tmpccer;
 8006864:	6203      	str	r3, [r0, #32]
}
 8006866:	bd70      	pop	{r4, r5, r6, pc}
 8006868:	40012c00 	.word	0x40012c00

0800686c <TIM_OC4_SetConfig>:
  uint32_t tmpccmrx;
  uint32_t tmpccer;
  uint32_t tmpcr2;

  /* Get the TIMx CCER register value */
  tmpccer = TIMx->CCER;
 800686c:	6a03      	ldr	r3, [r0, #32]

  /* Disable the Channel 4: Reset the CC4E Bit */
  TIMx->CCER &= ~TIM_CCER_CC4E;
 800686e:	6a02      	ldr	r2, [r0, #32]
{
 8006870:	b530      	push	{r4, r5, lr}
  TIMx->CCER &= ~TIM_CCER_CC4E;
 8006872:	f422 5280 	bic.w	r2, r2, #4096	@ 0x1000
 8006876:	6202      	str	r2, [r0, #32]

  /* Get the TIMx CR2 register value */
  tmpcr2 =  TIMx->CR2;
 8006878:	6844      	ldr	r4, [r0, #4]

  /* Get the TIMx CCMR2 register value */
  tmpccmrx = TIMx->CCMR2;
 800687a:	69c2      	ldr	r2, [r0, #28]
  /* Reset the Output Compare mode and Capture/Compare selection Bits */
  tmpccmrx &= ~TIM_CCMR2_OC4M;
  tmpccmrx &= ~TIM_CCMR2_CC4S;

  /* Select the Output Compare Mode */
  tmpccmrx |= (OC_Config->OCMode << 8U);
 800687c:	680d      	ldr	r5, [r1, #0]
  tmpccmrx &= ~TIM_CCMR2_CC4S;
 800687e:	f422 42e6 	bic.w	r2, r2, #29440	@ 0x7300
  tmpccmrx |= (OC_Config->OCMode << 8U);
 8006882:	ea42 2205 	orr.w	r2, r2, r5, lsl #8

  /* Reset the Output Polarity level */
  tmpccer &= ~TIM_CCER_CC4P;
  /* Set the Output Compare Polarity */
  tmpccer |= (OC_Config->OCPolarity << 12U);
 8006886:	688d      	ldr	r5, [r1, #8]
  tmpccer &= ~TIM_CCER_CC4P;
 8006888:	f423 5300 	bic.w	r3, r3, #8192	@ 0x2000
  tmpccer |= (OC_Config->OCPolarity << 12U);
 800688c:	ea43 3305 	orr.w	r3, r3, r5, lsl #12

  if (IS_TIM_BREAK_INSTANCE(TIMx))
 8006890:	4d06      	ldr	r5, [pc, #24]	@ (80068ac <TIM_OC4_SetConfig+0x40>)
 8006892:	42a8      	cmp	r0, r5

    /* Reset the Output Compare IDLE State */
    tmpcr2 &= ~TIM_CR2_OIS4;

    /* Set the Output Idle state */
    tmpcr2 |= (OC_Config->OCIdleState << 6U);
 8006894:	bf02      	ittt	eq
 8006896:	694d      	ldreq	r5, [r1, #20]
    tmpcr2 &= ~TIM_CR2_OIS4;
 8006898:	f424 4480 	biceq.w	r4, r4, #16384	@ 0x4000
    tmpcr2 |= (OC_Config->OCIdleState << 6U);
 800689c:	ea44 1485 	orreq.w	r4, r4, r5, lsl #6
  }

  /* Write to TIMx CR2 */
  TIMx->CR2 = tmpcr2;
 80068a0:	6044      	str	r4, [r0, #4]

  /* Write to TIMx CCMR2 */
  TIMx->CCMR2 = tmpccmrx;
 80068a2:	61c2      	str	r2, [r0, #28]

  /* Set the Capture Compare Register value */
  TIMx->CCR4 = OC_Config->Pulse;
 80068a4:	684a      	ldr	r2, [r1, #4]
 80068a6:	6402      	str	r2, [r0, #64]	@ 0x40

  /* Write to TIMx CCER */
  TIMx->CCER = tmpccer;
 80068a8:	6203      	str	r3, [r0, #32]
}
 80068aa:	bd30      	pop	{r4, r5, pc}
 80068ac:	40012c00 	.word	0x40012c00

080068b0 <HAL_TIM_Base_Start_IT>:
  if (htim->State != HAL_TIM_STATE_READY)
 80068b0:	f890 303d 	ldrb.w	r3, [r0, #61]	@ 0x3d
 80068b4:	2b01      	cmp	r3, #1
 80068b6:	d120      	bne.n	80068fa <HAL_TIM_Base_Start_IT+0x4a>
  htim->State = HAL_TIM_STATE_BUSY;
 80068b8:	2302      	movs	r3, #2
 80068ba:	f880 303d 	strb.w	r3, [r0, #61]	@ 0x3d
  __HAL_TIM_ENABLE_IT(htim, TIM_IT_UPDATE);
 80068be:	6803      	ldr	r3, [r0, #0]
 80068c0:	68da      	ldr	r2, [r3, #12]
 80068c2:	f042 0201 	orr.w	r2, r2, #1
 80068c6:	60da      	str	r2, [r3, #12]
  if (IS_TIM_SLAVE_INSTANCE(htim->Instance))
 80068c8:	4a0d      	ldr	r2, [pc, #52]	@ (8006900 <HAL_TIM_Base_Start_IT+0x50>)
 80068ca:	4293      	cmp	r3, r2
 80068cc:	d00a      	beq.n	80068e4 <HAL_TIM_Base_Start_IT+0x34>
 80068ce:	f1b3 4f80 	cmp.w	r3, #1073741824	@ 0x40000000
 80068d2:	d007      	beq.n	80068e4 <HAL_TIM_Base_Start_IT+0x34>
 80068d4:	f5a2 3294 	sub.w	r2, r2, #75776	@ 0x12800
 80068d8:	4293      	cmp	r3, r2
 80068da:	d003      	beq.n	80068e4 <HAL_TIM_Base_Start_IT+0x34>
 80068dc:	f502 6280 	add.w	r2, r2, #1024	@ 0x400
 80068e0:	4293      	cmp	r3, r2
 80068e2:	d104      	bne.n	80068ee <HAL_TIM_Base_Start_IT+0x3e>
    tmpsmcr = htim->Instance->SMCR & TIM_SMCR_SMS;
 80068e4:	689a      	ldr	r2, [r3, #8]
 80068e6:	f002 0207 	and.w	r2, r2, #7
    if (!IS_TIM_SLAVEMODE_TRIGGER_ENABLED(tmpsmcr))
 80068ea:	2a06      	cmp	r2, #6
 80068ec:	d003      	beq.n	80068f6 <HAL_TIM_Base_Start_IT+0x46>
      __HAL_TIM_ENABLE(htim);
 80068ee:	681a      	ldr	r2, [r3, #0]
 80068f0:	f042 0201 	orr.w	r2, r2, #1
 80068f4:	601a      	str	r2, [r3, #0]
  return HAL_OK;
 80068f6:	2000      	movs	r0, #0
 80068f8:	4770      	bx	lr
    return HAL_ERROR;
 80068fa:	2001      	movs	r0, #1
}
 80068fc:	4770      	bx	lr
 80068fe:	bf00      	nop
 8006900:	40012c00 	.word	0x40012c00

08006904 <HAL_TIM_PWM_MspInit>:
__weak void HAL_TIM_PWM_MspInit(TIM_HandleTypeDef *htim)
 8006904:	4770      	bx	lr

08006906 <HAL_TIM_OC_DelayElapsedCallback>:
__weak void HAL_TIM_OC_DelayElapsedCallback(TIM_HandleTypeDef *htim)
 8006906:	4770      	bx	lr

08006908 <HAL_TIM_IC_CaptureCallback>:
__weak void HAL_TIM_IC_CaptureCallback(TIM_HandleTypeDef *htim)
 8006908:	4770      	bx	lr

0800690a <HAL_TIM_PWM_PulseFinishedCallback>:
__weak void HAL_TIM_PWM_PulseFinishedCallback(TIM_HandleTypeDef *htim)
 800690a:	4770      	bx	lr

0800690c <HAL_TIM_TriggerCallback>:
__weak void HAL_TIM_TriggerCallback(TIM_HandleTypeDef *htim)
 800690c:	4770      	bx	lr

0800690e <HAL_TIM_IRQHandler>:
  uint32_t itsource = htim->Instance->DIER;
 800690e:	6803      	ldr	r3, [r0, #0]
{
 8006910:	b570      	push	{r4, r5, r6, lr}
  uint32_t itsource = htim->Instance->DIER;
 8006912:	68dd      	ldr	r5, [r3, #12]
  uint32_t itflag   = htim->Instance->SR;
 8006914:	691e      	ldr	r6, [r3, #16]
{
 8006916:	4604      	mov	r4, r0
  if ((itflag & (TIM_FLAG_CC1)) == (TIM_FLAG_CC1))
 8006918:	07b1      	lsls	r1, r6, #30
 800691a:	d50d      	bpl.n	8006938 <HAL_TIM_IRQHandler+0x2a>
    if ((itsource & (TIM_IT_CC1)) == (TIM_IT_CC1))
 800691c:	07aa      	lsls	r2, r5, #30
 800691e:	d50b      	bpl.n	8006938 <HAL_TIM_IRQHandler+0x2a>
        __HAL_TIM_CLEAR_FLAG(htim, TIM_FLAG_CC1);
 8006920:	f06f 0202 	mvn.w	r2, #2
 8006924:	611a      	str	r2, [r3, #16]
        htim->Channel = HAL_TIM_ACTIVE_CHANNEL_1;
 8006926:	2201      	movs	r2, #1
 8006928:	7702      	strb	r2, [r0, #28]
        if ((htim->Instance->CCMR1 & TIM_CCMR1_CC1S) != 0x00U)
 800692a:	699b      	ldr	r3, [r3, #24]
 800692c:	079b      	lsls	r3, r3, #30
 800692e:	d069      	beq.n	8006a04 <HAL_TIM_IRQHandler+0xf6>
          HAL_TIM_IC_CaptureCallback(htim);
 8006930:	f7ff ffea 	bl	8006908 <HAL_TIM_IC_CaptureCallback>
        htim->Channel = HAL_TIM_ACTIVE_CHANNEL_CLEARED;
 8006934:	2300      	movs	r3, #0
 8006936:	7723      	strb	r3, [r4, #28]
  if ((itflag & (TIM_FLAG_CC2)) == (TIM_FLAG_CC2))
 8006938:	0771      	lsls	r1, r6, #29
 800693a:	d510      	bpl.n	800695e <HAL_TIM_IRQHandler+0x50>
    if ((itsource & (TIM_IT_CC2)) == (TIM_IT_CC2))
 800693c:	076a      	lsls	r2, r5, #29
 800693e:	d50e      	bpl.n	800695e <HAL_TIM_IRQHandler+0x50>
      __HAL_TIM_CLEAR_FLAG(htim, TIM_FLAG_CC2);
 8006940:	f06f 0204 	mvn.w	r2, #4
 8006944:	6823      	ldr	r3, [r4, #0]
        HAL_TIM_IC_CaptureCallback(htim);
 8006946:	4620      	mov	r0, r4
      __HAL_TIM_CLEAR_FLAG(htim, TIM_FLAG_CC2);
 8006948:	611a      	str	r2, [r3, #16]
      htim->Channel = HAL_TIM_ACTIVE_CHANNEL_2;
 800694a:	2202      	movs	r2, #2
 800694c:	7722      	strb	r2, [r4, #28]
      if ((htim->Instance->CCMR1 & TIM_CCMR1_CC2S) != 0x00U)
 800694e:	699b      	ldr	r3, [r3, #24]
 8006950:	f413 7f40 	tst.w	r3, #768	@ 0x300
 8006954:	d05c      	beq.n	8006a10 <HAL_TIM_IRQHandler+0x102>
        HAL_TIM_IC_CaptureCallback(htim);
 8006956:	f7ff ffd7 	bl	8006908 <HAL_TIM_IC_CaptureCallback>
      htim->Channel = HAL_TIM_ACTIVE_CHANNEL_CLEARED;
 800695a:	2300      	movs	r3, #0
 800695c:	7723      	strb	r3, [r4, #28]
  if ((itflag & (TIM_FLAG_CC3)) == (TIM_FLAG_CC3))
 800695e:	0733      	lsls	r3, r6, #28
 8006960:	d50f      	bpl.n	8006982 <HAL_TIM_IRQHandler+0x74>
    if ((itsource & (TIM_IT_CC3)) == (TIM_IT_CC3))
 8006962:	0728      	lsls	r0, r5, #28
 8006964:	d50d      	bpl.n	8006982 <HAL_TIM_IRQHandler+0x74>
      __HAL_TIM_CLEAR_FLAG(htim, TIM_FLAG_CC3);
 8006966:	f06f 0208 	mvn.w	r2, #8
 800696a:	6823      	ldr	r3, [r4, #0]
        HAL_TIM_IC_CaptureCallback(htim);
 800696c:	4620      	mov	r0, r4
      __HAL_TIM_CLEAR_FLAG(htim, TIM_FLAG_CC3);
 800696e:	611a      	str	r2, [r3, #16]
      htim->Channel = HAL_TIM_ACTIVE_CHANNEL_3;
 8006970:	2204      	movs	r2, #4
 8006972:	7722      	strb	r2, [r4, #28]
      if ((htim->Instance->CCMR2 & TIM_CCMR2_CC3S) != 0x00U)
 8006974:	69db      	ldr	r3, [r3, #28]
 8006976:	0799      	lsls	r1, r3, #30
 8006978:	d050      	beq.n	8006a1c <HAL_TIM_IRQHandler+0x10e>
        HAL_TIM_IC_CaptureCallback(htim);
 800697a:	f7ff ffc5 	bl	8006908 <HAL_TIM_IC_CaptureCallback>
      htim->Channel = HAL_TIM_ACTIVE_CHANNEL_CLEARED;
 800697e:	2300      	movs	r3, #0
 8006980:	7723      	strb	r3, [r4, #28]
  if ((itflag & (TIM_FLAG_CC4)) == (TIM_FLAG_CC4))
 8006982:	06f2      	lsls	r2, r6, #27
 8006984:	d510      	bpl.n	80069a8 <HAL_TIM_IRQHandler+0x9a>
    if ((itsource & (TIM_IT_CC4)) == (TIM_IT_CC4))
 8006986:	06eb      	lsls	r3, r5, #27
 8006988:	d50e      	bpl.n	80069a8 <HAL_TIM_IRQHandler+0x9a>
      __HAL_TIM_CLEAR_FLAG(htim, TIM_FLAG_CC4);
 800698a:	f06f 0210 	mvn.w	r2, #16
 800698e:	6823      	ldr	r3, [r4, #0]
        HAL_TIM_IC_CaptureCallback(htim);
 8006990:	4620      	mov	r0, r4
      __HAL_TIM_CLEAR_FLAG(htim, TIM_FLAG_CC4);
 8006992:	611a      	str	r2, [r3, #16]
      htim->Channel = HAL_TIM_ACTIVE_CHANNEL_4;
 8006994:	2208      	movs	r2, #8
 8006996:	7722      	strb	r2, [r4, #28]
      if ((htim->Instance->CCMR2 & TIM_CCMR2_CC4S) != 0x00U)
 8006998:	69db      	ldr	r3, [r3, #28]
 800699a:	f413 7f40 	tst.w	r3, #768	@ 0x300
 800699e:	d043      	beq.n	8006a28 <HAL_TIM_IRQHandler+0x11a>
        HAL_TIM_IC_CaptureCallback(htim);
 80069a0:	f7ff ffb2 	bl	8006908 <HAL_TIM_IC_CaptureCallback>
      htim->Channel = HAL_TIM_ACTIVE_CHANNEL_CLEARED;
 80069a4:	2300      	movs	r3, #0
 80069a6:	7723      	strb	r3, [r4, #28]
  if ((itflag & (TIM_FLAG_UPDATE)) == (TIM_FLAG_UPDATE))
 80069a8:	07f0      	lsls	r0, r6, #31
 80069aa:	d508      	bpl.n	80069be <HAL_TIM_IRQHandler+0xb0>
    if ((itsource & (TIM_IT_UPDATE)) == (TIM_IT_UPDATE))
 80069ac:	07e9      	lsls	r1, r5, #31
 80069ae:	d506      	bpl.n	80069be <HAL_TIM_IRQHandler+0xb0>
      __HAL_TIM_CLEAR_FLAG(htim, TIM_FLAG_UPDATE);
 80069b0:	f06f 0201 	mvn.w	r2, #1
 80069b4:	6823      	ldr	r3, [r4, #0]
      HAL_TIM_PeriodElapsedCallback(htim);
 80069b6:	4620      	mov	r0, r4
      __HAL_TIM_CLEAR_FLAG(htim, TIM_FLAG_UPDATE);
 80069b8:	611a      	str	r2, [r3, #16]
      HAL_TIM_PeriodElapsedCallback(htim);
 80069ba:	f7fa fac7 	bl	8000f4c <HAL_TIM_PeriodElapsedCallback>
  if ((itflag & (TIM_FLAG_BREAK)) == (TIM_FLAG_BREAK))
 80069be:	0632      	lsls	r2, r6, #24
 80069c0:	d508      	bpl.n	80069d4 <HAL_TIM_IRQHandler+0xc6>
    if ((itsource & (TIM_IT_BREAK)) == (TIM_IT_BREAK))
 80069c2:	062b      	lsls	r3, r5, #24
 80069c4:	d506      	bpl.n	80069d4 <HAL_TIM_IRQHandler+0xc6>
      __HAL_TIM_CLEAR_FLAG(htim, TIM_FLAG_BREAK);
 80069c6:	f06f 0280 	mvn.w	r2, #128	@ 0x80
 80069ca:	6823      	ldr	r3, [r4, #0]
      HAL_TIMEx_BreakCallback(htim);
 80069cc:	4620      	mov	r0, r4
      __HAL_TIM_CLEAR_FLAG(htim, TIM_FLAG_BREAK);
 80069ce:	611a      	str	r2, [r3, #16]
      HAL_TIMEx_BreakCallback(htim);
 80069d0:	f000 faf5 	bl	8006fbe <HAL_TIMEx_BreakCallback>
  if ((itflag & (TIM_FLAG_TRIGGER)) == (TIM_FLAG_TRIGGER))
 80069d4:	0670      	lsls	r0, r6, #25
 80069d6:	d508      	bpl.n	80069ea <HAL_TIM_IRQHandler+0xdc>
    if ((itsource & (TIM_IT_TRIGGER)) == (TIM_IT_TRIGGER))
 80069d8:	0669      	lsls	r1, r5, #25
 80069da:	d506      	bpl.n	80069ea <HAL_TIM_IRQHandler+0xdc>
      __HAL_TIM_CLEAR_FLAG(htim, TIM_FLAG_TRIGGER);
 80069dc:	f06f 0240 	mvn.w	r2, #64	@ 0x40
 80069e0:	6823      	ldr	r3, [r4, #0]
      HAL_TIM_TriggerCallback(htim);
 80069e2:	4620      	mov	r0, r4
      __HAL_TIM_CLEAR_FLAG(htim, TIM_FLAG_TRIGGER);
 80069e4:	611a      	str	r2, [r3, #16]
      HAL_TIM_TriggerCallback(htim);
 80069e6:	f7ff ff91 	bl	800690c <HAL_TIM_TriggerCallback>
  if ((itflag & (TIM_FLAG_COM)) == (TIM_FLAG_COM))
 80069ea:	06b2      	lsls	r2, r6, #26
 80069ec:	d522      	bpl.n	8006a34 <HAL_TIM_IRQHandler+0x126>
    if ((itsource & (TIM_IT_COM)) == (TIM_IT_COM))
 80069ee:	06ab      	lsls	r3, r5, #26
 80069f0:	d520      	bpl.n	8006a34 <HAL_TIM_IRQHandler+0x126>
      __HAL_TIM_CLEAR_FLAG(htim, TIM_FLAG_COM);
 80069f2:	f06f 0220 	mvn.w	r2, #32
 80069f6:	6823      	ldr	r3, [r4, #0]
      HAL_TIMEx_CommutCallback(htim);
 80069f8:	4620      	mov	r0, r4
}
 80069fa:	e8bd 4070 	ldmia.w	sp!, {r4, r5, r6, lr}
      __HAL_TIM_CLEAR_FLAG(htim, TIM_FLAG_COM);
 80069fe:	611a      	str	r2, [r3, #16]
      HAL_TIMEx_CommutCallback(htim);
 8006a00:	f000 badc 	b.w	8006fbc <HAL_TIMEx_CommutCallback>
          HAL_TIM_OC_DelayElapsedCallback(htim);
 8006a04:	f7ff ff7f 	bl	8006906 <HAL_TIM_OC_DelayElapsedCallback>
          HAL_TIM_PWM_PulseFinishedCallback(htim);
 8006a08:	4620      	mov	r0, r4
 8006a0a:	f7ff ff7e 	bl	800690a <HAL_TIM_PWM_PulseFinishedCallback>
 8006a0e:	e791      	b.n	8006934 <HAL_TIM_IRQHandler+0x26>
        HAL_TIM_OC_DelayElapsedCallback(htim);
 8006a10:	f7ff ff79 	bl	8006906 <HAL_TIM_OC_DelayElapsedCallback>
        HAL_TIM_PWM_PulseFinishedCallback(htim);
 8006a14:	4620      	mov	r0, r4
 8006a16:	f7ff ff78 	bl	800690a <HAL_TIM_PWM_PulseFinishedCallback>
 8006a1a:	e79e      	b.n	800695a <HAL_TIM_IRQHandler+0x4c>
        HAL_TIM_OC_DelayElapsedCallback(htim);
 8006a1c:	f7ff ff73 	bl	8006906 <HAL_TIM_OC_DelayElapsedCallback>
        HAL_TIM_PWM_PulseFinishedCallback(htim);
 8006a20:	4620      	mov	r0, r4
 8006a22:	f7ff ff72 	bl	800690a <HAL_TIM_PWM_PulseFinishedCallback>
 8006a26:	e7aa      	b.n	800697e <HAL_TIM_IRQHandler+0x70>
        HAL_TIM_OC_DelayElapsedCallback(htim);
 8006a28:	f7ff ff6d 	bl	8006906 <HAL_TIM_OC_DelayElapsedCallback>
        HAL_TIM_PWM_PulseFinishedCallback(htim);
 8006a2c:	4620      	mov	r0, r4
 8006a2e:	f7ff ff6c 	bl	800690a <HAL_TIM_PWM_PulseFinishedCallback>
 8006a32:	e7b7      	b.n	80069a4 <HAL_TIM_IRQHandler+0x96>
}
 8006a34:	bd70      	pop	{r4, r5, r6, pc}
	...

08006a38 <TIM_Base_SetConfig>:
  if (IS_TIM_COUNTER_MODE_SELECT_INSTANCE(TIMx))
 8006a38:	4a17      	ldr	r2, [pc, #92]	@ (8006a98 <TIM_Base_SetConfig+0x60>)
  tmpcr1 = TIMx->CR1;
 8006a3a:	6803      	ldr	r3, [r0, #0]
  if (IS_TIM_COUNTER_MODE_SELECT_INSTANCE(TIMx))
 8006a3c:	4290      	cmp	r0, r2
 8006a3e:	d00a      	beq.n	8006a56 <TIM_Base_SetConfig+0x1e>
 8006a40:	f1b0 4f80 	cmp.w	r0, #1073741824	@ 0x40000000
 8006a44:	d007      	beq.n	8006a56 <TIM_Base_SetConfig+0x1e>
 8006a46:	f5a2 3294 	sub.w	r2, r2, #75776	@ 0x12800
 8006a4a:	4290      	cmp	r0, r2
 8006a4c:	d003      	beq.n	8006a56 <TIM_Base_SetConfig+0x1e>
 8006a4e:	f502 6280 	add.w	r2, r2, #1024	@ 0x400
 8006a52:	4290      	cmp	r0, r2
 8006a54:	d107      	bne.n	8006a66 <TIM_Base_SetConfig+0x2e>
    tmpcr1 |= Structure->CounterMode;
 8006a56:	684a      	ldr	r2, [r1, #4]
    tmpcr1 &= ~(TIM_CR1_DIR | TIM_CR1_CMS);
 8006a58:	f023 0370 	bic.w	r3, r3, #112	@ 0x70
    tmpcr1 |= Structure->CounterMode;
 8006a5c:	4313      	orrs	r3, r2
    tmpcr1 |= (uint32_t)Structure->ClockDivision;
 8006a5e:	68ca      	ldr	r2, [r1, #12]
    tmpcr1 &= ~TIM_CR1_CKD;
 8006a60:	f423 7340 	bic.w	r3, r3, #768	@ 0x300
    tmpcr1 |= (uint32_t)Structure->ClockDivision;
 8006a64:	4313      	orrs	r3, r2
  MODIFY_REG(tmpcr1, TIM_CR1_ARPE, Structure->AutoReloadPreload);
 8006a66:	694a      	ldr	r2, [r1, #20]
 8006a68:	f023 0380 	bic.w	r3, r3, #128	@ 0x80
 8006a6c:	4313      	orrs	r3, r2
  TIMx->CR1 = tmpcr1;
 8006a6e:	6003      	str	r3, [r0, #0]
  TIMx->ARR = (uint32_t)Structure->Period ;
 8006a70:	688b      	ldr	r3, [r1, #8]
 8006a72:	62c3      	str	r3, [r0, #44]	@ 0x2c
  TIMx->PSC = Structure->Prescaler;
 8006a74:	680b      	ldr	r3, [r1, #0]
 8006a76:	6283      	str	r3, [r0, #40]	@ 0x28
  if (IS_TIM_REPETITION_COUNTER_INSTANCE(TIMx))
 8006a78:	4b07      	ldr	r3, [pc, #28]	@ (8006a98 <TIM_Base_SetConfig+0x60>)
 8006a7a:	4298      	cmp	r0, r3
    TIMx->RCR = Structure->RepetitionCounter;
 8006a7c:	bf04      	itt	eq
 8006a7e:	690b      	ldreq	r3, [r1, #16]
 8006a80:	6303      	streq	r3, [r0, #48]	@ 0x30
  TIMx->EGR = TIM_EGR_UG;
 8006a82:	2301      	movs	r3, #1
 8006a84:	6143      	str	r3, [r0, #20]
  if (HAL_IS_BIT_SET(TIMx->SR, TIM_FLAG_UPDATE))
 8006a86:	6903      	ldr	r3, [r0, #16]
 8006a88:	07db      	lsls	r3, r3, #31
    CLEAR_BIT(TIMx->SR, TIM_FLAG_UPDATE);
 8006a8a:	bf42      	ittt	mi
 8006a8c:	6903      	ldrmi	r3, [r0, #16]
 8006a8e:	f023 0301 	bicmi.w	r3, r3, #1
 8006a92:	6103      	strmi	r3, [r0, #16]
}
 8006a94:	4770      	bx	lr
 8006a96:	bf00      	nop
 8006a98:	40012c00 	.word	0x40012c00

08006a9c <HAL_TIM_Base_Init>:
{
 8006a9c:	b510      	push	{r4, lr}
  if (htim == NULL)
 8006a9e:	4604      	mov	r4, r0
 8006aa0:	b330      	cbz	r0, 8006af0 <HAL_TIM_Base_Init+0x54>
  if (htim->State == HAL_TIM_STATE_RESET)
 8006aa2:	f890 303d 	ldrb.w	r3, [r0, #61]	@ 0x3d
 8006aa6:	f003 02ff 	and.w	r2, r3, #255	@ 0xff
 8006aaa:	b91b      	cbnz	r3, 8006ab4 <HAL_TIM_Base_Init+0x18>
    htim->Lock = HAL_UNLOCKED;
 8006aac:	f880 203c 	strb.w	r2, [r0, #60]	@ 0x3c
    HAL_TIM_Base_MspInit(htim);
 8006ab0:	f7fc f922 	bl	8002cf8 <HAL_TIM_Base_MspInit>
  htim->State = HAL_TIM_STATE_BUSY;
 8006ab4:	2302      	movs	r3, #2
  TIM_Base_SetConfig(htim->Instance, &htim->Init);
 8006ab6:	6820      	ldr	r0, [r4, #0]
  htim->State = HAL_TIM_STATE_BUSY;
 8006ab8:	f884 303d 	strb.w	r3, [r4, #61]	@ 0x3d
  TIM_Base_SetConfig(htim->Instance, &htim->Init);
 8006abc:	1d21      	adds	r1, r4, #4
 8006abe:	f7ff ffbb 	bl	8006a38 <TIM_Base_SetConfig>
  htim->DMABurstState = HAL_DMA_BURST_STATE_READY;
 8006ac2:	2301      	movs	r3, #1
  return HAL_OK;
 8006ac4:	2000      	movs	r0, #0
  htim->DMABurstState = HAL_DMA_BURST_STATE_READY;
 8006ac6:	f884 3046 	strb.w	r3, [r4, #70]	@ 0x46
  TIM_CHANNEL_STATE_SET_ALL(htim, HAL_TIM_CHANNEL_STATE_READY);
 8006aca:	f884 303e 	strb.w	r3, [r4, #62]	@ 0x3e
 8006ace:	f884 303f 	strb.w	r3, [r4, #63]	@ 0x3f
 8006ad2:	f884 3040 	strb.w	r3, [r4, #64]	@ 0x40
 8006ad6:	f884 3041 	strb.w	r3, [r4, #65]	@ 0x41
  TIM_CHANNEL_N_STATE_SET_ALL(htim, HAL_TIM_CHANNEL_STATE_READY);
 8006ada:	f884 3042 	strb.w	r3, [r4, #66]	@ 0x42
 8006ade:	f884 3043 	strb.w	r3, [r4, #67]	@ 0x43
 8006ae2:	f884 3044 	strb.w	r3, [r4, #68]	@ 0x44
 8006ae6:	f884 3045 	strb.w	r3, [r4, #69]	@ 0x45
  htim->State = HAL_TIM_STATE_READY;
 8006aea:	f884 303d 	strb.w	r3, [r4, #61]	@ 0x3d
}
 8006aee:	bd10      	pop	{r4, pc}
    return HAL_ERROR;
 8006af0:	2001      	movs	r0, #1
 8006af2:	e7fc      	b.n	8006aee <HAL_TIM_Base_Init+0x52>

08006af4 <HAL_TIM_PWM_Init>:
{
 8006af4:	b510      	push	{r4, lr}
  if (htim == NULL)
 8006af6:	4604      	mov	r4, r0
 8006af8:	b330      	cbz	r0, 8006b48 <HAL_TIM_PWM_Init+0x54>
  if (htim->State == HAL_TIM_STATE_RESET)
 8006afa:	f890 303d 	ldrb.w	r3, [r0, #61]	@ 0x3d
 8006afe:	f003 02ff 	and.w	r2, r3, #255	@ 0xff
 8006b02:	b91b      	cbnz	r3, 8006b0c <HAL_TIM_PWM_Init+0x18>
    htim->Lock = HAL_UNLOCKED;
 8006b04:	f880 203c 	strb.w	r2, [r0, #60]	@ 0x3c
    HAL_TIM_PWM_MspInit(htim);
 8006b08:	f7ff fefc 	bl	8006904 <HAL_TIM_PWM_MspInit>
  htim->State = HAL_TIM_STATE_BUSY;
 8006b0c:	2302      	movs	r3, #2
  TIM_Base_SetConfig(htim->Instance, &htim->Init);
 8006b0e:	6820      	ldr	r0, [r4, #0]
  htim->State = HAL_TIM_STATE_BUSY;
 8006b10:	f884 303d 	strb.w	r3, [r4, #61]	@ 0x3d
  TIM_Base_SetConfig(htim->Instance, &htim->Init);
 8006b14:	1d21      	adds	r1, r4, #4
 8006b16:	f7ff ff8f 	bl	8006a38 <TIM_Base_SetConfig>
  htim->DMABurstState = HAL_DMA_BURST_STATE_READY;
 8006b1a:	2301      	movs	r3, #1
  return HAL_OK;
 8006b1c:	2000      	movs	r0, #0
  htim->DMABurstState = HAL_DMA_BURST_STATE_READY;
 8006b1e:	f884 3046 	strb.w	r3, [r4, #70]	@ 0x46
  TIM_CHANNEL_STATE_SET_ALL(htim, HAL_TIM_CHANNEL_STATE_READY);
 8006b22:	f884 303e 	strb.w	r3, [r4, #62]	@ 0x3e
 8006b26:	f884 303f 	strb.w	r3, [r4, #63]	@ 0x3f
 8006b2a:	f884 3040 	strb.w	r3, [r4, #64]	@ 0x40
 8006b2e:	f884 3041 	strb.w	r3, [r4, #65]	@ 0x41
  TIM_CHANNEL_N_STATE_SET_ALL(htim, HAL_TIM_CHANNEL_STATE_READY);
 8006b32:	f884 3042 	strb.w	r3, [r4, #66]	@ 0x42
 8006b36:	f884 3043 	strb.w	r3, [r4, #67]	@ 0x43
 8006b3a:	f884 3044 	strb.w	r3, [r4, #68]	@ 0x44
 8006b3e:	f884 3045 	strb.w	r3, [r4, #69]	@ 0x45
  htim->State = HAL_TIM_STATE_READY;
 8006b42:	f884 303d 	strb.w	r3, [r4, #61]	@ 0x3d
}
 8006b46:	bd10      	pop	{r4, pc}
    return HAL_ERROR;
 8006b48:	2001      	movs	r0, #1
 8006b4a:	e7fc      	b.n	8006b46 <HAL_TIM_PWM_Init+0x52>

08006b4c <TIM_OC2_SetConfig>:
  tmpccer = TIMx->CCER;
 8006b4c:	6a03      	ldr	r3, [r0, #32]
  TIMx->CCER &= ~TIM_CCER_CC2E;
 8006b4e:	6a02      	ldr	r2, [r0, #32]
{
 8006b50:	b570      	push	{r4, r5, r6, lr}
  TIMx->CCER &= ~TIM_CCER_CC2E;
 8006b52:	f022 0210 	bic.w	r2, r2, #16
 8006b56:	6202      	str	r2, [r0, #32]
  tmpcr2 =  TIMx->CR2;
 8006b58:	6844      	ldr	r4, [r0, #4]
  tmpccmrx = TIMx->CCMR1;
 8006b5a:	6982      	ldr	r2, [r0, #24]
  tmpccmrx |= (OC_Config->OCMode << 8U);
 8006b5c:	680d      	ldr	r5, [r1, #0]
  tmpccmrx &= ~TIM_CCMR1_CC2S;
 8006b5e:	f422 42e6 	bic.w	r2, r2, #29440	@ 0x7300
  tmpccmrx |= (OC_Config->OCMode << 8U);
 8006b62:	ea42 2205 	orr.w	r2, r2, r5, lsl #8
  tmpccer |= (OC_Config->OCPolarity << 4U);
 8006b66:	688d      	ldr	r5, [r1, #8]
  tmpccer &= ~TIM_CCER_CC2P;
 8006b68:	f023 0320 	bic.w	r3, r3, #32
  tmpccer |= (OC_Config->OCPolarity << 4U);
 8006b6c:	ea43 1305 	orr.w	r3, r3, r5, lsl #4
  if (IS_TIM_CCXN_INSTANCE(TIMx, TIM_CHANNEL_2))
 8006b70:	4d0b      	ldr	r5, [pc, #44]	@ (8006ba0 <TIM_OC2_SetConfig+0x54>)
 8006b72:	42a8      	cmp	r0, r5
 8006b74:	d10d      	bne.n	8006b92 <TIM_OC2_SetConfig+0x46>
    tmpccer |= (OC_Config->OCNPolarity << 4U);
 8006b76:	68cd      	ldr	r5, [r1, #12]
    tmpccer &= ~TIM_CCER_CC2NP;
 8006b78:	f023 0380 	bic.w	r3, r3, #128	@ 0x80
    tmpccer |= (OC_Config->OCNPolarity << 4U);
 8006b7c:	ea43 1305 	orr.w	r3, r3, r5, lsl #4
    tmpcr2 &= ~TIM_CR2_OIS2N;
 8006b80:	f424 6440 	bic.w	r4, r4, #3072	@ 0xc00
    tmpcr2 |= (OC_Config->OCNIdleState << 2U);
 8006b84:	e9d1 5605 	ldrd	r5, r6, [r1, #20]
 8006b88:	4335      	orrs	r5, r6
    tmpccer &= ~TIM_CCER_CC2NE;
 8006b8a:	f023 0340 	bic.w	r3, r3, #64	@ 0x40
    tmpcr2 |= (OC_Config->OCNIdleState << 2U);
 8006b8e:	ea44 0485 	orr.w	r4, r4, r5, lsl #2
  TIMx->CR2 = tmpcr2;
 8006b92:	6044      	str	r4, [r0, #4]
  TIMx->CCMR1 = tmpccmrx;
 8006b94:	6182      	str	r2, [r0, #24]
  TIMx->CCR2 = OC_Config->Pulse;
 8006b96:	684a      	ldr	r2, [r1, #4]
 8006b98:	6382      	str	r2, [r0, #56]	@ 0x38
  TIMx->CCER = tmpccer;
 8006b9a:	6203      	str	r3, [r0, #32]
}
 8006b9c:	bd70      	pop	{r4, r5, r6, pc}
 8006b9e:	bf00      	nop
 8006ba0:	40012c00 	.word	0x40012c00

08006ba4 <HAL_TIM_PWM_ConfigChannel>:
{
 8006ba4:	b538      	push	{r3, r4, r5, lr}
  __HAL_LOCK(htim);
 8006ba6:	f890 303c 	ldrb.w	r3, [r0, #60]	@ 0x3c
{
 8006baa:	4604      	mov	r4, r0
  __HAL_LOCK(htim);
 8006bac:	2b01      	cmp	r3, #1
 8006bae:	d04f      	beq.n	8006c50 <HAL_TIM_PWM_ConfigChannel+0xac>
 8006bb0:	2001      	movs	r0, #1
  switch (Channel)
 8006bb2:	2a08      	cmp	r2, #8
  __HAL_LOCK(htim);
 8006bb4:	f884 003c 	strb.w	r0, [r4, #60]	@ 0x3c
  switch (Channel)
 8006bb8:	d03a      	beq.n	8006c30 <HAL_TIM_PWM_ConfigChannel+0x8c>
 8006bba:	d806      	bhi.n	8006bca <HAL_TIM_PWM_ConfigChannel+0x26>
 8006bbc:	b1ba      	cbz	r2, 8006bee <HAL_TIM_PWM_ConfigChannel+0x4a>
 8006bbe:	2a04      	cmp	r2, #4
 8006bc0:	d026      	beq.n	8006c10 <HAL_TIM_PWM_ConfigChannel+0x6c>
  __HAL_UNLOCK(htim);
 8006bc2:	2300      	movs	r3, #0
 8006bc4:	f884 303c 	strb.w	r3, [r4, #60]	@ 0x3c
}
 8006bc8:	bd38      	pop	{r3, r4, r5, pc}
  switch (Channel)
 8006bca:	2a0c      	cmp	r2, #12
 8006bcc:	d1f9      	bne.n	8006bc2 <HAL_TIM_PWM_ConfigChannel+0x1e>
      TIM_OC4_SetConfig(htim->Instance, sConfig);
 8006bce:	6820      	ldr	r0, [r4, #0]
 8006bd0:	f7ff fe4c 	bl	800686c <TIM_OC4_SetConfig>
      htim->Instance->CCMR2 |= TIM_CCMR2_OC4PE;
 8006bd4:	69c3      	ldr	r3, [r0, #28]
      htim->Instance->CCMR2 |= sConfig->OCFastMode << 8U;
 8006bd6:	690a      	ldr	r2, [r1, #16]
      htim->Instance->CCMR2 |= TIM_CCMR2_OC4PE;
 8006bd8:	f443 6300 	orr.w	r3, r3, #2048	@ 0x800
 8006bdc:	61c3      	str	r3, [r0, #28]
      htim->Instance->CCMR2 &= ~TIM_CCMR2_OC4FE;
 8006bde:	69c3      	ldr	r3, [r0, #28]
 8006be0:	f423 6380 	bic.w	r3, r3, #1024	@ 0x400
 8006be4:	61c3      	str	r3, [r0, #28]
      htim->Instance->CCMR2 |= sConfig->OCFastMode << 8U;
 8006be6:	69c3      	ldr	r3, [r0, #28]
 8006be8:	ea43 2302 	orr.w	r3, r3, r2, lsl #8
 8006bec:	e02e      	b.n	8006c4c <HAL_TIM_PWM_ConfigChannel+0xa8>
      TIM_OC1_SetConfig(htim->Instance, sConfig);
 8006bee:	6820      	ldr	r0, [r4, #0]
 8006bf0:	f7ff fdea 	bl	80067c8 <TIM_OC1_SetConfig>
      htim->Instance->CCMR1 |= TIM_CCMR1_OC1PE;
 8006bf4:	6983      	ldr	r3, [r0, #24]
      htim->Instance->CCMR1 |= sConfig->OCFastMode;
 8006bf6:	690a      	ldr	r2, [r1, #16]
      htim->Instance->CCMR1 |= TIM_CCMR1_OC1PE;
 8006bf8:	f043 0308 	orr.w	r3, r3, #8
 8006bfc:	6183      	str	r3, [r0, #24]
      htim->Instance->CCMR1 &= ~TIM_CCMR1_OC1FE;
 8006bfe:	6983      	ldr	r3, [r0, #24]
 8006c00:	f023 0304 	bic.w	r3, r3, #4
 8006c04:	6183      	str	r3, [r0, #24]
      htim->Instance->CCMR1 |= sConfig->OCFastMode;
 8006c06:	6983      	ldr	r3, [r0, #24]
 8006c08:	4313      	orrs	r3, r2
      htim->Instance->CCMR1 |= sConfig->OCFastMode << 8U;
 8006c0a:	6183      	str	r3, [r0, #24]
  HAL_StatusTypeDef status = HAL_OK;
 8006c0c:	2000      	movs	r0, #0
 8006c0e:	e7d8      	b.n	8006bc2 <HAL_TIM_PWM_ConfigChannel+0x1e>
      TIM_OC2_SetConfig(htim->Instance, sConfig);
 8006c10:	6820      	ldr	r0, [r4, #0]
 8006c12:	f7ff ff9b 	bl	8006b4c <TIM_OC2_SetConfig>
      htim->Instance->CCMR1 |= TIM_CCMR1_OC2PE;
 8006c16:	6983      	ldr	r3, [r0, #24]
      htim->Instance->CCMR1 |= sConfig->OCFastMode << 8U;
 8006c18:	690a      	ldr	r2, [r1, #16]
      htim->Instance->CCMR1 |= TIM_CCMR1_OC2PE;
 8006c1a:	f443 6300 	orr.w	r3, r3, #2048	@ 0x800
 8006c1e:	6183      	str	r3, [r0, #24]
      htim->Instance->CCMR1 &= ~TIM_CCMR1_OC2FE;
 8006c20:	6983      	ldr	r3, [r0, #24]
 8006c22:	f423 6380 	bic.w	r3, r3, #1024	@ 0x400
 8006c26:	6183      	str	r3, [r0, #24]
      htim->Instance->CCMR1 |= sConfig->OCFastMode << 8U;
 8006c28:	6983      	ldr	r3, [r0, #24]
 8006c2a:	ea43 2302 	orr.w	r3, r3, r2, lsl #8
 8006c2e:	e7ec      	b.n	8006c0a <HAL_TIM_PWM_ConfigChannel+0x66>
      TIM_OC3_SetConfig(htim->Instance, sConfig);
 8006c30:	6820      	ldr	r0, [r4, #0]
 8006c32:	f7ff fdf1 	bl	8006818 <TIM_OC3_SetConfig>
      htim->Instance->CCMR2 |= TIM_CCMR2_OC3PE;
 8006c36:	69c3      	ldr	r3, [r0, #28]
      htim->Instance->CCMR2 |= sConfig->OCFastMode;
 8006c38:	690a      	ldr	r2, [r1, #16]
      htim->Instance->CCMR2 |= TIM_CCMR2_OC3PE;
 8006c3a:	f043 0308 	orr.w	r3, r3, #8
 8006c3e:	61c3      	str	r3, [r0, #28]
      htim->Instance->CCMR2 &= ~TIM_CCMR2_OC3FE;
 8006c40:	69c3      	ldr	r3, [r0, #28]
 8006c42:	f023 0304 	bic.w	r3, r3, #4
 8006c46:	61c3      	str	r3, [r0, #28]
      htim->Instance->CCMR2 |= sConfig->OCFastMode;
 8006c48:	69c3      	ldr	r3, [r0, #28]
 8006c4a:	4313      	orrs	r3, r2
      htim->Instance->CCMR2 |= sConfig->OCFastMode << 8U;
 8006c4c:	61c3      	str	r3, [r0, #28]
      break;
 8006c4e:	e7dd      	b.n	8006c0c <HAL_TIM_PWM_ConfigChannel+0x68>
  __HAL_LOCK(htim);
 8006c50:	2002      	movs	r0, #2
 8006c52:	e7b9      	b.n	8006bc8 <HAL_TIM_PWM_ConfigChannel+0x24>

08006c54 <TIM_ETR_SetConfig>:
  *          This parameter must be a value between 0x00 and 0x0F
  * @retval None
  */
void TIM_ETR_SetConfig(TIM_TypeDef *TIMx, uint32_t TIM_ExtTRGPrescaler,
                       uint32_t TIM_ExtTRGPolarity, uint32_t ExtTRGFilter)
{
 8006c54:	b510      	push	{r4, lr}
  uint32_t tmpsmcr;

  tmpsmcr = TIMx->SMCR;
 8006c56:	6884      	ldr	r4, [r0, #8]

  /* Reset the ETR Bits */
  tmpsmcr &= ~(TIM_SMCR_ETF | TIM_SMCR_ETPS | TIM_SMCR_ECE | TIM_SMCR_ETP);

  /* Set the Prescaler, the Filter value and the Polarity */
  tmpsmcr |= (uint32_t)(TIM_ExtTRGPrescaler | (TIM_ExtTRGPolarity | (ExtTRGFilter << 8U)));
 8006c58:	430a      	orrs	r2, r1
  tmpsmcr &= ~(TIM_SMCR_ETF | TIM_SMCR_ETPS | TIM_SMCR_ECE | TIM_SMCR_ETP);
 8006c5a:	f424 447f 	bic.w	r4, r4, #65280	@ 0xff00
  tmpsmcr |= (uint32_t)(TIM_ExtTRGPrescaler | (TIM_ExtTRGPolarity | (ExtTRGFilter << 8U)));
 8006c5e:	ea42 2203 	orr.w	r2, r2, r3, lsl #8
 8006c62:	4322      	orrs	r2, r4

  /* Write to TIMx SMCR */
  TIMx->SMCR = tmpsmcr;
 8006c64:	6082      	str	r2, [r0, #8]
}
 8006c66:	bd10      	pop	{r4, pc}

08006c68 <HAL_TIM_ConfigClockSource>:
{
 8006c68:	b538      	push	{r3, r4, r5, lr}
  __HAL_LOCK(htim);
 8006c6a:	f890 303c 	ldrb.w	r3, [r0, #60]	@ 0x3c
{
 8006c6e:	4604      	mov	r4, r0
  __HAL_LOCK(htim);
 8006c70:	2b01      	cmp	r3, #1
 8006c72:	f04f 0002 	mov.w	r0, #2
 8006c76:	f000 808e 	beq.w	8006d96 <HAL_TIM_ConfigClockSource+0x12e>
 8006c7a:	2201      	movs	r2, #1
  htim->State = HAL_TIM_STATE_BUSY;
 8006c7c:	f884 003d 	strb.w	r0, [r4, #61]	@ 0x3d
  tmpsmcr = htim->Instance->SMCR;
 8006c80:	6820      	ldr	r0, [r4, #0]
  __HAL_LOCK(htim);
 8006c82:	f884 203c 	strb.w	r2, [r4, #60]	@ 0x3c
  tmpsmcr = htim->Instance->SMCR;
 8006c86:	6883      	ldr	r3, [r0, #8]
  tmpsmcr &= ~(TIM_SMCR_ETF | TIM_SMCR_ETPS | TIM_SMCR_ECE | TIM_SMCR_ETP);
 8006c88:	f423 437f 	bic.w	r3, r3, #65280	@ 0xff00
 8006c8c:	f023 0377 	bic.w	r3, r3, #119	@ 0x77
  htim->Instance->SMCR = tmpsmcr;
 8006c90:	6083      	str	r3, [r0, #8]
  switch (sClockSourceConfig->ClockSource)
 8006c92:	680b      	ldr	r3, [r1, #0]
 8006c94:	2b60      	cmp	r3, #96	@ 0x60
 8006c96:	d04f      	beq.n	8006d38 <HAL_TIM_ConfigClockSource+0xd0>
 8006c98:	d832      	bhi.n	8006d00 <HAL_TIM_ConfigClockSource+0x98>
 8006c9a:	2b40      	cmp	r3, #64	@ 0x40
 8006c9c:	d064      	beq.n	8006d68 <HAL_TIM_ConfigClockSource+0x100>
 8006c9e:	d816      	bhi.n	8006cce <HAL_TIM_ConfigClockSource+0x66>
 8006ca0:	2b20      	cmp	r3, #32
 8006ca2:	d00d      	beq.n	8006cc0 <HAL_TIM_ConfigClockSource+0x58>
 8006ca4:	d80a      	bhi.n	8006cbc <HAL_TIM_ConfigClockSource+0x54>
 8006ca6:	f033 0110 	bics.w	r1, r3, #16
 8006caa:	d009      	beq.n	8006cc0 <HAL_TIM_ConfigClockSource+0x58>
  htim->State = HAL_TIM_STATE_READY;
 8006cac:	2301      	movs	r3, #1
 8006cae:	f884 303d 	strb.w	r3, [r4, #61]	@ 0x3d
  __HAL_UNLOCK(htim);
 8006cb2:	2300      	movs	r3, #0
 8006cb4:	f884 303c 	strb.w	r3, [r4, #60]	@ 0x3c
}
 8006cb8:	4610      	mov	r0, r2
 8006cba:	bd38      	pop	{r3, r4, r5, pc}
  switch (sClockSourceConfig->ClockSource)
 8006cbc:	2b30      	cmp	r3, #48	@ 0x30
 8006cbe:	d1f5      	bne.n	8006cac <HAL_TIM_ConfigClockSource+0x44>
  tmpsmcr = TIMx->SMCR;
 8006cc0:	6882      	ldr	r2, [r0, #8]
  tmpsmcr &= ~TIM_SMCR_TS;
 8006cc2:	f022 0270 	bic.w	r2, r2, #112	@ 0x70
  tmpsmcr |= (InputTriggerSource | TIM_SLAVEMODE_EXTERNAL1);
 8006cc6:	4313      	orrs	r3, r2
 8006cc8:	f043 0307 	orr.w	r3, r3, #7
  TIMx->SMCR = tmpsmcr;
 8006ccc:	e028      	b.n	8006d20 <HAL_TIM_ConfigClockSource+0xb8>
  switch (sClockSourceConfig->ClockSource)
 8006cce:	2b50      	cmp	r3, #80	@ 0x50
 8006cd0:	d1ec      	bne.n	8006cac <HAL_TIM_ConfigClockSource+0x44>
                               sClockSourceConfig->ClockPolarity,
 8006cd2:	684a      	ldr	r2, [r1, #4]
                               sClockSourceConfig->ClockFilter);
 8006cd4:	68cd      	ldr	r5, [r1, #12]
  tmpccer = TIMx->CCER;
 8006cd6:	6a01      	ldr	r1, [r0, #32]
  TIMx->CCER &= ~TIM_CCER_CC1E;
 8006cd8:	6a03      	ldr	r3, [r0, #32]
  tmpccer &= ~(TIM_CCER_CC1P | TIM_CCER_CC1NP);
 8006cda:	f021 010a 	bic.w	r1, r1, #10
  TIMx->CCER &= ~TIM_CCER_CC1E;
 8006cde:	f023 0301 	bic.w	r3, r3, #1
 8006ce2:	6203      	str	r3, [r0, #32]
  tmpccmr1 = TIMx->CCMR1;
 8006ce4:	6983      	ldr	r3, [r0, #24]
  tmpccer |= TIM_ICPolarity;
 8006ce6:	430a      	orrs	r2, r1
  tmpccmr1 &= ~TIM_CCMR1_IC1F;
 8006ce8:	f023 03f0 	bic.w	r3, r3, #240	@ 0xf0
  tmpccmr1 |= (TIM_ICFilter << 4U);
 8006cec:	ea43 1305 	orr.w	r3, r3, r5, lsl #4
  TIMx->CCMR1 = tmpccmr1;
 8006cf0:	6183      	str	r3, [r0, #24]
  TIMx->CCER = tmpccer;
 8006cf2:	6202      	str	r2, [r0, #32]
  tmpsmcr = TIMx->SMCR;
 8006cf4:	6883      	ldr	r3, [r0, #8]
  tmpsmcr &= ~TIM_SMCR_TS;
 8006cf6:	f023 0370 	bic.w	r3, r3, #112	@ 0x70
  tmpsmcr |= (InputTriggerSource | TIM_SLAVEMODE_EXTERNAL1);
 8006cfa:	f043 0357 	orr.w	r3, r3, #87	@ 0x57
  TIMx->SMCR = tmpsmcr;
 8006cfe:	e00f      	b.n	8006d20 <HAL_TIM_ConfigClockSource+0xb8>
  switch (sClockSourceConfig->ClockSource)
 8006d00:	f5b3 5f80 	cmp.w	r3, #4096	@ 0x1000
 8006d04:	d00d      	beq.n	8006d22 <HAL_TIM_ConfigClockSource+0xba>
 8006d06:	f5b3 5f00 	cmp.w	r3, #8192	@ 0x2000
 8006d0a:	d00c      	beq.n	8006d26 <HAL_TIM_ConfigClockSource+0xbe>
 8006d0c:	2b70      	cmp	r3, #112	@ 0x70
 8006d0e:	d1cd      	bne.n	8006cac <HAL_TIM_ConfigClockSource+0x44>
      TIM_ETR_SetConfig(htim->Instance,
 8006d10:	68cb      	ldr	r3, [r1, #12]
 8006d12:	e9d1 2101 	ldrd	r2, r1, [r1, #4]
 8006d16:	f7ff ff9d 	bl	8006c54 <TIM_ETR_SetConfig>
      tmpsmcr = htim->Instance->SMCR;
 8006d1a:	6883      	ldr	r3, [r0, #8]
      tmpsmcr |= (TIM_SLAVEMODE_EXTERNAL1 | TIM_CLOCKSOURCE_ETRMODE1);
 8006d1c:	f043 0377 	orr.w	r3, r3, #119	@ 0x77
      htim->Instance->SMCR = tmpsmcr;
 8006d20:	6083      	str	r3, [r0, #8]
  HAL_StatusTypeDef status = HAL_OK;
 8006d22:	2200      	movs	r2, #0
 8006d24:	e7c2      	b.n	8006cac <HAL_TIM_ConfigClockSource+0x44>
      TIM_ETR_SetConfig(htim->Instance,
 8006d26:	68cb      	ldr	r3, [r1, #12]
 8006d28:	e9d1 2101 	ldrd	r2, r1, [r1, #4]
 8006d2c:	f7ff ff92 	bl	8006c54 <TIM_ETR_SetConfig>
      htim->Instance->SMCR |= TIM_SMCR_ECE;
 8006d30:	6883      	ldr	r3, [r0, #8]
 8006d32:	f443 4380 	orr.w	r3, r3, #16384	@ 0x4000
 8006d36:	e7f3      	b.n	8006d20 <HAL_TIM_ConfigClockSource+0xb8>
  tmpccer = TIMx->CCER;
 8006d38:	6a03      	ldr	r3, [r0, #32]
  TIMx->CCER &= ~TIM_CCER_CC2E;
 8006d3a:	6a02      	ldr	r2, [r0, #32]
                               sClockSourceConfig->ClockPolarity,
 8006d3c:	684d      	ldr	r5, [r1, #4]
  TIMx->CCER &= ~TIM_CCER_CC2E;
 8006d3e:	f022 0210 	bic.w	r2, r2, #16
                               sClockSourceConfig->ClockFilter);
 8006d42:	68c9      	ldr	r1, [r1, #12]
  TIMx->CCER &= ~TIM_CCER_CC2E;
 8006d44:	6202      	str	r2, [r0, #32]
  tmpccmr1 = TIMx->CCMR1;
 8006d46:	6982      	ldr	r2, [r0, #24]
  tmpccer &= ~(TIM_CCER_CC2P | TIM_CCER_CC2NP);
 8006d48:	f023 03a0 	bic.w	r3, r3, #160	@ 0xa0
  tmpccmr1 &= ~TIM_CCMR1_IC2F;
 8006d4c:	f422 4270 	bic.w	r2, r2, #61440	@ 0xf000
  tmpccer |= (TIM_ICPolarity << 4U);
 8006d50:	ea43 1305 	orr.w	r3, r3, r5, lsl #4
  tmpccmr1 |= (TIM_ICFilter << 12U);
 8006d54:	ea42 3201 	orr.w	r2, r2, r1, lsl #12
  TIMx->CCMR1 = tmpccmr1 ;
 8006d58:	6182      	str	r2, [r0, #24]
  TIMx->CCER = tmpccer;
 8006d5a:	6203      	str	r3, [r0, #32]
  tmpsmcr = TIMx->SMCR;
 8006d5c:	6883      	ldr	r3, [r0, #8]
  tmpsmcr &= ~TIM_SMCR_TS;
 8006d5e:	f023 0370 	bic.w	r3, r3, #112	@ 0x70
  tmpsmcr |= (InputTriggerSource | TIM_SLAVEMODE_EXTERNAL1);
 8006d62:	f043 0367 	orr.w	r3, r3, #103	@ 0x67
  TIMx->SMCR = tmpsmcr;
 8006d66:	e7db      	b.n	8006d20 <HAL_TIM_ConfigClockSource+0xb8>
                               sClockSourceConfig->ClockPolarity,
 8006d68:	684a      	ldr	r2, [r1, #4]
                               sClockSourceConfig->ClockFilter);
 8006d6a:	68cd      	ldr	r5, [r1, #12]
  tmpccer = TIMx->CCER;
 8006d6c:	6a01      	ldr	r1, [r0, #32]
  TIMx->CCER &= ~TIM_CCER_CC1E;
 8006d6e:	6a03      	ldr	r3, [r0, #32]
  tmpccer &= ~(TIM_CCER_CC1P | TIM_CCER_CC1NP);
 8006d70:	f021 010a 	bic.w	r1, r1, #10
  TIMx->CCER &= ~TIM_CCER_CC1E;
 8006d74:	f023 0301 	bic.w	r3, r3, #1
 8006d78:	6203      	str	r3, [r0, #32]
  tmpccmr1 = TIMx->CCMR1;
 8006d7a:	6983      	ldr	r3, [r0, #24]
  tmpccer |= TIM_ICPolarity;
 8006d7c:	430a      	orrs	r2, r1
  tmpccmr1 &= ~TIM_CCMR1_IC1F;
 8006d7e:	f023 03f0 	bic.w	r3, r3, #240	@ 0xf0
  tmpccmr1 |= (TIM_ICFilter << 4U);
 8006d82:	ea43 1305 	orr.w	r3, r3, r5, lsl #4
  TIMx->CCMR1 = tmpccmr1;
 8006d86:	6183      	str	r3, [r0, #24]
  TIMx->CCER = tmpccer;
 8006d88:	6202      	str	r2, [r0, #32]
  tmpsmcr = TIMx->SMCR;
 8006d8a:	6883      	ldr	r3, [r0, #8]
  tmpsmcr &= ~TIM_SMCR_TS;
 8006d8c:	f023 0370 	bic.w	r3, r3, #112	@ 0x70
  tmpsmcr |= (InputTriggerSource | TIM_SLAVEMODE_EXTERNAL1);
 8006d90:	f043 0347 	orr.w	r3, r3, #71	@ 0x47
  TIMx->SMCR = tmpsmcr;
 8006d94:	e7c4      	b.n	8006d20 <HAL_TIM_ConfigClockSource+0xb8>
  __HAL_LOCK(htim);
 8006d96:	4602      	mov	r2, r0
 8006d98:	e78e      	b.n	8006cb8 <HAL_TIM_ConfigClockSource+0x50>

08006d9a <TIM_SlaveTimer_SetConfig.constprop.0>:
  tmpsmcr = htim->Instance->SMCR;
 8006d9a:	6800      	ldr	r0, [r0, #0]
  tmpsmcr |= sSlaveConfig->InputTrigger;
 8006d9c:	684b      	ldr	r3, [r1, #4]
  tmpsmcr = htim->Instance->SMCR;
 8006d9e:	6882      	ldr	r2, [r0, #8]
static HAL_StatusTypeDef TIM_SlaveTimer_SetConfig(TIM_HandleTypeDef *htim,
 8006da0:	b510      	push	{r4, lr}
  tmpsmcr &= ~TIM_SMCR_TS;
 8006da2:	f022 0270 	bic.w	r2, r2, #112	@ 0x70
  tmpsmcr |= sSlaveConfig->SlaveMode;
 8006da6:	680c      	ldr	r4, [r1, #0]
  tmpsmcr |= sSlaveConfig->InputTrigger;
 8006da8:	431a      	orrs	r2, r3
  tmpsmcr &= ~TIM_SMCR_SMS;
 8006daa:	f022 0207 	bic.w	r2, r2, #7
  tmpsmcr |= sSlaveConfig->SlaveMode;
 8006dae:	4322      	orrs	r2, r4
  switch (sSlaveConfig->InputTrigger)
 8006db0:	2b50      	cmp	r3, #80	@ 0x50
  htim->Instance->SMCR = tmpsmcr;
 8006db2:	6082      	str	r2, [r0, #8]
  switch (sSlaveConfig->InputTrigger)
 8006db4:	d02a      	beq.n	8006e0c <TIM_SlaveTimer_SetConfig.constprop.0+0x72>
 8006db6:	d80e      	bhi.n	8006dd6 <TIM_SlaveTimer_SetConfig.constprop.0+0x3c>
 8006db8:	2b40      	cmp	r3, #64	@ 0x40
 8006dba:	d017      	beq.n	8006dec <TIM_SlaveTimer_SetConfig.constprop.0+0x52>
 8006dbc:	d849      	bhi.n	8006e52 <TIM_SlaveTimer_SetConfig.constprop.0+0xb8>
 8006dbe:	2b20      	cmp	r3, #32
 8006dc0:	d012      	beq.n	8006de8 <TIM_SlaveTimer_SetConfig.constprop.0+0x4e>
 8006dc2:	d805      	bhi.n	8006dd0 <TIM_SlaveTimer_SetConfig.constprop.0+0x36>
 8006dc4:	f023 0310 	bic.w	r3, r3, #16
 8006dc8:	1e18      	subs	r0, r3, #0
 8006dca:	bf18      	it	ne
 8006dcc:	2001      	movne	r0, #1
}
 8006dce:	bd10      	pop	{r4, pc}
  switch (sSlaveConfig->InputTrigger)
 8006dd0:	f1b3 0030 	subs.w	r0, r3, #48	@ 0x30
 8006dd4:	e7f9      	b.n	8006dca <TIM_SlaveTimer_SetConfig.constprop.0+0x30>
 8006dd6:	2b60      	cmp	r3, #96	@ 0x60
 8006dd8:	d028      	beq.n	8006e2c <TIM_SlaveTimer_SetConfig.constprop.0+0x92>
 8006dda:	2b70      	cmp	r3, #112	@ 0x70
 8006ddc:	d139      	bne.n	8006e52 <TIM_SlaveTimer_SetConfig.constprop.0+0xb8>
      TIM_ETR_SetConfig(htim->Instance,
 8006dde:	690b      	ldr	r3, [r1, #16]
 8006de0:	e9d1 2102 	ldrd	r2, r1, [r1, #8]
 8006de4:	f7ff ff36 	bl	8006c54 <TIM_ETR_SetConfig>
  HAL_StatusTypeDef status = HAL_OK;
 8006de8:	2000      	movs	r0, #0
 8006dea:	e7f0      	b.n	8006dce <TIM_SlaveTimer_SetConfig.constprop.0+0x34>
      if (sSlaveConfig->SlaveMode == TIM_SLAVEMODE_GATED)
 8006dec:	2c05      	cmp	r4, #5
 8006dee:	d030      	beq.n	8006e52 <TIM_SlaveTimer_SetConfig.constprop.0+0xb8>
      tmpccer = htim->Instance->CCER;
 8006df0:	6a02      	ldr	r2, [r0, #32]
      htim->Instance->CCER &= ~TIM_CCER_CC1E;
 8006df2:	6a03      	ldr	r3, [r0, #32]
      tmpccmr1 |= ((sSlaveConfig->TriggerFilter) << 4U);
 8006df4:	6909      	ldr	r1, [r1, #16]
      htim->Instance->CCER &= ~TIM_CCER_CC1E;
 8006df6:	f023 0301 	bic.w	r3, r3, #1
 8006dfa:	6203      	str	r3, [r0, #32]
      tmpccmr1 = htim->Instance->CCMR1;
 8006dfc:	6983      	ldr	r3, [r0, #24]
      tmpccmr1 &= ~TIM_CCMR1_IC1F;
 8006dfe:	f023 03f0 	bic.w	r3, r3, #240	@ 0xf0
      tmpccmr1 |= ((sSlaveConfig->TriggerFilter) << 4U);
 8006e02:	ea43 1301 	orr.w	r3, r3, r1, lsl #4
  TIMx->CCMR1 = tmpccmr1;
 8006e06:	6183      	str	r3, [r0, #24]
  TIMx->CCER = tmpccer;
 8006e08:	6202      	str	r2, [r0, #32]
}
 8006e0a:	e7ed      	b.n	8006de8 <TIM_SlaveTimer_SetConfig.constprop.0+0x4e>
                               sSlaveConfig->TriggerPolarity,
 8006e0c:	688a      	ldr	r2, [r1, #8]
                               sSlaveConfig->TriggerFilter);
 8006e0e:	690c      	ldr	r4, [r1, #16]
  tmpccer = TIMx->CCER;
 8006e10:	6a01      	ldr	r1, [r0, #32]
  TIMx->CCER &= ~TIM_CCER_CC1E;
 8006e12:	6a03      	ldr	r3, [r0, #32]
  tmpccer &= ~(TIM_CCER_CC1P | TIM_CCER_CC1NP);
 8006e14:	f021 010a 	bic.w	r1, r1, #10
  TIMx->CCER &= ~TIM_CCER_CC1E;
 8006e18:	f023 0301 	bic.w	r3, r3, #1
 8006e1c:	6203      	str	r3, [r0, #32]
  tmpccmr1 = TIMx->CCMR1;
 8006e1e:	6983      	ldr	r3, [r0, #24]
  tmpccer |= TIM_ICPolarity;
 8006e20:	430a      	orrs	r2, r1
  tmpccmr1 &= ~TIM_CCMR1_IC1F;
 8006e22:	f023 03f0 	bic.w	r3, r3, #240	@ 0xf0
  tmpccmr1 |= (TIM_ICFilter << 4U);
 8006e26:	ea43 1304 	orr.w	r3, r3, r4, lsl #4
  tmpccer |= TIM_ICPolarity;
 8006e2a:	e7ec      	b.n	8006e06 <TIM_SlaveTimer_SetConfig.constprop.0+0x6c>
  tmpccer = TIMx->CCER;
 8006e2c:	6a03      	ldr	r3, [r0, #32]
  TIMx->CCER &= ~TIM_CCER_CC2E;
 8006e2e:	6a02      	ldr	r2, [r0, #32]
                               sSlaveConfig->TriggerPolarity,
 8006e30:	688c      	ldr	r4, [r1, #8]
  TIMx->CCER &= ~TIM_CCER_CC2E;
 8006e32:	f022 0210 	bic.w	r2, r2, #16
                               sSlaveConfig->TriggerFilter);
 8006e36:	6909      	ldr	r1, [r1, #16]
  TIMx->CCER &= ~TIM_CCER_CC2E;
 8006e38:	6202      	str	r2, [r0, #32]
  tmpccmr1 = TIMx->CCMR1;
 8006e3a:	6982      	ldr	r2, [r0, #24]
  tmpccer &= ~(TIM_CCER_CC2P | TIM_CCER_CC2NP);
 8006e3c:	f023 03a0 	bic.w	r3, r3, #160	@ 0xa0
  tmpccmr1 &= ~TIM_CCMR1_IC2F;
 8006e40:	f422 4270 	bic.w	r2, r2, #61440	@ 0xf000
  tmpccmr1 |= (TIM_ICFilter << 12U);
 8006e44:	ea42 3201 	orr.w	r2, r2, r1, lsl #12
  tmpccer |= (TIM_ICPolarity << 4U);
 8006e48:	ea43 1304 	orr.w	r3, r3, r4, lsl #4
  TIMx->CCMR1 = tmpccmr1 ;
 8006e4c:	6182      	str	r2, [r0, #24]
  TIMx->CCER = tmpccer;
 8006e4e:	6203      	str	r3, [r0, #32]
}
 8006e50:	e7ca      	b.n	8006de8 <TIM_SlaveTimer_SetConfig.constprop.0+0x4e>
        return HAL_ERROR;
 8006e52:	2001      	movs	r0, #1
 8006e54:	e7bb      	b.n	8006dce <TIM_SlaveTimer_SetConfig.constprop.0+0x34>

08006e56 <HAL_TIM_SlaveConfigSynchro>:
{
 8006e56:	b538      	push	{r3, r4, r5, lr}
  __HAL_LOCK(htim);
 8006e58:	f890 303c 	ldrb.w	r3, [r0, #60]	@ 0x3c
{
 8006e5c:	4604      	mov	r4, r0
  __HAL_LOCK(htim);
 8006e5e:	2b01      	cmp	r3, #1
 8006e60:	f04f 0302 	mov.w	r3, #2
 8006e64:	d01b      	beq.n	8006e9e <HAL_TIM_SlaveConfigSynchro+0x48>
 8006e66:	2501      	movs	r5, #1
  htim->State = HAL_TIM_STATE_BUSY;
 8006e68:	f880 303d 	strb.w	r3, [r0, #61]	@ 0x3d
  __HAL_LOCK(htim);
 8006e6c:	f880 503c 	strb.w	r5, [r0, #60]	@ 0x3c
  if (TIM_SlaveTimer_SetConfig(htim, sSlaveConfig) != HAL_OK)
 8006e70:	f7ff ff93 	bl	8006d9a <TIM_SlaveTimer_SetConfig.constprop.0>
 8006e74:	b128      	cbz	r0, 8006e82 <HAL_TIM_SlaveConfigSynchro+0x2c>
    __HAL_UNLOCK(htim);
 8006e76:	2300      	movs	r3, #0
    htim->State = HAL_TIM_STATE_READY;
 8006e78:	f884 503d 	strb.w	r5, [r4, #61]	@ 0x3d
    __HAL_UNLOCK(htim);
 8006e7c:	f884 303c 	strb.w	r3, [r4, #60]	@ 0x3c
}
 8006e80:	bd38      	pop	{r3, r4, r5, pc}
  __HAL_TIM_DISABLE_IT(htim, TIM_IT_TRIGGER);
 8006e82:	6823      	ldr	r3, [r4, #0]
 8006e84:	68da      	ldr	r2, [r3, #12]
 8006e86:	f022 0240 	bic.w	r2, r2, #64	@ 0x40
 8006e8a:	60da      	str	r2, [r3, #12]
  __HAL_TIM_DISABLE_DMA(htim, TIM_DMA_TRIGGER);
 8006e8c:	68da      	ldr	r2, [r3, #12]
 8006e8e:	f422 4280 	bic.w	r2, r2, #16384	@ 0x4000
 8006e92:	60da      	str	r2, [r3, #12]
  htim->State = HAL_TIM_STATE_READY;
 8006e94:	f884 503d 	strb.w	r5, [r4, #61]	@ 0x3d
  __HAL_UNLOCK(htim);
 8006e98:	f884 003c 	strb.w	r0, [r4, #60]	@ 0x3c
  return HAL_OK;
 8006e9c:	e7f0      	b.n	8006e80 <HAL_TIM_SlaveConfigSynchro+0x2a>
  __HAL_LOCK(htim);
 8006e9e:	4618      	mov	r0, r3
 8006ea0:	e7ee      	b.n	8006e80 <HAL_TIM_SlaveConfigSynchro+0x2a>

08006ea2 <TIM_CCxChannelCmd>:
  * @param  ChannelState specifies the TIM Channel CCxE bit new state.
  *          This parameter can be: TIM_CCx_ENABLE or TIM_CCx_DISABLE.
  * @retval None
  */
void TIM_CCxChannelCmd(TIM_TypeDef *TIMx, uint32_t Channel, uint32_t ChannelState)
{
 8006ea2:	b510      	push	{r4, lr}

  /* Check the parameters */
  assert_param(IS_TIM_CC1_INSTANCE(TIMx));
  assert_param(IS_TIM_CHANNELS(Channel));

  tmp = TIM_CCER_CC1E << (Channel & 0x1FU); /* 0x1FU = 31 bits max shift */
 8006ea4:	2401      	movs	r4, #1

  /* Reset the CCxE Bit */
  TIMx->CCER &= ~tmp;
 8006ea6:	6a03      	ldr	r3, [r0, #32]
  tmp = TIM_CCER_CC1E << (Channel & 0x1FU); /* 0x1FU = 31 bits max shift */
 8006ea8:	f001 011f 	and.w	r1, r1, #31
 8006eac:	408c      	lsls	r4, r1
  TIMx->CCER &= ~tmp;
 8006eae:	ea23 0304 	bic.w	r3, r3, r4
 8006eb2:	6203      	str	r3, [r0, #32]

  /* Set or reset the CCxE Bit */
  TIMx->CCER |= (uint32_t)(ChannelState << (Channel & 0x1FU)); /* 0x1FU = 31 bits max shift */
 8006eb4:	6a03      	ldr	r3, [r0, #32]
 8006eb6:	408a      	lsls	r2, r1
 8006eb8:	431a      	orrs	r2, r3
 8006eba:	6202      	str	r2, [r0, #32]
}
 8006ebc:	bd10      	pop	{r4, pc}
	...

08006ec0 <HAL_TIM_OC_Start>:
{
 8006ec0:	b508      	push	{r3, lr}
  if (TIM_CHANNEL_STATE_GET(htim, Channel) != HAL_TIM_CHANNEL_STATE_READY)
 8006ec2:	b929      	cbnz	r1, 8006ed0 <HAL_TIM_OC_Start+0x10>
 8006ec4:	f890 303e 	ldrb.w	r3, [r0, #62]	@ 0x3e
 8006ec8:	2b01      	cmp	r3, #1
 8006eca:	d01d      	beq.n	8006f08 <HAL_TIM_OC_Start+0x48>
    return HAL_ERROR;
 8006ecc:	2001      	movs	r0, #1
 8006ece:	e02e      	b.n	8006f2e <HAL_TIM_OC_Start+0x6e>
  if (TIM_CHANNEL_STATE_GET(htim, Channel) != HAL_TIM_CHANNEL_STATE_READY)
 8006ed0:	2904      	cmp	r1, #4
 8006ed2:	d107      	bne.n	8006ee4 <HAL_TIM_OC_Start+0x24>
 8006ed4:	f890 303f 	ldrb.w	r3, [r0, #63]	@ 0x3f
 8006ed8:	2b01      	cmp	r3, #1
 8006eda:	d1f7      	bne.n	8006ecc <HAL_TIM_OC_Start+0xc>
  TIM_CHANNEL_STATE_SET(htim, Channel, HAL_TIM_CHANNEL_STATE_BUSY);
 8006edc:	2302      	movs	r3, #2
 8006ede:	f880 303f 	strb.w	r3, [r0, #63]	@ 0x3f
 8006ee2:	e014      	b.n	8006f0e <HAL_TIM_OC_Start+0x4e>
  if (TIM_CHANNEL_STATE_GET(htim, Channel) != HAL_TIM_CHANNEL_STATE_READY)
 8006ee4:	2908      	cmp	r1, #8
 8006ee6:	d107      	bne.n	8006ef8 <HAL_TIM_OC_Start+0x38>
 8006ee8:	f890 3040 	ldrb.w	r3, [r0, #64]	@ 0x40
 8006eec:	2b01      	cmp	r3, #1
 8006eee:	d1ed      	bne.n	8006ecc <HAL_TIM_OC_Start+0xc>
  TIM_CHANNEL_STATE_SET(htim, Channel, HAL_TIM_CHANNEL_STATE_BUSY);
 8006ef0:	2302      	movs	r3, #2
 8006ef2:	f880 3040 	strb.w	r3, [r0, #64]	@ 0x40
 8006ef6:	e00a      	b.n	8006f0e <HAL_TIM_OC_Start+0x4e>
  if (TIM_CHANNEL_STATE_GET(htim, Channel) != HAL_TIM_CHANNEL_STATE_READY)
 8006ef8:	f890 3041 	ldrb.w	r3, [r0, #65]	@ 0x41
 8006efc:	2b01      	cmp	r3, #1
 8006efe:	d1e5      	bne.n	8006ecc <HAL_TIM_OC_Start+0xc>
  TIM_CHANNEL_STATE_SET(htim, Channel, HAL_TIM_CHANNEL_STATE_BUSY);
 8006f00:	2302      	movs	r3, #2
 8006f02:	f880 3041 	strb.w	r3, [r0, #65]	@ 0x41
 8006f06:	e002      	b.n	8006f0e <HAL_TIM_OC_Start+0x4e>
 8006f08:	2302      	movs	r3, #2
 8006f0a:	f880 303e 	strb.w	r3, [r0, #62]	@ 0x3e
  TIM_CCxChannelCmd(htim->Instance, Channel, TIM_CCx_ENABLE);
 8006f0e:	6800      	ldr	r0, [r0, #0]
 8006f10:	2201      	movs	r2, #1
 8006f12:	f7ff ffc6 	bl	8006ea2 <TIM_CCxChannelCmd>
  if (IS_TIM_BREAK_INSTANCE(htim->Instance) != RESET)
 8006f16:	4b0f      	ldr	r3, [pc, #60]	@ (8006f54 <HAL_TIM_OC_Start+0x94>)
 8006f18:	4298      	cmp	r0, r3
 8006f1a:	d009      	beq.n	8006f30 <HAL_TIM_OC_Start+0x70>
  if (IS_TIM_SLAVE_INSTANCE(htim->Instance))
 8006f1c:	f1b0 4f80 	cmp.w	r0, #1073741824	@ 0x40000000
 8006f20:	d10b      	bne.n	8006f3a <HAL_TIM_OC_Start+0x7a>
    tmpsmcr = htim->Instance->SMCR & TIM_SMCR_SMS;
 8006f22:	6883      	ldr	r3, [r0, #8]
 8006f24:	f003 0307 	and.w	r3, r3, #7
    if (!IS_TIM_SLAVEMODE_TRIGGER_ENABLED(tmpsmcr))
 8006f28:	2b06      	cmp	r3, #6
 8006f2a:	d10d      	bne.n	8006f48 <HAL_TIM_OC_Start+0x88>
  return HAL_OK;
 8006f2c:	2000      	movs	r0, #0
}
 8006f2e:	bd08      	pop	{r3, pc}
    __HAL_TIM_MOE_ENABLE(htim);
 8006f30:	6c43      	ldr	r3, [r0, #68]	@ 0x44
 8006f32:	f443 4300 	orr.w	r3, r3, #32768	@ 0x8000
 8006f36:	6443      	str	r3, [r0, #68]	@ 0x44
  if (IS_TIM_SLAVE_INSTANCE(htim->Instance))
 8006f38:	e7f3      	b.n	8006f22 <HAL_TIM_OC_Start+0x62>
 8006f3a:	4b07      	ldr	r3, [pc, #28]	@ (8006f58 <HAL_TIM_OC_Start+0x98>)
 8006f3c:	4298      	cmp	r0, r3
 8006f3e:	d0f0      	beq.n	8006f22 <HAL_TIM_OC_Start+0x62>
 8006f40:	f503 6380 	add.w	r3, r3, #1024	@ 0x400
 8006f44:	4298      	cmp	r0, r3
 8006f46:	d0ec      	beq.n	8006f22 <HAL_TIM_OC_Start+0x62>
      __HAL_TIM_ENABLE(htim);
 8006f48:	6803      	ldr	r3, [r0, #0]
 8006f4a:	f043 0301 	orr.w	r3, r3, #1
 8006f4e:	6003      	str	r3, [r0, #0]
 8006f50:	e7ec      	b.n	8006f2c <HAL_TIM_OC_Start+0x6c>
 8006f52:	bf00      	nop
 8006f54:	40012c00 	.word	0x40012c00
 8006f58:	40000400 	.word	0x40000400

08006f5c <HAL_TIM_PWM_Start>:
HAL_StatusTypeDef HAL_TIM_PWM_Start(TIM_HandleTypeDef *htim, uint32_t Channel)
 8006f5c:	f7ff bfb0 	b.w	8006ec0 <HAL_TIM_OC_Start>

08006f60 <HAL_TIMEx_MasterConfigSynchronization>:
  *         mode.
  * @retval HAL status
  */
HAL_StatusTypeDef HAL_TIMEx_MasterConfigSynchronization(TIM_HandleTypeDef *htim,
                                                        const TIM_MasterConfigTypeDef *sMasterConfig)
{
 8006f60:	b530      	push	{r4, r5, lr}
  assert_param(IS_TIM_MASTER_INSTANCE(htim->Instance));
  assert_param(IS_TIM_TRGO_SOURCE(sMasterConfig->MasterOutputTrigger));
  assert_param(IS_TIM_MSM_STATE(sMasterConfig->MasterSlaveMode));

  /* Check input state */
  __HAL_LOCK(htim);
 8006f62:	f890 303c 	ldrb.w	r3, [r0, #60]	@ 0x3c
{
 8006f66:	4602      	mov	r2, r0
  __HAL_LOCK(htim);
 8006f68:	2b01      	cmp	r3, #1
 8006f6a:	f04f 0002 	mov.w	r0, #2
 8006f6e:	d022      	beq.n	8006fb6 <HAL_TIMEx_MasterConfigSynchronization+0x56>

  /* Change the handler state */
  htim->State = HAL_TIM_STATE_BUSY;

  /* Get the TIMx CR2 register value */
  tmpcr2 = htim->Instance->CR2;
 8006f70:	6813      	ldr	r3, [r2, #0]
  htim->State = HAL_TIM_STATE_BUSY;
 8006f72:	f882 003d 	strb.w	r0, [r2, #61]	@ 0x3d
  tmpcr2 = htim->Instance->CR2;
 8006f76:	685c      	ldr	r4, [r3, #4]
  tmpsmcr = htim->Instance->SMCR;

  /* Reset the MMS Bits */
  tmpcr2 &= ~TIM_CR2_MMS;
  /* Select the TRGO source */
  tmpcr2 |=  sMasterConfig->MasterOutputTrigger;
 8006f78:	680d      	ldr	r5, [r1, #0]
  tmpcr2 &= ~TIM_CR2_MMS;
 8006f7a:	f024 0470 	bic.w	r4, r4, #112	@ 0x70
  tmpcr2 |=  sMasterConfig->MasterOutputTrigger;
 8006f7e:	432c      	orrs	r4, r5
  tmpsmcr = htim->Instance->SMCR;
 8006f80:	6898      	ldr	r0, [r3, #8]

  /* Update TIMx CR2 */
  htim->Instance->CR2 = tmpcr2;
 8006f82:	605c      	str	r4, [r3, #4]

  if (IS_TIM_SLAVE_INSTANCE(htim->Instance))
 8006f84:	4c0c      	ldr	r4, [pc, #48]	@ (8006fb8 <HAL_TIMEx_MasterConfigSynchronization+0x58>)
 8006f86:	42a3      	cmp	r3, r4
 8006f88:	d00a      	beq.n	8006fa0 <HAL_TIMEx_MasterConfigSynchronization+0x40>
 8006f8a:	f1b3 4f80 	cmp.w	r3, #1073741824	@ 0x40000000
 8006f8e:	d007      	beq.n	8006fa0 <HAL_TIMEx_MasterConfigSynchronization+0x40>
 8006f90:	f5a4 3494 	sub.w	r4, r4, #75776	@ 0x12800
 8006f94:	42a3      	cmp	r3, r4
 8006f96:	d003      	beq.n	8006fa0 <HAL_TIMEx_MasterConfigSynchronization+0x40>
 8006f98:	f504 6480 	add.w	r4, r4, #1024	@ 0x400
 8006f9c:	42a3      	cmp	r3, r4
 8006f9e:	d104      	bne.n	8006faa <HAL_TIMEx_MasterConfigSynchronization+0x4a>
  {
    /* Reset the MSM Bit */
    tmpsmcr &= ~TIM_SMCR_MSM;
    /* Set master mode */
    tmpsmcr |= sMasterConfig->MasterSlaveMode;
 8006fa0:	6849      	ldr	r1, [r1, #4]
    tmpsmcr &= ~TIM_SMCR_MSM;
 8006fa2:	f020 0080 	bic.w	r0, r0, #128	@ 0x80
    tmpsmcr |= sMasterConfig->MasterSlaveMode;
 8006fa6:	4301      	orrs	r1, r0

    /* Update TIMx SMCR */
    htim->Instance->SMCR = tmpsmcr;
 8006fa8:	6099      	str	r1, [r3, #8]
  }

  /* Change the htim state */
  htim->State = HAL_TIM_STATE_READY;
 8006faa:	2301      	movs	r3, #1

  __HAL_UNLOCK(htim);
 8006fac:	2000      	movs	r0, #0
  htim->State = HAL_TIM_STATE_READY;
 8006fae:	f882 303d 	strb.w	r3, [r2, #61]	@ 0x3d
  __HAL_UNLOCK(htim);
 8006fb2:	f882 003c 	strb.w	r0, [r2, #60]	@ 0x3c

  return HAL_OK;
}
 8006fb6:	bd30      	pop	{r4, r5, pc}
 8006fb8:	40012c00 	.word	0x40012c00

08006fbc <HAL_TIMEx_CommutCallback>:
/**
  * @brief  Commutation callback in non-blocking mode
  * @param  htim TIM handle
  * @retval None
  */
__weak void HAL_TIMEx_CommutCallback(TIM_HandleTypeDef *htim)
 8006fbc:	4770      	bx	lr

08006fbe <HAL_TIMEx_BreakCallback>:
/**
  * @brief  Break detection callback in non-blocking mode
  * @param  htim TIM handle
  * @retval None
  */
__weak void HAL_TIMEx_BreakCallback(TIM_HandleTypeDef *htim)
 8006fbe:	4770      	bx	lr

08006fc0 <UART_EndRxTransfer>:
  * @retval None
  */
static void UART_EndRxTransfer(UART_HandleTypeDef *huart)
{
  /* Disable RXNE, PE and ERR (Frame error, noise error, overrun error) interrupts */
  ATOMIC_CLEAR_BIT(huart->Instance->CR1, (USART_CR1_RXNEIE | USART_CR1_PEIE));
 8006fc0:	6802      	ldr	r2, [r0, #0]
 */
__STATIC_FORCEINLINE uint32_t __LDREXW(volatile uint32_t *addr)
{
    uint32_t result;

   __ASM volatile ("ldrex %0, %1" : "=r" (result) : "Q" (*addr) );
 8006fc2:	f102 030c 	add.w	r3, r2, #12
 8006fc6:	e853 3f00 	ldrex	r3, [r3]
 8006fca:	f423 7390 	bic.w	r3, r3, #288	@ 0x120
 */
__STATIC_FORCEINLINE uint32_t __STREXW(uint32_t value, volatile uint32_t *addr)
{
   uint32_t result;

   __ASM volatile ("strex %0, %2, %1" : "=&r" (result), "=Q" (*addr) : "r" (value) );
 8006fce:	320c      	adds	r2, #12
 8006fd0:	e842 3100 	strex	r1, r3, [r2]
   return(result);
 8006fd4:	6802      	ldr	r2, [r0, #0]
 8006fd6:	2900      	cmp	r1, #0
 8006fd8:	d1f2      	bne.n	8006fc0 <UART_EndRxTransfer>
   __ASM volatile ("ldrex %0, %1" : "=r" (result) : "Q" (*addr) );
 8006fda:	f102 0314 	add.w	r3, r2, #20
 8006fde:	e853 3f00 	ldrex	r3, [r3]
  ATOMIC_CLEAR_BIT(huart->Instance->CR3, USART_CR3_EIE);
 8006fe2:	f023 0301 	bic.w	r3, r3, #1
   __ASM volatile ("strex %0, %2, %1" : "=&r" (result), "=Q" (*addr) : "r" (value) );
 8006fe6:	f102 0c14 	add.w	ip, r2, #20
 8006fea:	e84c 3100 	strex	r1, r3, [ip]
 8006fee:	2900      	cmp	r1, #0
 8006ff0:	d1f3      	bne.n	8006fda <UART_EndRxTransfer+0x1a>

  /* In case of reception waiting for IDLE event, disable also the IDLE IE interrupt source */
  if (huart->ReceptionType == HAL_UART_RECEPTION_TOIDLE)
 8006ff2:	6b03      	ldr	r3, [r0, #48]	@ 0x30
 8006ff4:	2b01      	cmp	r3, #1
 8006ff6:	d10b      	bne.n	8007010 <UART_EndRxTransfer+0x50>
   __ASM volatile ("ldrex %0, %1" : "=r" (result) : "Q" (*addr) );
 8006ff8:	f102 030c 	add.w	r3, r2, #12
 8006ffc:	e853 3f00 	ldrex	r3, [r3]
  {
    ATOMIC_CLEAR_BIT(huart->Instance->CR1, USART_CR1_IDLEIE);
 8007000:	f023 0310 	bic.w	r3, r3, #16
   __ASM volatile ("strex %0, %2, %1" : "=&r" (result), "=Q" (*addr) : "r" (value) );
 8007004:	f102 0c0c 	add.w	ip, r2, #12
 8007008:	e84c 3100 	strex	r1, r3, [ip]
 800700c:	2900      	cmp	r1, #0
 800700e:	d1f3      	bne.n	8006ff8 <UART_EndRxTransfer+0x38>
  }

  /* At end of Rx process, restore huart->RxState to Ready */
  huart->RxState = HAL_UART_STATE_READY;
 8007010:	2320      	movs	r3, #32
 8007012:	f880 3042 	strb.w	r3, [r0, #66]	@ 0x42
  huart->ReceptionType = HAL_UART_RECEPTION_STANDARD;
 8007016:	2300      	movs	r3, #0
 8007018:	6303      	str	r3, [r0, #48]	@ 0x30
}
 800701a:	4770      	bx	lr

0800701c <UART_SetConfig>:
  * @param  huart  Pointer to a UART_HandleTypeDef structure that contains
  *                the configuration information for the specified UART module.
  * @retval None
  */
static void UART_SetConfig(UART_HandleTypeDef *huart)
{
 800701c:	b510      	push	{r4, lr}
 800701e:	4604      	mov	r4, r0
  assert_param(IS_UART_MODE(huart->Init.Mode));

  /*-------------------------- USART CR2 Configuration -----------------------*/
  /* Configure the UART Stop Bits: Set STOP[13:12] bits
     according to huart->Init.StopBits value */
  MODIFY_REG(huart->Instance->CR2, USART_CR2_STOP, huart->Init.StopBits);
 8007020:	6803      	ldr	r3, [r0, #0]
 8007022:	68c1      	ldr	r1, [r0, #12]
 8007024:	691a      	ldr	r2, [r3, #16]
 8007026:	f422 5240 	bic.w	r2, r2, #12288	@ 0x3000
 800702a:	430a      	orrs	r2, r1
 800702c:	611a      	str	r2, [r3, #16]
  tmpreg = (uint32_t)huart->Init.WordLength | huart->Init.Parity | huart->Init.Mode | huart->Init.OverSampling;
  MODIFY_REG(huart->Instance->CR1,
             (uint32_t)(USART_CR1_M | USART_CR1_PCE | USART_CR1_PS | USART_CR1_TE | USART_CR1_RE | USART_CR1_OVER8),
             tmpreg);
#else
  tmpreg = (uint32_t)huart->Init.WordLength | huart->Init.Parity | huart->Init.Mode;
 800702e:	6882      	ldr	r2, [r0, #8]
 8007030:	6900      	ldr	r0, [r0, #16]
  MODIFY_REG(huart->Instance->CR1,
 8007032:	68d9      	ldr	r1, [r3, #12]
  tmpreg = (uint32_t)huart->Init.WordLength | huart->Init.Parity | huart->Init.Mode;
 8007034:	4302      	orrs	r2, r0
 8007036:	6960      	ldr	r0, [r4, #20]
  MODIFY_REG(huart->Instance->CR1,
 8007038:	f421 51b0 	bic.w	r1, r1, #5632	@ 0x1600
 800703c:	f021 010c 	bic.w	r1, r1, #12
  tmpreg = (uint32_t)huart->Init.WordLength | huart->Init.Parity | huart->Init.Mode;
 8007040:	4302      	orrs	r2, r0
  MODIFY_REG(huart->Instance->CR1,
 8007042:	430a      	orrs	r2, r1
 8007044:	60da      	str	r2, [r3, #12]
             tmpreg);
#endif /* USART_CR1_OVER8 */

  /*-------------------------- USART CR3 Configuration -----------------------*/
  /* Configure the UART HFC: Set CTSE and RTSE bits according to huart->Init.HwFlowCtl value */
  MODIFY_REG(huart->Instance->CR3, (USART_CR3_RTSE | USART_CR3_CTSE), huart->Init.HwFlowCtl);
 8007046:	695a      	ldr	r2, [r3, #20]
 8007048:	69a1      	ldr	r1, [r4, #24]
 800704a:	f422 7240 	bic.w	r2, r2, #768	@ 0x300
 800704e:	430a      	orrs	r2, r1
 8007050:	615a      	str	r2, [r3, #20]


  if(huart->Instance == USART1)
 8007052:	4a0e      	ldr	r2, [pc, #56]	@ (800708c <UART_SetConfig+0x70>)
 8007054:	4293      	cmp	r3, r2
 8007056:	d115      	bne.n	8007084 <UART_SetConfig+0x68>
  {
    pclk = HAL_RCC_GetPCLK2Freq();
 8007058:	f7ff fb2c 	bl	80066b4 <HAL_RCC_GetPCLK2Freq>
  else
  {
    huart->Instance->BRR = UART_BRR_SAMPLING16(pclk, huart->Init.BaudRate);
  }
#else
  huart->Instance->BRR = UART_BRR_SAMPLING16(pclk, huart->Init.BaudRate);
 800705c:	2319      	movs	r3, #25
 800705e:	4343      	muls	r3, r0
 8007060:	6862      	ldr	r2, [r4, #4]
 8007062:	6820      	ldr	r0, [r4, #0]
 8007064:	0092      	lsls	r2, r2, #2
 8007066:	fbb3 f3f2 	udiv	r3, r3, r2
 800706a:	2264      	movs	r2, #100	@ 0x64
 800706c:	fbb3 f1f2 	udiv	r1, r3, r2
 8007070:	fb02 3311 	mls	r3, r2, r1, r3
 8007074:	011b      	lsls	r3, r3, #4
 8007076:	3332      	adds	r3, #50	@ 0x32
 8007078:	fbb3 f3f2 	udiv	r3, r3, r2
 800707c:	eb03 1301 	add.w	r3, r3, r1, lsl #4
 8007080:	6083      	str	r3, [r0, #8]
#endif /* USART_CR1_OVER8 */
}
 8007082:	bd10      	pop	{r4, pc}
    pclk = HAL_RCC_GetPCLK1Freq();
 8007084:	f7ff fb06 	bl	8006694 <HAL_RCC_GetPCLK1Freq>
 8007088:	e7e8      	b.n	800705c <UART_SetConfig+0x40>
 800708a:	bf00      	nop
 800708c:	40013800 	.word	0x40013800

08007090 <HAL_UART_Init>:
{
 8007090:	b510      	push	{r4, lr}
  if (huart == NULL)
 8007092:	4604      	mov	r4, r0
 8007094:	b348      	cbz	r0, 80070ea <HAL_UART_Init+0x5a>
  if (huart->gState == HAL_UART_STATE_RESET)
 8007096:	f890 3041 	ldrb.w	r3, [r0, #65]	@ 0x41
 800709a:	f003 02ff 	and.w	r2, r3, #255	@ 0xff
 800709e:	b91b      	cbnz	r3, 80070a8 <HAL_UART_Init+0x18>
    huart->Lock = HAL_UNLOCKED;
 80070a0:	f880 2040 	strb.w	r2, [r0, #64]	@ 0x40
    HAL_UART_MspInit(huart);
 80070a4:	f7fb fed4 	bl	8002e50 <HAL_UART_MspInit>
  huart->gState = HAL_UART_STATE_BUSY;
 80070a8:	2324      	movs	r3, #36	@ 0x24
  __HAL_UART_DISABLE(huart);
 80070aa:	6822      	ldr	r2, [r4, #0]
  huart->gState = HAL_UART_STATE_BUSY;
 80070ac:	f884 3041 	strb.w	r3, [r4, #65]	@ 0x41
  __HAL_UART_DISABLE(huart);
 80070b0:	68d3      	ldr	r3, [r2, #12]
  UART_SetConfig(huart);
 80070b2:	4620      	mov	r0, r4
  __HAL_UART_DISABLE(huart);
 80070b4:	f423 5300 	bic.w	r3, r3, #8192	@ 0x2000
 80070b8:	60d3      	str	r3, [r2, #12]
  UART_SetConfig(huart);
 80070ba:	f7ff ffaf 	bl	800701c <UART_SetConfig>
  CLEAR_BIT(huart->Instance->CR2, (USART_CR2_LINEN | USART_CR2_CLKEN));
 80070be:	6823      	ldr	r3, [r4, #0]
  huart->ErrorCode = HAL_UART_ERROR_NONE;
 80070c0:	2000      	movs	r0, #0
  CLEAR_BIT(huart->Instance->CR2, (USART_CR2_LINEN | USART_CR2_CLKEN));
 80070c2:	691a      	ldr	r2, [r3, #16]
 80070c4:	f422 4290 	bic.w	r2, r2, #18432	@ 0x4800
 80070c8:	611a      	str	r2, [r3, #16]
  CLEAR_BIT(huart->Instance->CR3, (USART_CR3_SCEN | USART_CR3_HDSEL | USART_CR3_IREN));
 80070ca:	695a      	ldr	r2, [r3, #20]
 80070cc:	f022 022a 	bic.w	r2, r2, #42	@ 0x2a
 80070d0:	615a      	str	r2, [r3, #20]
  __HAL_UART_ENABLE(huart);
 80070d2:	68da      	ldr	r2, [r3, #12]
 80070d4:	f442 5200 	orr.w	r2, r2, #8192	@ 0x2000
 80070d8:	60da      	str	r2, [r3, #12]
  huart->gState = HAL_UART_STATE_READY;
 80070da:	2320      	movs	r3, #32
  huart->ErrorCode = HAL_UART_ERROR_NONE;
 80070dc:	6460      	str	r0, [r4, #68]	@ 0x44
  huart->gState = HAL_UART_STATE_READY;
 80070de:	f884 3041 	strb.w	r3, [r4, #65]	@ 0x41
  huart->RxState = HAL_UART_STATE_READY;
 80070e2:	f884 3042 	strb.w	r3, [r4, #66]	@ 0x42
  huart->RxEventType = HAL_UART_RXEVENT_TC;
 80070e6:	6360      	str	r0, [r4, #52]	@ 0x34
}
 80070e8:	bd10      	pop	{r4, pc}
    return HAL_ERROR;
 80070ea:	2001      	movs	r0, #1
 80070ec:	e7fc      	b.n	80070e8 <HAL_UART_Init+0x58>

080070ee <HAL_UART_Transmit_IT>:
  if (huart->gState == HAL_UART_STATE_READY)
 80070ee:	f890 3041 	ldrb.w	r3, [r0, #65]	@ 0x41
 80070f2:	2b20      	cmp	r3, #32
 80070f4:	d110      	bne.n	8007118 <HAL_UART_Transmit_IT+0x2a>
    if ((pData == NULL) || (Size == 0U))
 80070f6:	b189      	cbz	r1, 800711c <HAL_UART_Transmit_IT+0x2e>
 80070f8:	b182      	cbz	r2, 800711c <HAL_UART_Transmit_IT+0x2e>
    huart->TxXferCount = Size;
 80070fa:	84c2      	strh	r2, [r0, #38]	@ 0x26
    huart->TxXferSize = Size;
 80070fc:	8482      	strh	r2, [r0, #36]	@ 0x24
    huart->ErrorCode = HAL_UART_ERROR_NONE;
 80070fe:	2300      	movs	r3, #0
    huart->gState = HAL_UART_STATE_BUSY_TX;
 8007100:	2221      	movs	r2, #33	@ 0x21
    huart->pTxBuffPtr = pData;
 8007102:	6201      	str	r1, [r0, #32]
    __HAL_UART_ENABLE_IT(huart, UART_IT_TXE);
 8007104:	6801      	ldr	r1, [r0, #0]
    huart->ErrorCode = HAL_UART_ERROR_NONE;
 8007106:	6443      	str	r3, [r0, #68]	@ 0x44
    huart->gState = HAL_UART_STATE_BUSY_TX;
 8007108:	f880 2041 	strb.w	r2, [r0, #65]	@ 0x41
    __HAL_UART_ENABLE_IT(huart, UART_IT_TXE);
 800710c:	68ca      	ldr	r2, [r1, #12]
    return HAL_OK;
 800710e:	4618      	mov	r0, r3
    __HAL_UART_ENABLE_IT(huart, UART_IT_TXE);
 8007110:	f042 0280 	orr.w	r2, r2, #128	@ 0x80
 8007114:	60ca      	str	r2, [r1, #12]
    return HAL_OK;
 8007116:	4770      	bx	lr
    return HAL_BUSY;
 8007118:	2002      	movs	r0, #2
 800711a:	4770      	bx	lr
      return HAL_ERROR;
 800711c:	2001      	movs	r0, #1
}
 800711e:	4770      	bx	lr

08007120 <HAL_UART_TxCpltCallback>:
__weak void HAL_UART_TxCpltCallback(UART_HandleTypeDef *huart)
 8007120:	4770      	bx	lr

08007122 <HAL_UART_ErrorCallback>:
__weak void HAL_UART_ErrorCallback(UART_HandleTypeDef *huart)
 8007122:	4770      	bx	lr

08007124 <UART_DMAAbortOnError>:
{
 8007124:	b508      	push	{r3, lr}
  huart->RxXferCount = 0x00U;
 8007126:	2300      	movs	r3, #0
  UART_HandleTypeDef *huart = (UART_HandleTypeDef *)((DMA_HandleTypeDef *)hdma)->Parent;
 8007128:	6a40      	ldr	r0, [r0, #36]	@ 0x24
  huart->RxXferCount = 0x00U;
 800712a:	85c3      	strh	r3, [r0, #46]	@ 0x2e
  huart->TxXferCount = 0x00U;
 800712c:	84c3      	strh	r3, [r0, #38]	@ 0x26
  HAL_UART_ErrorCallback(huart);
 800712e:	f7ff fff8 	bl	8007122 <HAL_UART_ErrorCallback>
}
 8007132:	bd08      	pop	{r3, pc}

08007134 <HAL_UARTEx_RxEventCallback>:
}
 8007134:	4770      	bx	lr

08007136 <UART_Receive_IT.isra.0>:
  if (huart->RxState == HAL_UART_STATE_BUSY_RX)
 8007136:	f890 3042 	ldrb.w	r3, [r0, #66]	@ 0x42
static HAL_StatusTypeDef UART_Receive_IT(UART_HandleTypeDef *huart)
 800713a:	b507      	push	{r0, r1, r2, lr}
  if (huart->RxState == HAL_UART_STATE_BUSY_RX)
 800713c:	2b22      	cmp	r3, #34	@ 0x22
 800713e:	d142      	bne.n	80071c6 <UART_Receive_IT.isra.0+0x90>
    if ((huart->Init.WordLength == UART_WORDLENGTH_9B) && (huart->Init.Parity == UART_PARITY_NONE))
 8007140:	6881      	ldr	r1, [r0, #8]
      *pdata16bits = (uint16_t)(huart->Instance->DR & (uint16_t)0x01FF);
 8007142:	6802      	ldr	r2, [r0, #0]
    if ((huart->Init.WordLength == UART_WORDLENGTH_9B) && (huart->Init.Parity == UART_PARITY_NONE))
 8007144:	f5b1 5f80 	cmp.w	r1, #4096	@ 0x1000
      pdata16bits = (uint16_t *) huart->pRxBuffPtr;
 8007148:	6a83      	ldr	r3, [r0, #40]	@ 0x28
    if ((huart->Init.WordLength == UART_WORDLENGTH_9B) && (huart->Init.Parity == UART_PARITY_NONE))
 800714a:	d13e      	bne.n	80071ca <UART_Receive_IT.isra.0+0x94>
 800714c:	6901      	ldr	r1, [r0, #16]
 800714e:	2900      	cmp	r1, #0
 8007150:	d13e      	bne.n	80071d0 <UART_Receive_IT.isra.0+0x9a>
      *pdata16bits = (uint16_t)(huart->Instance->DR & (uint16_t)0x01FF);
 8007152:	6852      	ldr	r2, [r2, #4]
 8007154:	f3c2 0208 	ubfx	r2, r2, #0, #9
 8007158:	f823 2b02 	strh.w	r2, [r3], #2
      huart->pRxBuffPtr += 2U;
 800715c:	6283      	str	r3, [r0, #40]	@ 0x28
    if (--huart->RxXferCount == 0U)
 800715e:	8dc3      	ldrh	r3, [r0, #46]	@ 0x2e
 8007160:	3b01      	subs	r3, #1
 8007162:	b29b      	uxth	r3, r3
 8007164:	85c3      	strh	r3, [r0, #46]	@ 0x2e
 8007166:	2b00      	cmp	r3, #0
 8007168:	d12d      	bne.n	80071c6 <UART_Receive_IT.isra.0+0x90>
      __HAL_UART_DISABLE_IT(huart, UART_IT_RXNE);
 800716a:	6802      	ldr	r2, [r0, #0]
 800716c:	68d1      	ldr	r1, [r2, #12]
 800716e:	f021 0120 	bic.w	r1, r1, #32
 8007172:	60d1      	str	r1, [r2, #12]
      __HAL_UART_DISABLE_IT(huart, UART_IT_PE);
 8007174:	68d1      	ldr	r1, [r2, #12]
 8007176:	f421 7180 	bic.w	r1, r1, #256	@ 0x100
 800717a:	60d1      	str	r1, [r2, #12]
      __HAL_UART_DISABLE_IT(huart, UART_IT_ERR);
 800717c:	6951      	ldr	r1, [r2, #20]
 800717e:	f021 0101 	bic.w	r1, r1, #1
 8007182:	6151      	str	r1, [r2, #20]
      huart->RxState = HAL_UART_STATE_READY;
 8007184:	2220      	movs	r2, #32
 8007186:	f880 2042 	strb.w	r2, [r0, #66]	@ 0x42
      huart->RxEventType = HAL_UART_RXEVENT_TC;
 800718a:	6343      	str	r3, [r0, #52]	@ 0x34
      if (huart->ReceptionType == HAL_UART_RECEPTION_TOIDLE)
 800718c:	6b02      	ldr	r2, [r0, #48]	@ 0x30
 800718e:	2a01      	cmp	r2, #1
 8007190:	6802      	ldr	r2, [r0, #0]
 8007192:	d127      	bne.n	80071e4 <UART_Receive_IT.isra.0+0xae>
        huart->ReceptionType = HAL_UART_RECEPTION_STANDARD;
 8007194:	6303      	str	r3, [r0, #48]	@ 0x30
   __ASM volatile ("ldrex %0, %1" : "=r" (result) : "Q" (*addr) );
 8007196:	f102 030c 	add.w	r3, r2, #12
 800719a:	e853 3f00 	ldrex	r3, [r3]
        ATOMIC_CLEAR_BIT(huart->Instance->CR1, USART_CR1_IDLEIE);
 800719e:	f023 0310 	bic.w	r3, r3, #16
   __ASM volatile ("strex %0, %2, %1" : "=&r" (result), "=Q" (*addr) : "r" (value) );
 80071a2:	f102 0c0c 	add.w	ip, r2, #12
 80071a6:	e84c 3100 	strex	r1, r3, [ip]
 80071aa:	2900      	cmp	r1, #0
 80071ac:	d1f3      	bne.n	8007196 <UART_Receive_IT.isra.0+0x60>
        if (__HAL_UART_GET_FLAG(huart, UART_FLAG_IDLE))
 80071ae:	6813      	ldr	r3, [r2, #0]
 80071b0:	06db      	lsls	r3, r3, #27
 80071b2:	d505      	bpl.n	80071c0 <UART_Receive_IT.isra.0+0x8a>
          __HAL_UART_CLEAR_IDLEFLAG(huart);
 80071b4:	9101      	str	r1, [sp, #4]
 80071b6:	6813      	ldr	r3, [r2, #0]
 80071b8:	9301      	str	r3, [sp, #4]
 80071ba:	6853      	ldr	r3, [r2, #4]
 80071bc:	9301      	str	r3, [sp, #4]
 80071be:	9b01      	ldr	r3, [sp, #4]
        HAL_UARTEx_RxEventCallback(huart, huart->RxXferSize);
 80071c0:	8d81      	ldrh	r1, [r0, #44]	@ 0x2c
 80071c2:	f7ff ffb7 	bl	8007134 <HAL_UARTEx_RxEventCallback>
}
 80071c6:	b003      	add	sp, #12
 80071c8:	bd00      	pop	{pc}
      if ((huart->Init.WordLength == UART_WORDLENGTH_9B) || ((huart->Init.WordLength == UART_WORDLENGTH_8B) && (huart->Init.Parity == UART_PARITY_NONE)))
 80071ca:	b939      	cbnz	r1, 80071dc <UART_Receive_IT.isra.0+0xa6>
 80071cc:	6901      	ldr	r1, [r0, #16]
 80071ce:	b929      	cbnz	r1, 80071dc <UART_Receive_IT.isra.0+0xa6>
        *pdata8bits = (uint8_t)(huart->Instance->DR & (uint8_t)0x00FF);
 80071d0:	6852      	ldr	r2, [r2, #4]
 80071d2:	b2d2      	uxtb	r2, r2
 80071d4:	701a      	strb	r2, [r3, #0]
      huart->pRxBuffPtr += 1U;
 80071d6:	6a83      	ldr	r3, [r0, #40]	@ 0x28
 80071d8:	3301      	adds	r3, #1
 80071da:	e7bf      	b.n	800715c <UART_Receive_IT.isra.0+0x26>
        *pdata8bits = (uint8_t)(huart->Instance->DR & (uint8_t)0x007F);
 80071dc:	6852      	ldr	r2, [r2, #4]
 80071de:	f002 027f 	and.w	r2, r2, #127	@ 0x7f
 80071e2:	e7f7      	b.n	80071d4 <UART_Receive_IT.isra.0+0x9e>
        HAL_UART_RxCpltCallback(huart);
 80071e4:	f7fb f9a0 	bl	8002528 <HAL_UART_RxCpltCallback>
 80071e8:	e7ed      	b.n	80071c6 <UART_Receive_IT.isra.0+0x90>
	...

080071ec <HAL_UART_IRQHandler>:
  uint32_t isrflags   = READ_REG(huart->Instance->SR);
 80071ec:	6803      	ldr	r3, [r0, #0]
{
 80071ee:	b573      	push	{r0, r1, r4, r5, r6, lr}
  uint32_t isrflags   = READ_REG(huart->Instance->SR);
 80071f0:	681a      	ldr	r2, [r3, #0]
{
 80071f2:	4604      	mov	r4, r0
  if (errorflags == RESET)
 80071f4:	0716      	lsls	r6, r2, #28
  uint32_t cr1its     = READ_REG(huart->Instance->CR1);
 80071f6:	68d9      	ldr	r1, [r3, #12]
  uint32_t cr3its     = READ_REG(huart->Instance->CR3);
 80071f8:	695d      	ldr	r5, [r3, #20]
  if (errorflags == RESET)
 80071fa:	d108      	bne.n	800720e <HAL_UART_IRQHandler+0x22>
    if (((isrflags & USART_SR_RXNE) != RESET) && ((cr1its & USART_CR1_RXNEIE) != RESET))
 80071fc:	0696      	lsls	r6, r2, #26
 80071fe:	d568      	bpl.n	80072d2 <HAL_UART_IRQHandler+0xe6>
 8007200:	068d      	lsls	r5, r1, #26
 8007202:	d566      	bpl.n	80072d2 <HAL_UART_IRQHandler+0xe6>
}
 8007204:	b002      	add	sp, #8
 8007206:	e8bd 4070 	ldmia.w	sp!, {r4, r5, r6, lr}
      UART_Receive_IT(huart);
 800720a:	f7ff bf94 	b.w	8007136 <UART_Receive_IT.isra.0>
  if ((errorflags != RESET) && (((cr3its & USART_CR3_EIE) != RESET)
 800720e:	f005 0001 	and.w	r0, r5, #1
                                || ((cr1its & (USART_CR1_RXNEIE | USART_CR1_PEIE)) != RESET)))
 8007212:	f401 7590 	and.w	r5, r1, #288	@ 0x120
 8007216:	4305      	orrs	r5, r0
 8007218:	d05b      	beq.n	80072d2 <HAL_UART_IRQHandler+0xe6>
    if (((isrflags & USART_SR_PE) != RESET) && ((cr1its & USART_CR1_PEIE) != RESET))
 800721a:	07d6      	lsls	r6, r2, #31
 800721c:	d505      	bpl.n	800722a <HAL_UART_IRQHandler+0x3e>
 800721e:	05cd      	lsls	r5, r1, #23
      huart->ErrorCode |= HAL_UART_ERROR_PE;
 8007220:	bf42      	ittt	mi
 8007222:	6c63      	ldrmi	r3, [r4, #68]	@ 0x44
 8007224:	f043 0301 	orrmi.w	r3, r3, #1
 8007228:	6463      	strmi	r3, [r4, #68]	@ 0x44
    if (((isrflags & USART_SR_NE) != RESET) && ((cr3its & USART_CR3_EIE) != RESET))
 800722a:	0753      	lsls	r3, r2, #29
 800722c:	d504      	bpl.n	8007238 <HAL_UART_IRQHandler+0x4c>
 800722e:	b118      	cbz	r0, 8007238 <HAL_UART_IRQHandler+0x4c>
      huart->ErrorCode |= HAL_UART_ERROR_NE;
 8007230:	6c63      	ldr	r3, [r4, #68]	@ 0x44
 8007232:	f043 0302 	orr.w	r3, r3, #2
 8007236:	6463      	str	r3, [r4, #68]	@ 0x44
    if (((isrflags & USART_SR_FE) != RESET) && ((cr3its & USART_CR3_EIE) != RESET))
 8007238:	0796      	lsls	r6, r2, #30
 800723a:	d504      	bpl.n	8007246 <HAL_UART_IRQHandler+0x5a>
 800723c:	b118      	cbz	r0, 8007246 <HAL_UART_IRQHandler+0x5a>
      huart->ErrorCode |= HAL_UART_ERROR_FE;
 800723e:	6c63      	ldr	r3, [r4, #68]	@ 0x44
 8007240:	f043 0304 	orr.w	r3, r3, #4
 8007244:	6463      	str	r3, [r4, #68]	@ 0x44
    if (((isrflags & USART_SR_ORE) != RESET) && (((cr1its & USART_CR1_RXNEIE) != RESET)
 8007246:	0715      	lsls	r5, r2, #28
 8007248:	d507      	bpl.n	800725a <HAL_UART_IRQHandler+0x6e>
 800724a:	f001 0320 	and.w	r3, r1, #32
 800724e:	4303      	orrs	r3, r0
      huart->ErrorCode |= HAL_UART_ERROR_ORE;
 8007250:	bf1e      	ittt	ne
 8007252:	6c63      	ldrne	r3, [r4, #68]	@ 0x44
 8007254:	f043 0308 	orrne.w	r3, r3, #8
 8007258:	6463      	strne	r3, [r4, #68]	@ 0x44
    if (huart->ErrorCode != HAL_UART_ERROR_NONE)
 800725a:	6c63      	ldr	r3, [r4, #68]	@ 0x44
 800725c:	2b00      	cmp	r3, #0
 800725e:	d032      	beq.n	80072c6 <HAL_UART_IRQHandler+0xda>
      if (((isrflags & USART_SR_RXNE) != RESET) && ((cr1its & USART_CR1_RXNEIE) != RESET))
 8007260:	0692      	lsls	r2, r2, #26
 8007262:	d504      	bpl.n	800726e <HAL_UART_IRQHandler+0x82>
 8007264:	068b      	lsls	r3, r1, #26
 8007266:	d502      	bpl.n	800726e <HAL_UART_IRQHandler+0x82>
        UART_Receive_IT(huart);
 8007268:	4620      	mov	r0, r4
 800726a:	f7ff ff64 	bl	8007136 <UART_Receive_IT.isra.0>
      dmarequest = HAL_IS_BIT_SET(huart->Instance->CR3, USART_CR3_DMAR);
 800726e:	6826      	ldr	r6, [r4, #0]
        UART_EndRxTransfer(huart);
 8007270:	4620      	mov	r0, r4
      dmarequest = HAL_IS_BIT_SET(huart->Instance->CR3, USART_CR3_DMAR);
 8007272:	6973      	ldr	r3, [r6, #20]
      if (((huart->ErrorCode & HAL_UART_ERROR_ORE) != RESET) || dmarequest)
 8007274:	6c62      	ldr	r2, [r4, #68]	@ 0x44
      dmarequest = HAL_IS_BIT_SET(huart->Instance->CR3, USART_CR3_DMAR);
 8007276:	f003 0340 	and.w	r3, r3, #64	@ 0x40
      if (((huart->ErrorCode & HAL_UART_ERROR_ORE) != RESET) || dmarequest)
 800727a:	f002 0208 	and.w	r2, r2, #8
 800727e:	ea53 0502 	orrs.w	r5, r3, r2
 8007282:	d022      	beq.n	80072ca <HAL_UART_IRQHandler+0xde>
        UART_EndRxTransfer(huart);
 8007284:	f7ff fe9c 	bl	8006fc0 <UART_EndRxTransfer>
        if (HAL_IS_BIT_SET(huart->Instance->CR3, USART_CR3_DMAR))
 8007288:	6973      	ldr	r3, [r6, #20]
 800728a:	065e      	lsls	r6, r3, #25
 800728c:	d518      	bpl.n	80072c0 <HAL_UART_IRQHandler+0xd4>
          ATOMIC_CLEAR_BIT(huart->Instance->CR3, USART_CR3_DMAR);
 800728e:	6822      	ldr	r2, [r4, #0]
   __ASM volatile ("ldrex %0, %1" : "=r" (result) : "Q" (*addr) );
 8007290:	f102 0314 	add.w	r3, r2, #20
 8007294:	e853 3f00 	ldrex	r3, [r3]
 8007298:	f023 0340 	bic.w	r3, r3, #64	@ 0x40
   __ASM volatile ("strex %0, %2, %1" : "=&r" (result), "=Q" (*addr) : "r" (value) );
 800729c:	3214      	adds	r2, #20
 800729e:	e842 3100 	strex	r1, r3, [r2]
 80072a2:	2900      	cmp	r1, #0
 80072a4:	d1f3      	bne.n	800728e <HAL_UART_IRQHandler+0xa2>
          if (huart->hdmarx != NULL)
 80072a6:	6be0      	ldr	r0, [r4, #60]	@ 0x3c
 80072a8:	b150      	cbz	r0, 80072c0 <HAL_UART_IRQHandler+0xd4>
            huart->hdmarx->XferAbortCallback = UART_DMAAbortOnError;
 80072aa:	4b74      	ldr	r3, [pc, #464]	@ (800747c <HAL_UART_IRQHandler+0x290>)
 80072ac:	6343      	str	r3, [r0, #52]	@ 0x34
            if (HAL_DMA_Abort_IT(huart->hdmarx) != HAL_OK)
 80072ae:	f7fc fb8f 	bl	80039d0 <HAL_DMA_Abort_IT>
 80072b2:	b140      	cbz	r0, 80072c6 <HAL_UART_IRQHandler+0xda>
              huart->hdmarx->XferAbortCallback(huart->hdmarx);
 80072b4:	6be0      	ldr	r0, [r4, #60]	@ 0x3c
 80072b6:	6b43      	ldr	r3, [r0, #52]	@ 0x34
}
 80072b8:	b002      	add	sp, #8
 80072ba:	e8bd 4070 	ldmia.w	sp!, {r4, r5, r6, lr}
              huart->hdmarx->XferAbortCallback(huart->hdmarx);
 80072be:	4718      	bx	r3
            HAL_UART_ErrorCallback(huart);
 80072c0:	4620      	mov	r0, r4
 80072c2:	f7ff ff2e 	bl	8007122 <HAL_UART_ErrorCallback>
}
 80072c6:	b002      	add	sp, #8
 80072c8:	bd70      	pop	{r4, r5, r6, pc}
        HAL_UART_ErrorCallback(huart);
 80072ca:	f7ff ff2a 	bl	8007122 <HAL_UART_ErrorCallback>
        huart->ErrorCode = HAL_UART_ERROR_NONE;
 80072ce:	6465      	str	r5, [r4, #68]	@ 0x44
 80072d0:	e7f9      	b.n	80072c6 <HAL_UART_IRQHandler+0xda>
  if ((huart->ReceptionType == HAL_UART_RECEPTION_TOIDLE)
 80072d2:	6b20      	ldr	r0, [r4, #48]	@ 0x30
 80072d4:	2801      	cmp	r0, #1
 80072d6:	f040 8094 	bne.w	8007402 <HAL_UART_IRQHandler+0x216>
      && ((isrflags & USART_SR_IDLE) != 0U)
 80072da:	06d5      	lsls	r5, r2, #27
 80072dc:	f140 8091 	bpl.w	8007402 <HAL_UART_IRQHandler+0x216>
      && ((cr1its & USART_SR_IDLE) != 0U))
 80072e0:	06c8      	lsls	r0, r1, #27
 80072e2:	f140 808e 	bpl.w	8007402 <HAL_UART_IRQHandler+0x216>
    __HAL_UART_CLEAR_IDLEFLAG(huart);
 80072e6:	2200      	movs	r2, #0
 80072e8:	9201      	str	r2, [sp, #4]
 80072ea:	681a      	ldr	r2, [r3, #0]
 80072ec:	9201      	str	r2, [sp, #4]
 80072ee:	685a      	ldr	r2, [r3, #4]
 80072f0:	9201      	str	r2, [sp, #4]
 80072f2:	9a01      	ldr	r2, [sp, #4]
    if (HAL_IS_BIT_SET(huart->Instance->CR3, USART_CR3_DMAR))
 80072f4:	695a      	ldr	r2, [r3, #20]
 80072f6:	0652      	lsls	r2, r2, #25
 80072f8:	d54d      	bpl.n	8007396 <HAL_UART_IRQHandler+0x1aa>
      uint16_t nb_remaining_rx_data = (uint16_t) __HAL_DMA_GET_COUNTER(huart->hdmarx);
 80072fa:	6be1      	ldr	r1, [r4, #60]	@ 0x3c
 80072fc:	680a      	ldr	r2, [r1, #0]
 80072fe:	6852      	ldr	r2, [r2, #4]
 8007300:	b292      	uxth	r2, r2
      if ((nb_remaining_rx_data > 0U)
 8007302:	2a00      	cmp	r2, #0
 8007304:	d0df      	beq.n	80072c6 <HAL_UART_IRQHandler+0xda>
          && (nb_remaining_rx_data < huart->RxXferSize))
 8007306:	8da0      	ldrh	r0, [r4, #44]	@ 0x2c
 8007308:	4290      	cmp	r0, r2
 800730a:	d9dc      	bls.n	80072c6 <HAL_UART_IRQHandler+0xda>
        huart->RxXferCount = nb_remaining_rx_data;
 800730c:	85e2      	strh	r2, [r4, #46]	@ 0x2e
        if (huart->hdmarx->Init.Mode != DMA_CIRCULAR)
 800730e:	698a      	ldr	r2, [r1, #24]
 8007310:	2a20      	cmp	r2, #32
 8007312:	d036      	beq.n	8007382 <HAL_UART_IRQHandler+0x196>
   __ASM volatile ("ldrex %0, %1" : "=r" (result) : "Q" (*addr) );
 8007314:	f103 020c 	add.w	r2, r3, #12
 8007318:	e852 2f00 	ldrex	r2, [r2]
          ATOMIC_CLEAR_BIT(huart->Instance->CR1, USART_CR1_PEIE);
 800731c:	f422 7280 	bic.w	r2, r2, #256	@ 0x100
   __ASM volatile ("strex %0, %2, %1" : "=&r" (result), "=Q" (*addr) : "r" (value) );
 8007320:	f103 000c 	add.w	r0, r3, #12
 8007324:	e840 2100 	strex	r1, r2, [r0]
 8007328:	2900      	cmp	r1, #0
 800732a:	d1f3      	bne.n	8007314 <HAL_UART_IRQHandler+0x128>
   __ASM volatile ("ldrex %0, %1" : "=r" (result) : "Q" (*addr) );
 800732c:	f103 0214 	add.w	r2, r3, #20
 8007330:	e852 2f00 	ldrex	r2, [r2]
          ATOMIC_CLEAR_BIT(huart->Instance->CR3, USART_CR3_EIE);
 8007334:	f022 0201 	bic.w	r2, r2, #1
   __ASM volatile ("strex %0, %2, %1" : "=&r" (result), "=Q" (*addr) : "r" (value) );
 8007338:	f103 0014 	add.w	r0, r3, #20
 800733c:	e840 2100 	strex	r1, r2, [r0]
 8007340:	2900      	cmp	r1, #0
 8007342:	d1f3      	bne.n	800732c <HAL_UART_IRQHandler+0x140>
   __ASM volatile ("ldrex %0, %1" : "=r" (result) : "Q" (*addr) );
 8007344:	f103 0214 	add.w	r2, r3, #20
 8007348:	e852 2f00 	ldrex	r2, [r2]
          ATOMIC_CLEAR_BIT(huart->Instance->CR3, USART_CR3_DMAR);
 800734c:	f022 0240 	bic.w	r2, r2, #64	@ 0x40
   __ASM volatile ("strex %0, %2, %1" : "=&r" (result), "=Q" (*addr) : "r" (value) );
 8007350:	f103 0014 	add.w	r0, r3, #20
 8007354:	e840 2100 	strex	r1, r2, [r0]
 8007358:	2900      	cmp	r1, #0
 800735a:	d1f3      	bne.n	8007344 <HAL_UART_IRQHandler+0x158>
          huart->RxState = HAL_UART_STATE_READY;
 800735c:	2220      	movs	r2, #32
 800735e:	f884 2042 	strb.w	r2, [r4, #66]	@ 0x42
          huart->ReceptionType = HAL_UART_RECEPTION_STANDARD;
 8007362:	6321      	str	r1, [r4, #48]	@ 0x30
   __ASM volatile ("ldrex %0, %1" : "=r" (result) : "Q" (*addr) );
 8007364:	f103 020c 	add.w	r2, r3, #12
 8007368:	e852 2f00 	ldrex	r2, [r2]
          ATOMIC_CLEAR_BIT(huart->Instance->CR1, USART_CR1_IDLEIE);
 800736c:	f022 0210 	bic.w	r2, r2, #16
   __ASM volatile ("strex %0, %2, %1" : "=&r" (result), "=Q" (*addr) : "r" (value) );
 8007370:	f103 000c 	add.w	r0, r3, #12
 8007374:	e840 2100 	strex	r1, r2, [r0]
 8007378:	2900      	cmp	r1, #0
 800737a:	d1f3      	bne.n	8007364 <HAL_UART_IRQHandler+0x178>
          (void)HAL_DMA_Abort(huart->hdmarx);
 800737c:	6be0      	ldr	r0, [r4, #60]	@ 0x3c
 800737e:	f7fc fb07 	bl	8003990 <HAL_DMA_Abort>
        huart->RxEventType = HAL_UART_RXEVENT_IDLE;
 8007382:	2302      	movs	r3, #2
 8007384:	6363      	str	r3, [r4, #52]	@ 0x34
        HAL_UARTEx_RxEventCallback(huart, (huart->RxXferSize - huart->RxXferCount));
 8007386:	8de3      	ldrh	r3, [r4, #46]	@ 0x2e
 8007388:	8da1      	ldrh	r1, [r4, #44]	@ 0x2c
 800738a:	1ac9      	subs	r1, r1, r3
 800738c:	b289      	uxth	r1, r1
        HAL_UARTEx_RxEventCallback(huart, nb_rx_data);
 800738e:	4620      	mov	r0, r4
 8007390:	f7ff fed0 	bl	8007134 <HAL_UARTEx_RxEventCallback>
 8007394:	e797      	b.n	80072c6 <HAL_UART_IRQHandler+0xda>
      uint16_t nb_rx_data = huart->RxXferSize - huart->RxXferCount;
 8007396:	8de2      	ldrh	r2, [r4, #46]	@ 0x2e
      if ((huart->RxXferCount > 0U)
 8007398:	8de1      	ldrh	r1, [r4, #46]	@ 0x2e
      uint16_t nb_rx_data = huart->RxXferSize - huart->RxXferCount;
 800739a:	b292      	uxth	r2, r2
      if ((huart->RxXferCount > 0U)
 800739c:	b289      	uxth	r1, r1
 800739e:	2900      	cmp	r1, #0
 80073a0:	d091      	beq.n	80072c6 <HAL_UART_IRQHandler+0xda>
      uint16_t nb_rx_data = huart->RxXferSize - huart->RxXferCount;
 80073a2:	8da1      	ldrh	r1, [r4, #44]	@ 0x2c
 80073a4:	1a89      	subs	r1, r1, r2
 80073a6:	b289      	uxth	r1, r1
          && (nb_rx_data > 0U))
 80073a8:	2900      	cmp	r1, #0
 80073aa:	d08c      	beq.n	80072c6 <HAL_UART_IRQHandler+0xda>
   __ASM volatile ("ldrex %0, %1" : "=r" (result) : "Q" (*addr) );
 80073ac:	f103 020c 	add.w	r2, r3, #12
 80073b0:	e852 2f00 	ldrex	r2, [r2]
        ATOMIC_CLEAR_BIT(huart->Instance->CR1, (USART_CR1_RXNEIE | USART_CR1_PEIE));
 80073b4:	f422 7290 	bic.w	r2, r2, #288	@ 0x120
   __ASM volatile ("strex %0, %2, %1" : "=&r" (result), "=Q" (*addr) : "r" (value) );
 80073b8:	f103 050c 	add.w	r5, r3, #12
 80073bc:	e845 2000 	strex	r0, r2, [r5]
 80073c0:	2800      	cmp	r0, #0
 80073c2:	d1f3      	bne.n	80073ac <HAL_UART_IRQHandler+0x1c0>
   __ASM volatile ("ldrex %0, %1" : "=r" (result) : "Q" (*addr) );
 80073c4:	f103 0214 	add.w	r2, r3, #20
 80073c8:	e852 2f00 	ldrex	r2, [r2]
        ATOMIC_CLEAR_BIT(huart->Instance->CR3, USART_CR3_EIE);
 80073cc:	f022 0201 	bic.w	r2, r2, #1
   __ASM volatile ("strex %0, %2, %1" : "=&r" (result), "=Q" (*addr) : "r" (value) );
 80073d0:	f103 0514 	add.w	r5, r3, #20
 80073d4:	e845 2000 	strex	r0, r2, [r5]
 80073d8:	2800      	cmp	r0, #0
 80073da:	d1f3      	bne.n	80073c4 <HAL_UART_IRQHandler+0x1d8>
        huart->RxState = HAL_UART_STATE_READY;
 80073dc:	2220      	movs	r2, #32
 80073de:	f884 2042 	strb.w	r2, [r4, #66]	@ 0x42
        huart->ReceptionType = HAL_UART_RECEPTION_STANDARD;
 80073e2:	6320      	str	r0, [r4, #48]	@ 0x30
   __ASM volatile ("ldrex %0, %1" : "=r" (result) : "Q" (*addr) );
 80073e4:	f103 020c 	add.w	r2, r3, #12
 80073e8:	e852 2f00 	ldrex	r2, [r2]
        ATOMIC_CLEAR_BIT(huart->Instance->CR1, USART_CR1_IDLEIE);
 80073ec:	f022 0210 	bic.w	r2, r2, #16
   __ASM volatile ("strex %0, %2, %1" : "=&r" (result), "=Q" (*addr) : "r" (value) );
 80073f0:	f103 050c 	add.w	r5, r3, #12
 80073f4:	e845 2000 	strex	r0, r2, [r5]
 80073f8:	2800      	cmp	r0, #0
 80073fa:	d1f3      	bne.n	80073e4 <HAL_UART_IRQHandler+0x1f8>
        huart->RxEventType = HAL_UART_RXEVENT_IDLE;
 80073fc:	2302      	movs	r3, #2
 80073fe:	6363      	str	r3, [r4, #52]	@ 0x34
 8007400:	e7c5      	b.n	800738e <HAL_UART_IRQHandler+0x1a2>
  if (((isrflags & USART_SR_TXE) != RESET) && ((cr1its & USART_CR1_TXEIE) != RESET))
 8007402:	0616      	lsls	r6, r2, #24
 8007404:	d528      	bpl.n	8007458 <HAL_UART_IRQHandler+0x26c>
 8007406:	060d      	lsls	r5, r1, #24
 8007408:	d526      	bpl.n	8007458 <HAL_UART_IRQHandler+0x26c>
  if (huart->gState == HAL_UART_STATE_BUSY_TX)
 800740a:	f894 2041 	ldrb.w	r2, [r4, #65]	@ 0x41
 800740e:	2a21      	cmp	r2, #33	@ 0x21
 8007410:	f47f af59 	bne.w	80072c6 <HAL_UART_IRQHandler+0xda>
    if ((huart->Init.WordLength == UART_WORDLENGTH_9B) && (huart->Init.Parity == UART_PARITY_NONE))
 8007414:	68a1      	ldr	r1, [r4, #8]
      tmp = (const uint16_t *) huart->pTxBuffPtr;
 8007416:	6a22      	ldr	r2, [r4, #32]
    if ((huart->Init.WordLength == UART_WORDLENGTH_9B) && (huart->Init.Parity == UART_PARITY_NONE))
 8007418:	f5b1 5f80 	cmp.w	r1, #4096	@ 0x1000
 800741c:	d117      	bne.n	800744e <HAL_UART_IRQHandler+0x262>
 800741e:	6921      	ldr	r1, [r4, #16]
 8007420:	b9a9      	cbnz	r1, 800744e <HAL_UART_IRQHandler+0x262>
      huart->Instance->DR = (uint16_t)(*tmp & (uint16_t)0x01FF);
 8007422:	f832 1b02 	ldrh.w	r1, [r2], #2
 8007426:	f3c1 0108 	ubfx	r1, r1, #0, #9
 800742a:	6059      	str	r1, [r3, #4]
      huart->pTxBuffPtr += 2U;
 800742c:	6222      	str	r2, [r4, #32]
    if (--huart->TxXferCount == 0U)
 800742e:	8ce2      	ldrh	r2, [r4, #38]	@ 0x26
 8007430:	3a01      	subs	r2, #1
 8007432:	b292      	uxth	r2, r2
 8007434:	84e2      	strh	r2, [r4, #38]	@ 0x26
 8007436:	2a00      	cmp	r2, #0
 8007438:	f47f af45 	bne.w	80072c6 <HAL_UART_IRQHandler+0xda>
      __HAL_UART_DISABLE_IT(huart, UART_IT_TXE);
 800743c:	68da      	ldr	r2, [r3, #12]
 800743e:	f022 0280 	bic.w	r2, r2, #128	@ 0x80
 8007442:	60da      	str	r2, [r3, #12]
      __HAL_UART_ENABLE_IT(huart, UART_IT_TC);
 8007444:	68da      	ldr	r2, [r3, #12]
 8007446:	f042 0240 	orr.w	r2, r2, #64	@ 0x40
 800744a:	60da      	str	r2, [r3, #12]
 800744c:	e73b      	b.n	80072c6 <HAL_UART_IRQHandler+0xda>
      huart->Instance->DR = (uint8_t)(*huart->pTxBuffPtr++ & (uint8_t)0x00FF);
 800744e:	1c51      	adds	r1, r2, #1
 8007450:	6221      	str	r1, [r4, #32]
 8007452:	7812      	ldrb	r2, [r2, #0]
 8007454:	605a      	str	r2, [r3, #4]
 8007456:	e7ea      	b.n	800742e <HAL_UART_IRQHandler+0x242>
  if (((isrflags & USART_SR_TC) != RESET) && ((cr1its & USART_CR1_TCIE) != RESET))
 8007458:	0650      	lsls	r0, r2, #25
 800745a:	f57f af34 	bpl.w	80072c6 <HAL_UART_IRQHandler+0xda>
 800745e:	064a      	lsls	r2, r1, #25
 8007460:	f57f af31 	bpl.w	80072c6 <HAL_UART_IRQHandler+0xda>
  __HAL_UART_DISABLE_IT(huart, UART_IT_TC);
 8007464:	68da      	ldr	r2, [r3, #12]
  HAL_UART_TxCpltCallback(huart);
 8007466:	4620      	mov	r0, r4
  __HAL_UART_DISABLE_IT(huart, UART_IT_TC);
 8007468:	f022 0240 	bic.w	r2, r2, #64	@ 0x40
 800746c:	60da      	str	r2, [r3, #12]
  huart->gState = HAL_UART_STATE_READY;
 800746e:	2320      	movs	r3, #32
 8007470:	f884 3041 	strb.w	r3, [r4, #65]	@ 0x41
  HAL_UART_TxCpltCallback(huart);
 8007474:	f7ff fe54 	bl	8007120 <HAL_UART_TxCpltCallback>
  return HAL_OK;
 8007478:	e725      	b.n	80072c6 <HAL_UART_IRQHandler+0xda>
 800747a:	bf00      	nop
 800747c:	08007125 	.word	0x08007125

08007480 <UART_Start_Receive_IT>:
  huart->ErrorCode = HAL_UART_ERROR_NONE;
 8007480:	2300      	movs	r3, #0
  huart->RxXferCount = Size;
 8007482:	85c2      	strh	r2, [r0, #46]	@ 0x2e
  huart->ErrorCode = HAL_UART_ERROR_NONE;
 8007484:	6443      	str	r3, [r0, #68]	@ 0x44
  huart->RxState = HAL_UART_STATE_BUSY_RX;
 8007486:	2322      	movs	r3, #34	@ 0x22
  huart->RxXferSize = Size;
 8007488:	8582      	strh	r2, [r0, #44]	@ 0x2c
  if (huart->Init.Parity != UART_PARITY_NONE)
 800748a:	6902      	ldr	r2, [r0, #16]
  huart->RxState = HAL_UART_STATE_BUSY_RX;
 800748c:	f880 3042 	strb.w	r3, [r0, #66]	@ 0x42
  huart->pRxBuffPtr = pData;
 8007490:	6281      	str	r1, [r0, #40]	@ 0x28
    __HAL_UART_ENABLE_IT(huart, UART_IT_PE);
 8007492:	6803      	ldr	r3, [r0, #0]
  if (huart->Init.Parity != UART_PARITY_NONE)
 8007494:	b11a      	cbz	r2, 800749e <UART_Start_Receive_IT+0x1e>
    __HAL_UART_ENABLE_IT(huart, UART_IT_PE);
 8007496:	68da      	ldr	r2, [r3, #12]
 8007498:	f442 7280 	orr.w	r2, r2, #256	@ 0x100
 800749c:	60da      	str	r2, [r3, #12]
  __HAL_UART_ENABLE_IT(huart, UART_IT_ERR);
 800749e:	695a      	ldr	r2, [r3, #20]
}
 80074a0:	2000      	movs	r0, #0
  __HAL_UART_ENABLE_IT(huart, UART_IT_ERR);
 80074a2:	f042 0201 	orr.w	r2, r2, #1
 80074a6:	615a      	str	r2, [r3, #20]
  __HAL_UART_ENABLE_IT(huart, UART_IT_RXNE);
 80074a8:	68da      	ldr	r2, [r3, #12]
 80074aa:	f042 0220 	orr.w	r2, r2, #32
 80074ae:	60da      	str	r2, [r3, #12]
}
 80074b0:	4770      	bx	lr

080074b2 <HAL_UART_Receive_IT>:
{
 80074b2:	b570      	push	{r4, r5, r6, lr}
  if (huart->RxState == HAL_UART_STATE_READY)
 80074b4:	f890 6042 	ldrb.w	r6, [r0, #66]	@ 0x42
 80074b8:	2e20      	cmp	r6, #32
 80074ba:	d107      	bne.n	80074cc <HAL_UART_Receive_IT+0x1a>
    if ((pData == NULL) || (Size == 0U))
 80074bc:	b141      	cbz	r1, 80074d0 <HAL_UART_Receive_IT+0x1e>
 80074be:	b13a      	cbz	r2, 80074d0 <HAL_UART_Receive_IT+0x1e>
    huart->ReceptionType = HAL_UART_RECEPTION_STANDARD;
 80074c0:	2400      	movs	r4, #0
 80074c2:	6304      	str	r4, [r0, #48]	@ 0x30
    return (UART_Start_Receive_IT(huart, pData, Size));
 80074c4:	f7ff ffdc 	bl	8007480 <UART_Start_Receive_IT>
 80074c8:	4620      	mov	r0, r4
}
 80074ca:	bd70      	pop	{r4, r5, r6, pc}
    return HAL_BUSY;
 80074cc:	2002      	movs	r0, #2
 80074ce:	e7fc      	b.n	80074ca <HAL_UART_Receive_IT+0x18>
      return HAL_ERROR;
 80074d0:	2001      	movs	r0, #1
 80074d2:	e7fa      	b.n	80074ca <HAL_UART_Receive_IT+0x18>

080074d4 <USB_CoreInit>:
  * @param  cfg pointer to a USB_CfgTypeDef structure that contains
  *         the configuration information for the specified USBx peripheral.
  * @retval HAL status
  */
HAL_StatusTypeDef USB_CoreInit(USB_TypeDef *USBx, USB_CfgTypeDef cfg)
{
 80074d4:	b084      	sub	sp, #16
 80074d6:	a804      	add	r0, sp, #16
 80074d8:	e900 000e 	stmdb	r0, {r1, r2, r3}
              only by USB OTG FS peripheral.
            - This function is added to ensure compatibility across platforms.
   */

  return HAL_OK;
}
 80074dc:	2000      	movs	r0, #0
 80074de:	b004      	add	sp, #16
 80074e0:	4770      	bx	lr

080074e2 <USB_EnableGlobalInt>:
  *         Enables the controller's Global Int in the AHB Config reg
  * @param  USBx Selected device
  * @retval HAL status
  */
HAL_StatusTypeDef USB_EnableGlobalInt(USB_TypeDef *USBx)
{
 80074e2:	4603      	mov	r3, r0
                   USB_CNTR_SUSPM | USB_CNTR_ERRM |
                   USB_CNTR_SOFM | USB_CNTR_ESOFM |
                   USB_CNTR_RESETM;

  /* Set interrupt mask */
  USBx->CNTR = (uint16_t)winterruptmask;
 80074e4:	f44f 423f 	mov.w	r2, #48896	@ 0xbf00
  USBx->ISTR = 0U;
 80074e8:	2000      	movs	r0, #0
 80074ea:	f8a3 0044 	strh.w	r0, [r3, #68]	@ 0x44
  USBx->CNTR = (uint16_t)winterruptmask;
 80074ee:	f8a3 2040 	strh.w	r2, [r3, #64]	@ 0x40

  return HAL_OK;
}
 80074f2:	4770      	bx	lr

080074f4 <USB_DisableGlobalInt>:
                   USB_CNTR_SUSPM | USB_CNTR_ERRM |
                   USB_CNTR_SOFM | USB_CNTR_ESOFM |
                   USB_CNTR_RESETM;

  /* Clear interrupt mask */
  USBx->CNTR &= (uint16_t)(~winterruptmask);
 80074f4:	f8b0 3040 	ldrh.w	r3, [r0, #64]	@ 0x40
 80074f8:	f423 537c 	bic.w	r3, r3, #16128	@ 0x3f00
 80074fc:	045b      	lsls	r3, r3, #17
 80074fe:	0c5b      	lsrs	r3, r3, #17
 8007500:	f8a0 3040 	strh.w	r3, [r0, #64]	@ 0x40

  return HAL_OK;
}
 8007504:	2000      	movs	r0, #0
 8007506:	4770      	bx	lr

08007508 <USB_SetCurrentMode>:
  /* NOTE : - This function is not required by USB Device FS peripheral, it is used
              only by USB OTG FS peripheral.
            - This function is added to ensure compatibility across platforms.
   */
  return HAL_OK;
}
 8007508:	2000      	movs	r0, #0
 800750a:	4770      	bx	lr

0800750c <USB_DevInit>:
  * @param  cfg  pointer to a USB_CfgTypeDef structure that contains
  *         the configuration information for the specified USBx peripheral.
  * @retval HAL status
  */
HAL_StatusTypeDef USB_DevInit(USB_TypeDef *USBx, USB_CfgTypeDef cfg)
{
 800750c:	b51f      	push	{r0, r1, r2, r3, r4, lr}
 800750e:	4604      	mov	r4, r0
 8007510:	a804      	add	r0, sp, #16
 8007512:	e900 000e 	stmdb	r0, {r1, r2, r3}
  /* Init Device */
  /* CNTR_FRES = 1 */
  USBx->CNTR = (uint16_t)USB_CNTR_FRES;

  /* CNTR_FRES = 0 */
  USBx->CNTR = 0U;
 8007516:	2000      	movs	r0, #0
  USBx->CNTR = (uint16_t)USB_CNTR_FRES;
 8007518:	2301      	movs	r3, #1
 800751a:	f8a4 3040 	strh.w	r3, [r4, #64]	@ 0x40
  USBx->CNTR = 0U;
 800751e:	f8a4 0040 	strh.w	r0, [r4, #64]	@ 0x40

  /* Clear pending interrupts */
  USBx->ISTR = 0U;
 8007522:	f8a4 0044 	strh.w	r0, [r4, #68]	@ 0x44

  /*Set Btable Address*/
  USBx->BTABLE = BTABLE_ADDRESS;
 8007526:	f8a4 0050 	strh.w	r0, [r4, #80]	@ 0x50

  return HAL_OK;
}
 800752a:	b004      	add	sp, #16
 800752c:	bd10      	pop	{r4, pc}
	...

08007530 <USB_ActivateEndpoint>:
  * @param  USBx Selected device
  * @param  ep pointer to endpoint structure
  * @retval HAL status
  */
HAL_StatusTypeDef USB_ActivateEndpoint(USB_TypeDef *USBx, USB_EPTypeDef *ep)
{
 8007530:	b5f0      	push	{r4, r5, r6, r7, lr}
  HAL_StatusTypeDef ret = HAL_OK;
  uint16_t wEpRegVal;

  wEpRegVal = PCD_GET_ENDPOINT(USBx, ep->num) & USB_EP_T_MASK;
 8007532:	780a      	ldrb	r2, [r1, #0]

  /* initialize Endpoint */
  switch (ep->type)
 8007534:	78cd      	ldrb	r5, [r1, #3]
  wEpRegVal = PCD_GET_ENDPOINT(USBx, ep->num) & USB_EP_T_MASK;
 8007536:	f830 4022 	ldrh.w	r4, [r0, r2, lsl #2]
{
 800753a:	4603      	mov	r3, r0
  wEpRegVal = PCD_GET_ENDPOINT(USBx, ep->num) & USB_EP_T_MASK;
 800753c:	f424 44ec 	bic.w	r4, r4, #30208	@ 0x7600
 8007540:	f024 0470 	bic.w	r4, r4, #112	@ 0x70
 8007544:	0424      	lsls	r4, r4, #16
 8007546:	0c24      	lsrs	r4, r4, #16
  switch (ep->type)
 8007548:	2d03      	cmp	r5, #3
 800754a:	d803      	bhi.n	8007554 <USB_ActivateEndpoint+0x24>
 800754c:	e8df f005 	tbb	[pc, r5]
 8007550:	45474941 	.word	0x45474941
    case EP_TYPE_ISOC:
      wEpRegVal |= USB_EP_ISOCHRONOUS;
      break;

    default:
      ret = HAL_ERROR;
 8007554:	2001      	movs	r0, #1
      break;
  }

  PCD_SET_ENDPOINT(USBx, ep->num, (wEpRegVal | USB_EP_CTR_RX | USB_EP_CTR_TX));
 8007556:	f248 0780 	movw	r7, #32896	@ 0x8080
 800755a:	433c      	orrs	r4, r7
 800755c:	f823 4022 	strh.w	r4, [r3, r2, lsl #2]

  PCD_SET_EP_ADDRESS(USBx, ep->num, ep->num);
 8007560:	f833 4022 	ldrh.w	r4, [r3, r2, lsl #2]
 8007564:	4e9f      	ldr	r6, [pc, #636]	@ (80077e4 <USB_ActivateEndpoint+0x2b4>)
 8007566:	b2a4      	uxth	r4, r4
 8007568:	4034      	ands	r4, r6
 800756a:	4314      	orrs	r4, r2
 800756c:	433c      	orrs	r4, r7
 800756e:	f823 4022 	strh.w	r4, [r3, r2, lsl #2]

  if (ep->doublebuffer == 0U)
 8007572:	7b0c      	ldrb	r4, [r1, #12]
 8007574:	eb03 1c02 	add.w	ip, r3, r2, lsl #4
 8007578:	2c00      	cmp	r4, #0
 800757a:	f040 808c 	bne.w	8007696 <USB_ActivateEndpoint+0x166>
  {
    if (ep->is_in != 0U)
    {
      /*Set the endpoint Transmit buffer address */
      PCD_SET_EP_TX_ADDRESS(USBx, ep->num, ep->pmaadress);
 800757e:	88cc      	ldrh	r4, [r1, #6]
    if (ep->is_in != 0U)
 8007580:	784f      	ldrb	r7, [r1, #1]
      PCD_SET_EP_TX_ADDRESS(USBx, ep->num, ep->pmaadress);
 8007582:	0864      	lsrs	r4, r4, #1
 8007584:	0064      	lsls	r4, r4, #1
    if (ep->is_in != 0U)
 8007586:	b37f      	cbz	r7, 80075e8 <USB_ActivateEndpoint+0xb8>
      PCD_SET_EP_TX_ADDRESS(USBx, ep->num, ep->pmaadress);
 8007588:	f8b3 1050 	ldrh.w	r1, [r3, #80]	@ 0x50
 800758c:	b289      	uxth	r1, r1
 800758e:	4461      	add	r1, ip
 8007590:	f8a1 4400 	strh.w	r4, [r1, #1024]	@ 0x400
      PCD_CLEAR_TX_DTOG(USBx, ep->num);
 8007594:	f833 1022 	ldrh.w	r1, [r3, r2, lsl #2]
 8007598:	064c      	lsls	r4, r1, #25
 800759a:	d509      	bpl.n	80075b0 <USB_ActivateEndpoint+0x80>
 800759c:	f833 1022 	ldrh.w	r1, [r3, r2, lsl #2]
 80075a0:	b289      	uxth	r1, r1
 80075a2:	4031      	ands	r1, r6
 80075a4:	f441 4100 	orr.w	r1, r1, #32768	@ 0x8000
 80075a8:	f041 01c0 	orr.w	r1, r1, #192	@ 0xc0
 80075ac:	f823 1022 	strh.w	r1, [r3, r2, lsl #2]

      if (ep->type != EP_TYPE_ISOC)
      {
        /* Configure NAK status for the Endpoint */
        PCD_SET_EP_TX_STATUS(USBx, ep->num, USB_EP_TX_NAK);
 80075b0:	f833 1022 	ldrh.w	r1, [r3, r2, lsl #2]
 80075b4:	4c8c      	ldr	r4, [pc, #560]	@ (80077e8 <USB_ActivateEndpoint+0x2b8>)
 80075b6:	b289      	uxth	r1, r1
      if (ep->type != EP_TYPE_ISOC)
 80075b8:	2d01      	cmp	r5, #1
        PCD_SET_EP_TX_STATUS(USBx, ep->num, USB_EP_TX_NAK);
 80075ba:	ea01 0104 	and.w	r1, r1, r4
      if (ep->type != EP_TYPE_ISOC)
 80075be:	d001      	beq.n	80075c4 <USB_ActivateEndpoint+0x94>
        PCD_SET_EP_TX_STATUS(USBx, ep->num, USB_EP_TX_NAK);
 80075c0:	f081 0120 	eor.w	r1, r1, #32
      {
        /* Configure TX Endpoint to disabled state */
        PCD_SET_EP_TX_STATUS(USBx, ep->num, USB_EP_TX_DIS);
      }

      PCD_SET_EP_RX_STATUS(USBx, ep->num, USB_EP_RX_DIS);
 80075c4:	f441 4100 	orr.w	r1, r1, #32768	@ 0x8000
 80075c8:	f041 0180 	orr.w	r1, r1, #128	@ 0x80
 80075cc:	f823 1022 	strh.w	r1, [r3, r2, lsl #2]
 80075d0:	e04d      	b.n	800766e <USB_ActivateEndpoint+0x13e>
  HAL_StatusTypeDef ret = HAL_OK;
 80075d2:	4628      	mov	r0, r5
      wEpRegVal |= USB_EP_CONTROL;
 80075d4:	f444 7400 	orr.w	r4, r4, #512	@ 0x200
      break;
 80075d8:	e7bd      	b.n	8007556 <USB_ActivateEndpoint+0x26>
      wEpRegVal |= USB_EP_INTERRUPT;
 80075da:	f444 64c0 	orr.w	r4, r4, #1536	@ 0x600
  switch (ep->type)
 80075de:	2000      	movs	r0, #0
 80075e0:	e7b9      	b.n	8007556 <USB_ActivateEndpoint+0x26>
      wEpRegVal |= USB_EP_ISOCHRONOUS;
 80075e2:	f444 6480 	orr.w	r4, r4, #1024	@ 0x400
      break;
 80075e6:	e7fa      	b.n	80075de <USB_ActivateEndpoint+0xae>
      PCD_SET_EP_RX_ADDRESS(USBx, ep->num, ep->pmaadress);
 80075e8:	f8b3 5050 	ldrh.w	r5, [r3, #80]	@ 0x50
 80075ec:	b2ad      	uxth	r5, r5
 80075ee:	4465      	add	r5, ip
 80075f0:	f8a5 4408 	strh.w	r4, [r5, #1032]	@ 0x408
      PCD_SET_EP_RX_CNT(USBx, ep->num, ep->maxpacket);
 80075f4:	f8b3 4050 	ldrh.w	r4, [r3, #80]	@ 0x50
 80075f8:	b2a4      	uxth	r4, r4
 80075fa:	4464      	add	r4, ip
 80075fc:	f8b4 540c 	ldrh.w	r5, [r4, #1036]	@ 0x40c
 8007600:	f3c5 0509 	ubfx	r5, r5, #0, #10
 8007604:	f8a4 540c 	strh.w	r5, [r4, #1036]	@ 0x40c
 8007608:	690d      	ldr	r5, [r1, #16]
 800760a:	2d3e      	cmp	r5, #62	@ 0x3e
 800760c:	d930      	bls.n	8007670 <USB_ActivateEndpoint+0x140>
 800760e:	06e9      	lsls	r1, r5, #27
 8007610:	f8b4 140c 	ldrh.w	r1, [r4, #1036]	@ 0x40c
 8007614:	ea4f 1655 	mov.w	r6, r5, lsr #5
 8007618:	bf08      	it	eq
 800761a:	f106 36ff 	addeq.w	r6, r6, #4294967295
 800761e:	b289      	uxth	r1, r1
 8007620:	ea41 2186 	orr.w	r1, r1, r6, lsl #10
 8007624:	ea6f 4141 	mvn.w	r1, r1, lsl #17
 8007628:	ea6f 4151 	mvn.w	r1, r1, lsr #17
 800762c:	b289      	uxth	r1, r1
 800762e:	f8a4 140c 	strh.w	r1, [r4, #1036]	@ 0x40c
      PCD_CLEAR_RX_DTOG(USBx, ep->num);
 8007632:	f833 1022 	ldrh.w	r1, [r3, r2, lsl #2]
 8007636:	044f      	lsls	r7, r1, #17
 8007638:	d50d      	bpl.n	8007656 <USB_ActivateEndpoint+0x126>
 800763a:	f833 1022 	ldrh.w	r1, [r3, r2, lsl #2]
 800763e:	f421 41e0 	bic.w	r1, r1, #28672	@ 0x7000
 8007642:	f021 0170 	bic.w	r1, r1, #112	@ 0x70
 8007646:	0409      	lsls	r1, r1, #16
 8007648:	0c09      	lsrs	r1, r1, #16
 800764a:	f441 4140 	orr.w	r1, r1, #49152	@ 0xc000
 800764e:	f041 0180 	orr.w	r1, r1, #128	@ 0x80
 8007652:	f823 1022 	strh.w	r1, [r3, r2, lsl #2]
      if (ep->num == 0U)
 8007656:	4c65      	ldr	r4, [pc, #404]	@ (80077ec <USB_ActivateEndpoint+0x2bc>)
 8007658:	b9b2      	cbnz	r2, 8007688 <USB_ActivateEndpoint+0x158>
        PCD_SET_EP_RX_STATUS(USBx, ep->num, USB_EP_RX_VALID);
 800765a:	881a      	ldrh	r2, [r3, #0]
 800765c:	b292      	uxth	r2, r2
 800765e:	4022      	ands	r2, r4
 8007660:	f482 5240 	eor.w	r2, r2, #12288	@ 0x3000
 8007664:	f442 4200 	orr.w	r2, r2, #32768	@ 0x8000
 8007668:	f042 0280 	orr.w	r2, r2, #128	@ 0x80
 800766c:	801a      	strh	r2, [r3, #0]
    }
  }
#endif /* (USE_USB_DOUBLE_BUFFER == 1U) */

  return ret;
}
 800766e:	bdf0      	pop	{r4, r5, r6, r7, pc}
      PCD_SET_EP_RX_CNT(USBx, ep->num, ep->maxpacket);
 8007670:	f8b4 140c 	ldrh.w	r1, [r4, #1036]	@ 0x40c
 8007674:	2d00      	cmp	r5, #0
 8007676:	d0d5      	beq.n	8007624 <USB_ActivateEndpoint+0xf4>
 8007678:	f005 0601 	and.w	r6, r5, #1
 800767c:	b289      	uxth	r1, r1
 800767e:	eb06 0555 	add.w	r5, r6, r5, lsr #1
 8007682:	ea41 2185 	orr.w	r1, r1, r5, lsl #10
 8007686:	e7d1      	b.n	800762c <USB_ActivateEndpoint+0xfc>
        PCD_SET_EP_RX_STATUS(USBx, ep->num, USB_EP_RX_NAK);
 8007688:	f833 1022 	ldrh.w	r1, [r3, r2, lsl #2]
 800768c:	b289      	uxth	r1, r1
 800768e:	4021      	ands	r1, r4
 8007690:	f481 5100 	eor.w	r1, r1, #8192	@ 0x2000
 8007694:	e796      	b.n	80075c4 <USB_ActivateEndpoint+0x94>
    if (ep->type == EP_TYPE_BULK)
 8007696:	2d02      	cmp	r5, #2
      PCD_SET_BULK_EP_DBUF(USBx, ep->num);
 8007698:	f833 4022 	ldrh.w	r4, [r3, r2, lsl #2]
    if (ep->type == EP_TYPE_BULK)
 800769c:	d15b      	bne.n	8007756 <USB_ActivateEndpoint+0x226>
      PCD_SET_BULK_EP_DBUF(USBx, ep->num);
 800769e:	b2a4      	uxth	r4, r4
 80076a0:	4034      	ands	r4, r6
 80076a2:	f444 4401 	orr.w	r4, r4, #33024	@ 0x8100
 80076a6:	f044 0480 	orr.w	r4, r4, #128	@ 0x80
 80076aa:	f823 4022 	strh.w	r4, [r3, r2, lsl #2]
    PCD_SET_EP_DBUF_ADDR(USBx, ep->num, ep->pmaaddr0, ep->pmaaddr1);
 80076ae:	f8b3 4050 	ldrh.w	r4, [r3, #80]	@ 0x50
 80076b2:	890e      	ldrh	r6, [r1, #8]
 80076b4:	b2a4      	uxth	r4, r4
 80076b6:	0876      	lsrs	r6, r6, #1
 80076b8:	4464      	add	r4, ip
 80076ba:	0076      	lsls	r6, r6, #1
 80076bc:	f8a4 6400 	strh.w	r6, [r4, #1024]	@ 0x400
 80076c0:	894e      	ldrh	r6, [r1, #10]
 80076c2:	f8b3 4050 	ldrh.w	r4, [r3, #80]	@ 0x50
 80076c6:	0876      	lsrs	r6, r6, #1
 80076c8:	b2a4      	uxth	r4, r4
 80076ca:	4464      	add	r4, ip
 80076cc:	0076      	lsls	r6, r6, #1
 80076ce:	f8a4 6408 	strh.w	r6, [r4, #1032]	@ 0x408
    if (ep->is_in == 0U)
 80076d2:	7849      	ldrb	r1, [r1, #1]
 80076d4:	2900      	cmp	r1, #0
 80076d6:	d148      	bne.n	800776a <USB_ActivateEndpoint+0x23a>
      PCD_CLEAR_RX_DTOG(USBx, ep->num);
 80076d8:	f833 1022 	ldrh.w	r1, [r3, r2, lsl #2]
 80076dc:	044e      	lsls	r6, r1, #17
 80076de:	d50d      	bpl.n	80076fc <USB_ActivateEndpoint+0x1cc>
 80076e0:	f833 1022 	ldrh.w	r1, [r3, r2, lsl #2]
 80076e4:	f421 41e0 	bic.w	r1, r1, #28672	@ 0x7000
 80076e8:	f021 0170 	bic.w	r1, r1, #112	@ 0x70
 80076ec:	0409      	lsls	r1, r1, #16
 80076ee:	0c09      	lsrs	r1, r1, #16
 80076f0:	f441 4140 	orr.w	r1, r1, #49152	@ 0xc000
 80076f4:	f041 0180 	orr.w	r1, r1, #128	@ 0x80
 80076f8:	f823 1022 	strh.w	r1, [r3, r2, lsl #2]
      PCD_CLEAR_TX_DTOG(USBx, ep->num);
 80076fc:	f833 1022 	ldrh.w	r1, [r3, r2, lsl #2]
 8007700:	064d      	lsls	r5, r1, #25
 8007702:	d50d      	bpl.n	8007720 <USB_ActivateEndpoint+0x1f0>
 8007704:	f833 1022 	ldrh.w	r1, [r3, r2, lsl #2]
 8007708:	f421 41e0 	bic.w	r1, r1, #28672	@ 0x7000
 800770c:	f021 0170 	bic.w	r1, r1, #112	@ 0x70
 8007710:	0409      	lsls	r1, r1, #16
 8007712:	0c09      	lsrs	r1, r1, #16
 8007714:	f441 4100 	orr.w	r1, r1, #32768	@ 0x8000
 8007718:	f041 01c0 	orr.w	r1, r1, #192	@ 0xc0
 800771c:	f823 1022 	strh.w	r1, [r3, r2, lsl #2]
      PCD_SET_EP_RX_STATUS(USBx, ep->num, USB_EP_RX_VALID);
 8007720:	f248 0480 	movw	r4, #32896	@ 0x8080
 8007724:	f833 1022 	ldrh.w	r1, [r3, r2, lsl #2]
 8007728:	f421 4180 	bic.w	r1, r1, #16384	@ 0x4000
 800772c:	f021 0170 	bic.w	r1, r1, #112	@ 0x70
 8007730:	0409      	lsls	r1, r1, #16
 8007732:	0c09      	lsrs	r1, r1, #16
 8007734:	f481 5140 	eor.w	r1, r1, #12288	@ 0x3000
 8007738:	4321      	orrs	r1, r4
 800773a:	f823 1022 	strh.w	r1, [r3, r2, lsl #2]
      PCD_SET_EP_TX_STATUS(USBx, ep->num, USB_EP_TX_DIS);
 800773e:	f833 1022 	ldrh.w	r1, [r3, r2, lsl #2]
 8007742:	f421 41e0 	bic.w	r1, r1, #28672	@ 0x7000
 8007746:	f021 0140 	bic.w	r1, r1, #64	@ 0x40
 800774a:	0409      	lsls	r1, r1, #16
 800774c:	0c09      	lsrs	r1, r1, #16
 800774e:	430c      	orrs	r4, r1
 8007750:	f823 4022 	strh.w	r4, [r3, r2, lsl #2]
 8007754:	e78b      	b.n	800766e <USB_ActivateEndpoint+0x13e>
      PCD_CLEAR_EP_KIND(USBx, ep->num);
 8007756:	f424 44e2 	bic.w	r4, r4, #28928	@ 0x7100
 800775a:	f024 0470 	bic.w	r4, r4, #112	@ 0x70
 800775e:	0424      	lsls	r4, r4, #16
 8007760:	0c24      	lsrs	r4, r4, #16
 8007762:	4327      	orrs	r7, r4
 8007764:	f823 7022 	strh.w	r7, [r3, r2, lsl #2]
 8007768:	e7a1      	b.n	80076ae <USB_ActivateEndpoint+0x17e>
      PCD_CLEAR_RX_DTOG(USBx, ep->num);
 800776a:	f833 1022 	ldrh.w	r1, [r3, r2, lsl #2]
 800776e:	044c      	lsls	r4, r1, #17
 8007770:	d50d      	bpl.n	800778e <USB_ActivateEndpoint+0x25e>
 8007772:	f833 1022 	ldrh.w	r1, [r3, r2, lsl #2]
 8007776:	f421 41e0 	bic.w	r1, r1, #28672	@ 0x7000
 800777a:	f021 0170 	bic.w	r1, r1, #112	@ 0x70
 800777e:	0409      	lsls	r1, r1, #16
 8007780:	0c09      	lsrs	r1, r1, #16
 8007782:	f441 4140 	orr.w	r1, r1, #49152	@ 0xc000
 8007786:	f041 0180 	orr.w	r1, r1, #128	@ 0x80
 800778a:	f823 1022 	strh.w	r1, [r3, r2, lsl #2]
      PCD_CLEAR_TX_DTOG(USBx, ep->num);
 800778e:	f833 1022 	ldrh.w	r1, [r3, r2, lsl #2]
 8007792:	0649      	lsls	r1, r1, #25
 8007794:	d50d      	bpl.n	80077b2 <USB_ActivateEndpoint+0x282>
 8007796:	f833 1022 	ldrh.w	r1, [r3, r2, lsl #2]
 800779a:	f421 41e0 	bic.w	r1, r1, #28672	@ 0x7000
 800779e:	f021 0170 	bic.w	r1, r1, #112	@ 0x70
 80077a2:	0409      	lsls	r1, r1, #16
 80077a4:	0c09      	lsrs	r1, r1, #16
 80077a6:	f441 4100 	orr.w	r1, r1, #32768	@ 0x8000
 80077aa:	f041 01c0 	orr.w	r1, r1, #192	@ 0xc0
 80077ae:	f823 1022 	strh.w	r1, [r3, r2, lsl #2]
        PCD_SET_EP_TX_STATUS(USBx, ep->num, USB_EP_TX_NAK);
 80077b2:	f833 1022 	ldrh.w	r1, [r3, r2, lsl #2]
 80077b6:	4c0c      	ldr	r4, [pc, #48]	@ (80077e8 <USB_ActivateEndpoint+0x2b8>)
 80077b8:	b289      	uxth	r1, r1
 80077ba:	4021      	ands	r1, r4
      if (ep->type != EP_TYPE_ISOC)
 80077bc:	2d01      	cmp	r5, #1
        PCD_SET_EP_TX_STATUS(USBx, ep->num, USB_EP_TX_NAK);
 80077be:	bf18      	it	ne
 80077c0:	f081 0120 	eorne.w	r1, r1, #32
        PCD_SET_EP_TX_STATUS(USBx, ep->num, USB_EP_TX_DIS);
 80077c4:	f441 4100 	orr.w	r1, r1, #32768	@ 0x8000
 80077c8:	f041 0180 	orr.w	r1, r1, #128	@ 0x80
 80077cc:	f823 1022 	strh.w	r1, [r3, r2, lsl #2]
      PCD_SET_EP_RX_STATUS(USBx, ep->num, USB_EP_RX_DIS);
 80077d0:	f833 1022 	ldrh.w	r1, [r3, r2, lsl #2]
 80077d4:	f421 4180 	bic.w	r1, r1, #16384	@ 0x4000
 80077d8:	f021 0170 	bic.w	r1, r1, #112	@ 0x70
 80077dc:	0409      	lsls	r1, r1, #16
 80077de:	0c09      	lsrs	r1, r1, #16
 80077e0:	e6f0      	b.n	80075c4 <USB_ActivateEndpoint+0x94>
 80077e2:	bf00      	nop
 80077e4:	ffff8f8f 	.word	0xffff8f8f
 80077e8:	ffff8fbf 	.word	0xffff8fbf
 80077ec:	ffffbf8f 	.word	0xffffbf8f

080077f0 <USB_DeactivateEndpoint>:
  */
HAL_StatusTypeDef USB_DeactivateEndpoint(USB_TypeDef *USBx, USB_EPTypeDef *ep)
{
  if (ep->doublebuffer == 0U)
  {
    if (ep->is_in != 0U)
 80077f0:	784a      	ldrb	r2, [r1, #1]
    {
      PCD_CLEAR_TX_DTOG(USBx, ep->num);
 80077f2:	780b      	ldrb	r3, [r1, #0]
  if (ep->doublebuffer == 0U)
 80077f4:	7b09      	ldrb	r1, [r1, #12]
 80077f6:	bbd9      	cbnz	r1, 8007870 <USB_DeactivateEndpoint+0x80>
    if (ep->is_in != 0U)
 80077f8:	b30a      	cbz	r2, 800783e <USB_DeactivateEndpoint+0x4e>
      PCD_CLEAR_TX_DTOG(USBx, ep->num);
 80077fa:	f830 2023 	ldrh.w	r2, [r0, r3, lsl #2]
 80077fe:	0651      	lsls	r1, r2, #25
 8007800:	d50d      	bpl.n	800781e <USB_DeactivateEndpoint+0x2e>
 8007802:	f830 2023 	ldrh.w	r2, [r0, r3, lsl #2]
 8007806:	f422 42e0 	bic.w	r2, r2, #28672	@ 0x7000
 800780a:	f022 0270 	bic.w	r2, r2, #112	@ 0x70
 800780e:	0412      	lsls	r2, r2, #16
 8007810:	0c12      	lsrs	r2, r2, #16
 8007812:	f442 4200 	orr.w	r2, r2, #32768	@ 0x8000
 8007816:	f042 02c0 	orr.w	r2, r2, #192	@ 0xc0
 800781a:	f820 2023 	strh.w	r2, [r0, r3, lsl #2]

      /* Configure DISABLE status for the Endpoint */
      PCD_SET_EP_TX_STATUS(USBx, ep->num, USB_EP_TX_DIS);
 800781e:	f830 2023 	ldrh.w	r2, [r0, r3, lsl #2]
 8007822:	f422 42e0 	bic.w	r2, r2, #28672	@ 0x7000
 8007826:	f022 0240 	bic.w	r2, r2, #64	@ 0x40
    else
    {
      PCD_CLEAR_RX_DTOG(USBx, ep->num);

      /* Configure DISABLE status for the Endpoint */
      PCD_SET_EP_RX_STATUS(USBx, ep->num, USB_EP_RX_DIS);
 800782a:	0412      	lsls	r2, r2, #16
 800782c:	0c12      	lsrs	r2, r2, #16
 800782e:	f442 4200 	orr.w	r2, r2, #32768	@ 0x8000
 8007832:	f042 0280 	orr.w	r2, r2, #128	@ 0x80
 8007836:	f820 2023 	strh.w	r2, [r0, r3, lsl #2]
    }
  }
#endif /* (USE_USB_DOUBLE_BUFFER == 1U) */

  return HAL_OK;
}
 800783a:	2000      	movs	r0, #0
 800783c:	4770      	bx	lr
      PCD_CLEAR_RX_DTOG(USBx, ep->num);
 800783e:	f830 2023 	ldrh.w	r2, [r0, r3, lsl #2]
 8007842:	0452      	lsls	r2, r2, #17
 8007844:	d50d      	bpl.n	8007862 <USB_DeactivateEndpoint+0x72>
 8007846:	f830 2023 	ldrh.w	r2, [r0, r3, lsl #2]
 800784a:	f422 42e0 	bic.w	r2, r2, #28672	@ 0x7000
 800784e:	f022 0270 	bic.w	r2, r2, #112	@ 0x70
 8007852:	0412      	lsls	r2, r2, #16
 8007854:	0c12      	lsrs	r2, r2, #16
 8007856:	f442 4240 	orr.w	r2, r2, #49152	@ 0xc000
 800785a:	f042 0280 	orr.w	r2, r2, #128	@ 0x80
 800785e:	f820 2023 	strh.w	r2, [r0, r3, lsl #2]
      PCD_SET_EP_RX_STATUS(USBx, ep->num, USB_EP_RX_DIS);
 8007862:	f830 2023 	ldrh.w	r2, [r0, r3, lsl #2]
 8007866:	f422 4280 	bic.w	r2, r2, #16384	@ 0x4000
 800786a:	f022 0270 	bic.w	r2, r2, #112	@ 0x70
 800786e:	e7dc      	b.n	800782a <USB_DeactivateEndpoint+0x3a>
    if (ep->is_in == 0U)
 8007870:	2a00      	cmp	r2, #0
 8007872:	d14a      	bne.n	800790a <USB_DeactivateEndpoint+0x11a>
      PCD_CLEAR_RX_DTOG(USBx, ep->num);
 8007874:	f830 2023 	ldrh.w	r2, [r0, r3, lsl #2]
 8007878:	0451      	lsls	r1, r2, #17
 800787a:	d50d      	bpl.n	8007898 <USB_DeactivateEndpoint+0xa8>
 800787c:	f830 2023 	ldrh.w	r2, [r0, r3, lsl #2]
 8007880:	f422 42e0 	bic.w	r2, r2, #28672	@ 0x7000
 8007884:	f022 0270 	bic.w	r2, r2, #112	@ 0x70
 8007888:	0412      	lsls	r2, r2, #16
 800788a:	0c12      	lsrs	r2, r2, #16
 800788c:	f442 4240 	orr.w	r2, r2, #49152	@ 0xc000
 8007890:	f042 0280 	orr.w	r2, r2, #128	@ 0x80
 8007894:	f820 2023 	strh.w	r2, [r0, r3, lsl #2]
      PCD_CLEAR_TX_DTOG(USBx, ep->num);
 8007898:	f830 2023 	ldrh.w	r2, [r0, r3, lsl #2]
 800789c:	0652      	lsls	r2, r2, #25
 800789e:	d50d      	bpl.n	80078bc <USB_DeactivateEndpoint+0xcc>
 80078a0:	f830 2023 	ldrh.w	r2, [r0, r3, lsl #2]
 80078a4:	f422 42e0 	bic.w	r2, r2, #28672	@ 0x7000
 80078a8:	f022 0270 	bic.w	r2, r2, #112	@ 0x70
 80078ac:	0412      	lsls	r2, r2, #16
 80078ae:	0c12      	lsrs	r2, r2, #16
 80078b0:	f442 4200 	orr.w	r2, r2, #32768	@ 0x8000
 80078b4:	f042 02c0 	orr.w	r2, r2, #192	@ 0xc0
 80078b8:	f820 2023 	strh.w	r2, [r0, r3, lsl #2]
      PCD_SET_EP_RX_STATUS(USBx, ep->num, USB_EP_RX_DIS);
 80078bc:	f248 0180 	movw	r1, #32896	@ 0x8080
      PCD_TX_DTOG(USBx, ep->num);
 80078c0:	f830 2023 	ldrh.w	r2, [r0, r3, lsl #2]
 80078c4:	f422 42e0 	bic.w	r2, r2, #28672	@ 0x7000
 80078c8:	f022 0270 	bic.w	r2, r2, #112	@ 0x70
 80078cc:	0412      	lsls	r2, r2, #16
 80078ce:	0c12      	lsrs	r2, r2, #16
 80078d0:	f442 4200 	orr.w	r2, r2, #32768	@ 0x8000
 80078d4:	f042 02c0 	orr.w	r2, r2, #192	@ 0xc0
 80078d8:	f820 2023 	strh.w	r2, [r0, r3, lsl #2]
      PCD_SET_EP_RX_STATUS(USBx, ep->num, USB_EP_RX_DIS);
 80078dc:	f830 2023 	ldrh.w	r2, [r0, r3, lsl #2]
 80078e0:	f422 4280 	bic.w	r2, r2, #16384	@ 0x4000
 80078e4:	f022 0270 	bic.w	r2, r2, #112	@ 0x70
 80078e8:	0412      	lsls	r2, r2, #16
 80078ea:	0c12      	lsrs	r2, r2, #16
 80078ec:	430a      	orrs	r2, r1
 80078ee:	f820 2023 	strh.w	r2, [r0, r3, lsl #2]
      PCD_SET_EP_TX_STATUS(USBx, ep->num, USB_EP_TX_DIS);
 80078f2:	f830 2023 	ldrh.w	r2, [r0, r3, lsl #2]
 80078f6:	f422 42e0 	bic.w	r2, r2, #28672	@ 0x7000
 80078fa:	f022 0240 	bic.w	r2, r2, #64	@ 0x40
      PCD_SET_EP_RX_STATUS(USBx, ep->num, USB_EP_RX_DIS);
 80078fe:	0412      	lsls	r2, r2, #16
 8007900:	0c12      	lsrs	r2, r2, #16
 8007902:	4311      	orrs	r1, r2
 8007904:	f820 1023 	strh.w	r1, [r0, r3, lsl #2]
 8007908:	e797      	b.n	800783a <USB_DeactivateEndpoint+0x4a>
      PCD_CLEAR_RX_DTOG(USBx, ep->num);
 800790a:	f830 2023 	ldrh.w	r2, [r0, r3, lsl #2]
 800790e:	0451      	lsls	r1, r2, #17
 8007910:	d50d      	bpl.n	800792e <USB_DeactivateEndpoint+0x13e>
 8007912:	f830 2023 	ldrh.w	r2, [r0, r3, lsl #2]
 8007916:	f422 42e0 	bic.w	r2, r2, #28672	@ 0x7000
 800791a:	f022 0270 	bic.w	r2, r2, #112	@ 0x70
 800791e:	0412      	lsls	r2, r2, #16
 8007920:	0c12      	lsrs	r2, r2, #16
 8007922:	f442 4240 	orr.w	r2, r2, #49152	@ 0xc000
 8007926:	f042 0280 	orr.w	r2, r2, #128	@ 0x80
 800792a:	f820 2023 	strh.w	r2, [r0, r3, lsl #2]
      PCD_CLEAR_TX_DTOG(USBx, ep->num);
 800792e:	f830 2023 	ldrh.w	r2, [r0, r3, lsl #2]
 8007932:	0652      	lsls	r2, r2, #25
 8007934:	d50d      	bpl.n	8007952 <USB_DeactivateEndpoint+0x162>
 8007936:	f830 2023 	ldrh.w	r2, [r0, r3, lsl #2]
 800793a:	f422 42e0 	bic.w	r2, r2, #28672	@ 0x7000
 800793e:	f022 0270 	bic.w	r2, r2, #112	@ 0x70
 8007942:	0412      	lsls	r2, r2, #16
 8007944:	0c12      	lsrs	r2, r2, #16
 8007946:	f442 4200 	orr.w	r2, r2, #32768	@ 0x8000
 800794a:	f042 02c0 	orr.w	r2, r2, #192	@ 0xc0
 800794e:	f820 2023 	strh.w	r2, [r0, r3, lsl #2]
      PCD_SET_EP_TX_STATUS(USBx, ep->num, USB_EP_TX_DIS);
 8007952:	f248 0180 	movw	r1, #32896	@ 0x8080
      PCD_RX_DTOG(USBx, ep->num);
 8007956:	f830 2023 	ldrh.w	r2, [r0, r3, lsl #2]
 800795a:	f422 42e0 	bic.w	r2, r2, #28672	@ 0x7000
 800795e:	f022 0270 	bic.w	r2, r2, #112	@ 0x70
 8007962:	0412      	lsls	r2, r2, #16
 8007964:	0c12      	lsrs	r2, r2, #16
 8007966:	f442 4240 	orr.w	r2, r2, #49152	@ 0xc000
 800796a:	f042 0280 	orr.w	r2, r2, #128	@ 0x80
 800796e:	f820 2023 	strh.w	r2, [r0, r3, lsl #2]
      PCD_SET_EP_TX_STATUS(USBx, ep->num, USB_EP_TX_DIS);
 8007972:	f830 2023 	ldrh.w	r2, [r0, r3, lsl #2]
 8007976:	f422 42e0 	bic.w	r2, r2, #28672	@ 0x7000
 800797a:	f022 0240 	bic.w	r2, r2, #64	@ 0x40
 800797e:	0412      	lsls	r2, r2, #16
 8007980:	0c12      	lsrs	r2, r2, #16
 8007982:	430a      	orrs	r2, r1
 8007984:	f820 2023 	strh.w	r2, [r0, r3, lsl #2]
      PCD_SET_EP_RX_STATUS(USBx, ep->num, USB_EP_RX_DIS);
 8007988:	f830 2023 	ldrh.w	r2, [r0, r3, lsl #2]
 800798c:	f422 4280 	bic.w	r2, r2, #16384	@ 0x4000
 8007990:	f022 0270 	bic.w	r2, r2, #112	@ 0x70
 8007994:	e7b3      	b.n	80078fe <USB_DeactivateEndpoint+0x10e>

08007996 <USB_EPSetStall>:
  * @param  ep pointer to endpoint structure
  * @retval HAL status
  */
HAL_StatusTypeDef USB_EPSetStall(USB_TypeDef *USBx, USB_EPTypeDef *ep)
{
  if (ep->is_in != 0U)
 8007996:	784b      	ldrb	r3, [r1, #1]
  {
    PCD_SET_EP_TX_STATUS(USBx, ep->num, USB_EP_TX_STALL);
 8007998:	780a      	ldrb	r2, [r1, #0]
  if (ep->is_in != 0U)
 800799a:	b18b      	cbz	r3, 80079c0 <USB_EPSetStall+0x2a>
    PCD_SET_EP_TX_STATUS(USBx, ep->num, USB_EP_TX_STALL);
 800799c:	f830 3022 	ldrh.w	r3, [r0, r2, lsl #2]
 80079a0:	f423 43e0 	bic.w	r3, r3, #28672	@ 0x7000
 80079a4:	f023 0340 	bic.w	r3, r3, #64	@ 0x40
 80079a8:	041b      	lsls	r3, r3, #16
 80079aa:	0c1b      	lsrs	r3, r3, #16
 80079ac:	f083 0310 	eor.w	r3, r3, #16
  }
  else
  {
    PCD_SET_EP_RX_STATUS(USBx, ep->num, USB_EP_RX_STALL);
 80079b0:	f443 4300 	orr.w	r3, r3, #32768	@ 0x8000
 80079b4:	f043 0380 	orr.w	r3, r3, #128	@ 0x80
 80079b8:	f820 3022 	strh.w	r3, [r0, r2, lsl #2]
  }

  return HAL_OK;
}
 80079bc:	2000      	movs	r0, #0
 80079be:	4770      	bx	lr
    PCD_SET_EP_RX_STATUS(USBx, ep->num, USB_EP_RX_STALL);
 80079c0:	f830 3022 	ldrh.w	r3, [r0, r2, lsl #2]
 80079c4:	f423 4380 	bic.w	r3, r3, #16384	@ 0x4000
 80079c8:	f023 0370 	bic.w	r3, r3, #112	@ 0x70
 80079cc:	041b      	lsls	r3, r3, #16
 80079ce:	0c1b      	lsrs	r3, r3, #16
 80079d0:	f483 5380 	eor.w	r3, r3, #4096	@ 0x1000
 80079d4:	e7ec      	b.n	80079b0 <USB_EPSetStall+0x1a>

080079d6 <USB_EPClearStall>:
  * @param  ep pointer to endpoint structure
  * @retval HAL status
  */
HAL_StatusTypeDef USB_EPClearStall(USB_TypeDef *USBx, USB_EPTypeDef *ep)
{
  if (ep->doublebuffer == 0U)
 80079d6:	7b0b      	ldrb	r3, [r1, #12]
 80079d8:	bb3b      	cbnz	r3, 8007a2a <USB_EPClearStall+0x54>
  {
    if (ep->is_in != 0U)
 80079da:	784b      	ldrb	r3, [r1, #1]
    {
      PCD_CLEAR_TX_DTOG(USBx, ep->num);
 80079dc:	780a      	ldrb	r2, [r1, #0]
    if (ep->is_in != 0U)
 80079de:	b333      	cbz	r3, 8007a2e <USB_EPClearStall+0x58>
      PCD_CLEAR_TX_DTOG(USBx, ep->num);
 80079e0:	f830 3022 	ldrh.w	r3, [r0, r2, lsl #2]
 80079e4:	065b      	lsls	r3, r3, #25
 80079e6:	d50d      	bpl.n	8007a04 <USB_EPClearStall+0x2e>
 80079e8:	f830 3022 	ldrh.w	r3, [r0, r2, lsl #2]
 80079ec:	f423 43e0 	bic.w	r3, r3, #28672	@ 0x7000
 80079f0:	f023 0370 	bic.w	r3, r3, #112	@ 0x70
 80079f4:	041b      	lsls	r3, r3, #16
 80079f6:	0c1b      	lsrs	r3, r3, #16
 80079f8:	f443 4300 	orr.w	r3, r3, #32768	@ 0x8000
 80079fc:	f043 03c0 	orr.w	r3, r3, #192	@ 0xc0
 8007a00:	f820 3022 	strh.w	r3, [r0, r2, lsl #2]

      if (ep->type != EP_TYPE_ISOC)
 8007a04:	78cb      	ldrb	r3, [r1, #3]
 8007a06:	2b01      	cmp	r3, #1
 8007a08:	d00f      	beq.n	8007a2a <USB_EPClearStall+0x54>
      {
        /* Configure NAK status for the Endpoint */
        PCD_SET_EP_TX_STATUS(USBx, ep->num, USB_EP_TX_NAK);
 8007a0a:	f830 3022 	ldrh.w	r3, [r0, r2, lsl #2]
 8007a0e:	f423 43e0 	bic.w	r3, r3, #28672	@ 0x7000
 8007a12:	f023 0340 	bic.w	r3, r3, #64	@ 0x40
 8007a16:	041b      	lsls	r3, r3, #16
 8007a18:	0c1b      	lsrs	r3, r3, #16
 8007a1a:	f083 0320 	eor.w	r3, r3, #32
    else
    {
      PCD_CLEAR_RX_DTOG(USBx, ep->num);

      /* Configure VALID status for the Endpoint */
      PCD_SET_EP_RX_STATUS(USBx, ep->num, USB_EP_RX_VALID);
 8007a1e:	f443 4300 	orr.w	r3, r3, #32768	@ 0x8000
 8007a22:	f043 0380 	orr.w	r3, r3, #128	@ 0x80
 8007a26:	f820 3022 	strh.w	r3, [r0, r2, lsl #2]
    }
  }

  return HAL_OK;
}
 8007a2a:	2000      	movs	r0, #0
 8007a2c:	4770      	bx	lr
      PCD_CLEAR_RX_DTOG(USBx, ep->num);
 8007a2e:	f830 3022 	ldrh.w	r3, [r0, r2, lsl #2]
 8007a32:	045b      	lsls	r3, r3, #17
 8007a34:	d50d      	bpl.n	8007a52 <USB_EPClearStall+0x7c>
 8007a36:	f830 3022 	ldrh.w	r3, [r0, r2, lsl #2]
 8007a3a:	f423 43e0 	bic.w	r3, r3, #28672	@ 0x7000
 8007a3e:	f023 0370 	bic.w	r3, r3, #112	@ 0x70
 8007a42:	041b      	lsls	r3, r3, #16
 8007a44:	0c1b      	lsrs	r3, r3, #16
 8007a46:	f443 4340 	orr.w	r3, r3, #49152	@ 0xc000
 8007a4a:	f043 0380 	orr.w	r3, r3, #128	@ 0x80
 8007a4e:	f820 3022 	strh.w	r3, [r0, r2, lsl #2]
      PCD_SET_EP_RX_STATUS(USBx, ep->num, USB_EP_RX_VALID);
 8007a52:	f830 3022 	ldrh.w	r3, [r0, r2, lsl #2]
 8007a56:	f423 4380 	bic.w	r3, r3, #16384	@ 0x4000
 8007a5a:	f023 0370 	bic.w	r3, r3, #112	@ 0x70
 8007a5e:	041b      	lsls	r3, r3, #16
 8007a60:	0c1b      	lsrs	r3, r3, #16
 8007a62:	f483 5340 	eor.w	r3, r3, #12288	@ 0x3000
 8007a66:	e7da      	b.n	8007a1e <USB_EPClearStall+0x48>

08007a68 <USB_SetDevAddress>:
  *          This parameter can be a value from 0 to 255
  * @retval HAL status
  */
HAL_StatusTypeDef  USB_SetDevAddress(USB_TypeDef *USBx, uint8_t address)
{
  if (address == 0U)
 8007a68:	b911      	cbnz	r1, 8007a70 <USB_SetDevAddress+0x8>
  {
    /* set device address and enable function */
    USBx->DADDR = (uint16_t)USB_DADDR_EF;
 8007a6a:	2380      	movs	r3, #128	@ 0x80
 8007a6c:	f8a0 304c 	strh.w	r3, [r0, #76]	@ 0x4c
  }

  return HAL_OK;
}
 8007a70:	2000      	movs	r0, #0
 8007a72:	4770      	bx	lr

08007a74 <USB_DevConnect>:
/**
  * @brief  USB_DevConnect Connect the USB device by enabling the pull-up/pull-down
  * @param  USBx Selected device
  * @retval HAL status
  */
HAL_StatusTypeDef  USB_DevConnect(USB_TypeDef *USBx)
 8007a74:	2000      	movs	r0, #0
 8007a76:	4770      	bx	lr

08007a78 <USB_DevDisconnect>:
/**
  * @brief  USB_DevDisconnect Disconnect the USB device by disabling the pull-up/pull-down
  * @param  USBx Selected device
  * @retval HAL status
  */
HAL_StatusTypeDef  USB_DevDisconnect(USB_TypeDef *USBx)
 8007a78:	2000      	movs	r0, #0
 8007a7a:	4770      	bx	lr

08007a7c <USB_ReadInterrupts>:
  */
uint32_t USB_ReadInterrupts(USB_TypeDef const *USBx)
{
  uint32_t tmpreg;

  tmpreg = USBx->ISTR;
 8007a7c:	f8b0 0044 	ldrh.w	r0, [r0, #68]	@ 0x44
  return tmpreg;
}
 8007a80:	b280      	uxth	r0, r0
 8007a82:	4770      	bx	lr

08007a84 <USB_EP0_OutStart>:
  /* NOTE : - This function is not required by USB Device FS peripheral, it is used
              only by USB OTG FS peripheral.
            - This function is added to ensure compatibility across platforms.
   */
  return HAL_OK;
}
 8007a84:	2000      	movs	r0, #0
 8007a86:	4770      	bx	lr

08007a88 <USB_WritePMA>:
  uint32_t count;
  uint16_t WrVal;
  __IO uint16_t *pdwVal;
  uint8_t *pBuf = pbUsrBuf;

  pdwVal = (__IO uint16_t *)(BaseAddr + 0x400U + ((uint32_t)wPMABufAddr * PMA_ACCESS));
 8007a88:	eb00 0042 	add.w	r0, r0, r2, lsl #1
  uint32_t n = ((uint32_t)wNBytes + 1U) >> 1;
 8007a8c:	3301      	adds	r3, #1
  pdwVal = (__IO uint16_t *)(BaseAddr + 0x400U + ((uint32_t)wPMABufAddr * PMA_ACCESS));
 8007a8e:	f500 6080 	add.w	r0, r0, #1024	@ 0x400
  uint32_t n = ((uint32_t)wNBytes + 1U) >> 1;
 8007a92:	085b      	lsrs	r3, r3, #1
 8007a94:	eb00 0383 	add.w	r3, r0, r3, lsl #2

  for (count = n; count != 0U; count--)
 8007a98:	4283      	cmp	r3, r0
 8007a9a:	d100      	bne.n	8007a9e <USB_WritePMA+0x16>
#endif /* PMA_ACCESS */

    pBuf++;
    pBuf++;
  }
}
 8007a9c:	4770      	bx	lr
    WrVal |= (uint16_t)pBuf[1] << 8;
 8007a9e:	f831 2b02 	ldrh.w	r2, [r1], #2
    *pdwVal = (WrVal & 0xFFFFU);
 8007aa2:	f820 2b04 	strh.w	r2, [r0], #4
  for (count = n; count != 0U; count--)
 8007aa6:	e7f7      	b.n	8007a98 <USB_WritePMA+0x10>

08007aa8 <USB_EPStartXfer>:
{
 8007aa8:	e92d 47f0 	stmdb	sp!, {r4, r5, r6, r7, r8, r9, sl, lr}
  if (ep->is_in == 1U)
 8007aac:	784b      	ldrb	r3, [r1, #1]
{
 8007aae:	4604      	mov	r4, r0
  if (ep->is_in == 1U)
 8007ab0:	2b01      	cmp	r3, #1
{
 8007ab2:	460d      	mov	r5, r1
    if (ep->doublebuffer == 0U)
 8007ab4:	7b0a      	ldrb	r2, [r1, #12]
  if (ep->is_in == 1U)
 8007ab6:	f040 8115 	bne.w	8007ce4 <USB_EPStartXfer+0x23c>
    if (ep->xfer_len > ep->maxpacket)
 8007aba:	f8d1 9010 	ldr.w	r9, [r1, #16]
 8007abe:	698f      	ldr	r7, [r1, #24]
      USB_WritePMA(USBx, ep->xfer_buff, ep->pmaadress, (uint16_t)len);
 8007ac0:	6949      	ldr	r1, [r1, #20]
    if (ep->xfer_len > ep->maxpacket)
 8007ac2:	454f      	cmp	r7, r9
 8007ac4:	bf28      	it	cs
 8007ac6:	464f      	movcs	r7, r9
    if (ep->doublebuffer == 0U)
 8007ac8:	bb0a      	cbnz	r2, 8007b0e <USB_EPStartXfer+0x66>
      USB_WritePMA(USBx, ep->xfer_buff, ep->pmaadress, (uint16_t)len);
 8007aca:	b2bf      	uxth	r7, r7
 8007acc:	88ea      	ldrh	r2, [r5, #6]
 8007ace:	463b      	mov	r3, r7
 8007ad0:	f7ff ffda 	bl	8007a88 <USB_WritePMA>
      PCD_SET_EP_TX_CNT(USBx, ep->num, len);
 8007ad4:	f8b4 0050 	ldrh.w	r0, [r4, #80]	@ 0x50
 8007ad8:	7829      	ldrb	r1, [r5, #0]
 8007ada:	b280      	uxth	r0, r0
 8007adc:	f204 4204 	addw	r2, r4, #1028	@ 0x404
 8007ae0:	0109      	lsls	r1, r1, #4
 8007ae2:	4402      	add	r2, r0
 8007ae4:	528f      	strh	r7, [r1, r2]
    PCD_SET_EP_TX_STATUS(USBx, ep->num, USB_EP_TX_VALID);
 8007ae6:	782a      	ldrb	r2, [r5, #0]
 8007ae8:	f834 3022 	ldrh.w	r3, [r4, r2, lsl #2]
 8007aec:	f423 43e0 	bic.w	r3, r3, #28672	@ 0x7000
 8007af0:	f023 0340 	bic.w	r3, r3, #64	@ 0x40
 8007af4:	041b      	lsls	r3, r3, #16
 8007af6:	0c1b      	lsrs	r3, r3, #16
 8007af8:	f083 0330 	eor.w	r3, r3, #48	@ 0x30
  return HAL_OK;
 8007afc:	2000      	movs	r0, #0
    PCD_SET_EP_TX_STATUS(USBx, ep->num, USB_EP_TX_VALID);
 8007afe:	f443 4300 	orr.w	r3, r3, #32768	@ 0x8000
 8007b02:	f043 0380 	orr.w	r3, r3, #128	@ 0x80
 8007b06:	f824 3022 	strh.w	r3, [r4, r2, lsl #2]
}
 8007b0a:	e8bd 87f0 	ldmia.w	sp!, {r4, r5, r6, r7, r8, r9, sl, pc}
      if (ep->type == EP_TYPE_BULK)
 8007b0e:	78eb      	ldrb	r3, [r5, #3]
          PCD_SET_BULK_EP_DBUF(USBx, ep->num);
 8007b10:	f895 e000 	ldrb.w	lr, [r5]
      if (ep->type == EP_TYPE_BULK)
 8007b14:	2b02      	cmp	r3, #2
        if (ep->xfer_len_db > ep->maxpacket)
 8007b16:	6a2e      	ldr	r6, [r5, #32]
            PCD_SET_EP_DBUF1_CNT(USBx, ep->num, ep->is_in, len);
 8007b18:	ea4f 1c0e 	mov.w	ip, lr, lsl #4
      if (ep->type == EP_TYPE_BULK)
 8007b1c:	f040 80cd 	bne.w	8007cba <USB_EPStartXfer+0x212>
        if (ep->xfer_len_db > ep->maxpacket)
 8007b20:	45b1      	cmp	r9, r6
          PCD_SET_BULK_EP_DBUF(USBx, ep->num);
 8007b22:	f830 202e 	ldrh.w	r2, [r0, lr, lsl #2]
        if (ep->xfer_len_db > ep->maxpacket)
 8007b26:	f080 80b1 	bcs.w	8007c8c <USB_EPStartXfer+0x1e4>
          PCD_SET_BULK_EP_DBUF(USBx, ep->num);
 8007b2a:	f422 42e0 	bic.w	r2, r2, #28672	@ 0x7000
 8007b2e:	f022 0270 	bic.w	r2, r2, #112	@ 0x70
 8007b32:	0412      	lsls	r2, r2, #16
 8007b34:	0c12      	lsrs	r2, r2, #16
 8007b36:	f442 4201 	orr.w	r2, r2, #33024	@ 0x8100
 8007b3a:	f042 0280 	orr.w	r2, r2, #128	@ 0x80
 8007b3e:	f820 202e 	strh.w	r2, [r0, lr, lsl #2]
          if ((PCD_GET_ENDPOINT(USBx, ep->num) & USB_EP_DTOG_TX) != 0U)
 8007b42:	f830 802e 	ldrh.w	r8, [r0, lr, lsl #2]
            PCD_SET_EP_DBUF1_CNT(USBx, ep->num, ep->is_in, len);
 8007b46:	f8b0 e050 	ldrh.w	lr, [r0, #80]	@ 0x50
          ep->xfer_len_db -= len;
 8007b4a:	1bf6      	subs	r6, r6, r7
          if ((PCD_GET_ENDPOINT(USBx, ep->num) & USB_EP_DTOG_TX) != 0U)
 8007b4c:	f018 0840 	ands.w	r8, r8, #64	@ 0x40
          ep->xfer_len_db -= len;
 8007b50:	622e      	str	r6, [r5, #32]
            ep->xfer_buff += len;
 8007b52:	eb01 0a07 	add.w	sl, r1, r7
      USB_WritePMA(USBx, ep->xfer_buff, ep->pmaadress, (uint16_t)len);
 8007b56:	b2bb      	uxth	r3, r7
            PCD_SET_EP_DBUF1_CNT(USBx, ep->num, ep->is_in, len);
 8007b58:	fa1f fe8e 	uxth.w	lr, lr
          if ((PCD_GET_ENDPOINT(USBx, ep->num) & USB_EP_DTOG_TX) != 0U)
 8007b5c:	d04d      	beq.n	8007bfa <USB_EPStartXfer+0x152>
            PCD_SET_EP_DBUF1_CNT(USBx, ep->num, ep->is_in, len);
 8007b5e:	f200 420c 	addw	r2, r0, #1036	@ 0x40c
 8007b62:	4472      	add	r2, lr
 8007b64:	f822 300c 	strh.w	r3, [r2, ip]
            USB_WritePMA(USBx, ep->xfer_buff, pmabuffer, (uint16_t)len);
 8007b68:	896a      	ldrh	r2, [r5, #10]
 8007b6a:	f7ff ff8d 	bl	8007a88 <USB_WritePMA>
            if (ep->xfer_len_db > ep->maxpacket)
 8007b6e:	45b1      	cmp	r9, r6
              ep->xfer_len_db -= len;
 8007b70:	bf36      	itet	cc
 8007b72:	1bf3      	subcc	r3, r6, r7
              ep->xfer_len_db = 0U;
 8007b74:	2300      	movcs	r3, #0
 8007b76:	463e      	movcc	r6, r7
            PCD_SET_EP_DBUF0_CNT(USBx, ep->num, ep->is_in, len);
 8007b78:	786a      	ldrb	r2, [r5, #1]
 8007b7a:	622b      	str	r3, [r5, #32]
            ep->xfer_buff += len;
 8007b7c:	f8c5 a014 	str.w	sl, [r5, #20]
            PCD_SET_EP_DBUF0_CNT(USBx, ep->num, ep->is_in, len);
 8007b80:	b2b3      	uxth	r3, r6
 8007b82:	bb72      	cbnz	r2, 8007be2 <USB_EPStartXfer+0x13a>
 8007b84:	f8b4 2050 	ldrh.w	r2, [r4, #80]	@ 0x50
 8007b88:	7828      	ldrb	r0, [r5, #0]
 8007b8a:	b292      	uxth	r2, r2
 8007b8c:	f204 4104 	addw	r1, r4, #1028	@ 0x404
 8007b90:	0100      	lsls	r0, r0, #4
 8007b92:	4411      	add	r1, r2
 8007b94:	5a42      	ldrh	r2, [r0, r1]
 8007b96:	2e3e      	cmp	r6, #62	@ 0x3e
 8007b98:	f3c2 0209 	ubfx	r2, r2, #0, #10
 8007b9c:	5242      	strh	r2, [r0, r1]
 8007b9e:	d915      	bls.n	8007bcc <USB_EPStartXfer+0x124>
 8007ba0:	06f2      	lsls	r2, r6, #27
 8007ba2:	5a42      	ldrh	r2, [r0, r1]
 8007ba4:	ea4f 1756 	mov.w	r7, r6, lsr #5
 8007ba8:	bf08      	it	eq
 8007baa:	f107 37ff 	addeq.w	r7, r7, #4294967295
 8007bae:	b292      	uxth	r2, r2
 8007bb0:	ea42 2287 	orr.w	r2, r2, r7, lsl #10
 8007bb4:	ea6f 4242 	mvn.w	r2, r2, lsl #17
 8007bb8:	ea6f 4252 	mvn.w	r2, r2, lsr #17
 8007bbc:	b292      	uxth	r2, r2
 8007bbe:	5242      	strh	r2, [r0, r1]
            USB_WritePMA(USBx, ep->xfer_buff, pmabuffer, (uint16_t)len);
 8007bc0:	892a      	ldrh	r2, [r5, #8]
            USB_WritePMA(USBx, ep->xfer_buff, pmabuffer, (uint16_t)len);
 8007bc2:	4651      	mov	r1, sl
 8007bc4:	4620      	mov	r0, r4
          USB_WritePMA(USBx, ep->xfer_buff, pmabuffer, (uint16_t)len);
 8007bc6:	f7ff ff5f 	bl	8007a88 <USB_WritePMA>
 8007bca:	e78c      	b.n	8007ae6 <USB_EPStartXfer+0x3e>
            PCD_SET_EP_DBUF0_CNT(USBx, ep->num, ep->is_in, len);
 8007bcc:	5a42      	ldrh	r2, [r0, r1]
 8007bce:	2e00      	cmp	r6, #0
 8007bd0:	d0f0      	beq.n	8007bb4 <USB_EPStartXfer+0x10c>
 8007bd2:	f006 0701 	and.w	r7, r6, #1
 8007bd6:	b292      	uxth	r2, r2
 8007bd8:	eb07 0656 	add.w	r6, r7, r6, lsr #1
 8007bdc:	ea42 2286 	orr.w	r2, r2, r6, lsl #10
 8007be0:	e7ec      	b.n	8007bbc <USB_EPStartXfer+0x114>
 8007be2:	2a01      	cmp	r2, #1
 8007be4:	d1ec      	bne.n	8007bc0 <USB_EPStartXfer+0x118>
 8007be6:	f8b4 0050 	ldrh.w	r0, [r4, #80]	@ 0x50
 8007bea:	7829      	ldrb	r1, [r5, #0]
 8007bec:	b280      	uxth	r0, r0
 8007bee:	f204 4204 	addw	r2, r4, #1028	@ 0x404
 8007bf2:	0109      	lsls	r1, r1, #4
 8007bf4:	4402      	add	r2, r0
 8007bf6:	528b      	strh	r3, [r1, r2]
 8007bf8:	e7e2      	b.n	8007bc0 <USB_EPStartXfer+0x118>
            PCD_SET_EP_DBUF0_CNT(USBx, ep->num, ep->is_in, len);
 8007bfa:	f200 4204 	addw	r2, r0, #1028	@ 0x404
 8007bfe:	4472      	add	r2, lr
 8007c00:	f822 300c 	strh.w	r3, [r2, ip]
            USB_WritePMA(USBx, ep->xfer_buff, pmabuffer, (uint16_t)len);
 8007c04:	892a      	ldrh	r2, [r5, #8]
 8007c06:	f7ff ff3f 	bl	8007a88 <USB_WritePMA>
            if (ep->xfer_len_db > ep->maxpacket)
 8007c0a:	45b1      	cmp	r9, r6
              ep->xfer_len_db -= len;
 8007c0c:	bf36      	itet	cc
 8007c0e:	1bf3      	subcc	r3, r6, r7
              ep->xfer_len_db = 0U;
 8007c10:	4643      	movcs	r3, r8
 8007c12:	463e      	movcc	r6, r7
            PCD_SET_EP_DBUF1_CNT(USBx, ep->num, ep->is_in, len);
 8007c14:	786a      	ldrb	r2, [r5, #1]
 8007c16:	622b      	str	r3, [r5, #32]
            ep->xfer_buff += len;
 8007c18:	f8c5 a014 	str.w	sl, [r5, #20]
            PCD_SET_EP_DBUF1_CNT(USBx, ep->num, ep->is_in, len);
 8007c1c:	b2b3      	uxth	r3, r6
 8007c1e:	bb4a      	cbnz	r2, 8007c74 <USB_EPStartXfer+0x1cc>
 8007c20:	f8b4 2050 	ldrh.w	r2, [r4, #80]	@ 0x50
 8007c24:	7828      	ldrb	r0, [r5, #0]
 8007c26:	b292      	uxth	r2, r2
 8007c28:	f204 410c 	addw	r1, r4, #1036	@ 0x40c
 8007c2c:	0100      	lsls	r0, r0, #4
 8007c2e:	4411      	add	r1, r2
 8007c30:	5a42      	ldrh	r2, [r0, r1]
 8007c32:	2e3e      	cmp	r6, #62	@ 0x3e
 8007c34:	f3c2 0209 	ubfx	r2, r2, #0, #10
 8007c38:	5242      	strh	r2, [r0, r1]
 8007c3a:	d910      	bls.n	8007c5e <USB_EPStartXfer+0x1b6>
 8007c3c:	5a42      	ldrh	r2, [r0, r1]
 8007c3e:	0977      	lsrs	r7, r6, #5
 8007c40:	06f6      	lsls	r6, r6, #27
 8007c42:	bf08      	it	eq
 8007c44:	f107 37ff 	addeq.w	r7, r7, #4294967295
 8007c48:	b292      	uxth	r2, r2
 8007c4a:	ea42 2287 	orr.w	r2, r2, r7, lsl #10
 8007c4e:	ea6f 4242 	mvn.w	r2, r2, lsl #17
 8007c52:	ea6f 4252 	mvn.w	r2, r2, lsr #17
 8007c56:	b292      	uxth	r2, r2
 8007c58:	5242      	strh	r2, [r0, r1]
            USB_WritePMA(USBx, ep->xfer_buff, pmabuffer, (uint16_t)len);
 8007c5a:	896a      	ldrh	r2, [r5, #10]
 8007c5c:	e7b1      	b.n	8007bc2 <USB_EPStartXfer+0x11a>
            PCD_SET_EP_DBUF1_CNT(USBx, ep->num, ep->is_in, len);
 8007c5e:	5a42      	ldrh	r2, [r0, r1]
 8007c60:	2e00      	cmp	r6, #0
 8007c62:	d0f4      	beq.n	8007c4e <USB_EPStartXfer+0x1a6>
 8007c64:	f006 0701 	and.w	r7, r6, #1
 8007c68:	b292      	uxth	r2, r2
 8007c6a:	eb07 0656 	add.w	r6, r7, r6, lsr #1
 8007c6e:	ea42 2286 	orr.w	r2, r2, r6, lsl #10
 8007c72:	e7f0      	b.n	8007c56 <USB_EPStartXfer+0x1ae>
 8007c74:	2a01      	cmp	r2, #1
 8007c76:	d1f0      	bne.n	8007c5a <USB_EPStartXfer+0x1b2>
 8007c78:	f8b4 0050 	ldrh.w	r0, [r4, #80]	@ 0x50
 8007c7c:	7829      	ldrb	r1, [r5, #0]
 8007c7e:	b280      	uxth	r0, r0
 8007c80:	f204 420c 	addw	r2, r4, #1036	@ 0x40c
 8007c84:	0109      	lsls	r1, r1, #4
 8007c86:	4402      	add	r2, r0
 8007c88:	528b      	strh	r3, [r1, r2]
 8007c8a:	e7e6      	b.n	8007c5a <USB_EPStartXfer+0x1b2>
          PCD_CLEAR_BULK_EP_DBUF(USBx, ep->num);
 8007c8c:	f422 42e2 	bic.w	r2, r2, #28928	@ 0x7100
 8007c90:	f022 0270 	bic.w	r2, r2, #112	@ 0x70
 8007c94:	0412      	lsls	r2, r2, #16
 8007c96:	0c12      	lsrs	r2, r2, #16
 8007c98:	f442 4200 	orr.w	r2, r2, #32768	@ 0x8000
 8007c9c:	f042 0280 	orr.w	r2, r2, #128	@ 0x80
 8007ca0:	f820 202e 	strh.w	r2, [r0, lr, lsl #2]
          PCD_SET_EP_TX_CNT(USBx, ep->num, len);
 8007ca4:	f8b0 3050 	ldrh.w	r3, [r0, #80]	@ 0x50
 8007ca8:	f200 4204 	addw	r2, r0, #1028	@ 0x404
 8007cac:	b29b      	uxth	r3, r3
 8007cae:	441a      	add	r2, r3
 8007cb0:	b2b3      	uxth	r3, r6
          PCD_SET_EP_DBUF0_CNT(USBx, ep->num, ep->is_in, len);
 8007cb2:	f822 300c 	strh.w	r3, [r2, ip]
          USB_WritePMA(USBx, ep->xfer_buff, pmabuffer, (uint16_t)len);
 8007cb6:	892a      	ldrh	r2, [r5, #8]
 8007cb8:	e785      	b.n	8007bc6 <USB_EPStartXfer+0x11e>
        if ((PCD_GET_ENDPOINT(USBx, ep->num) & USB_EP_DTOG_TX) != 0U)
 8007cba:	f830 202e 	ldrh.w	r2, [r0, lr, lsl #2]
        ep->xfer_len_db -= len;
 8007cbe:	1bf6      	subs	r6, r6, r7
 8007cc0:	622e      	str	r6, [r5, #32]
          PCD_SET_EP_DBUF1_CNT(USBx, ep->num, ep->is_in, len);
 8007cc2:	f8b0 6050 	ldrh.w	r6, [r0, #80]	@ 0x50
        if ((PCD_GET_ENDPOINT(USBx, ep->num) & USB_EP_DTOG_TX) != 0U)
 8007cc6:	0652      	lsls	r2, r2, #25
      USB_WritePMA(USBx, ep->xfer_buff, ep->pmaadress, (uint16_t)len);
 8007cc8:	b2bb      	uxth	r3, r7
          PCD_SET_EP_DBUF1_CNT(USBx, ep->num, ep->is_in, len);
 8007cca:	b2b6      	uxth	r6, r6
        if ((PCD_GET_ENDPOINT(USBx, ep->num) & USB_EP_DTOG_TX) != 0U)
 8007ccc:	d506      	bpl.n	8007cdc <USB_EPStartXfer+0x234>
          PCD_SET_EP_DBUF1_CNT(USBx, ep->num, ep->is_in, len);
 8007cce:	f200 420c 	addw	r2, r0, #1036	@ 0x40c
 8007cd2:	4432      	add	r2, r6
 8007cd4:	f822 300c 	strh.w	r3, [r2, ip]
          USB_WritePMA(USBx, ep->xfer_buff, pmabuffer, (uint16_t)len);
 8007cd8:	896a      	ldrh	r2, [r5, #10]
 8007cda:	e774      	b.n	8007bc6 <USB_EPStartXfer+0x11e>
          PCD_SET_EP_DBUF0_CNT(USBx, ep->num, ep->is_in, len);
 8007cdc:	f200 4204 	addw	r2, r0, #1028	@ 0x404
 8007ce0:	4432      	add	r2, r6
 8007ce2:	e7e6      	b.n	8007cb2 <USB_EPStartXfer+0x20a>
    if (ep->doublebuffer == 0U)
 8007ce4:	2a00      	cmp	r2, #0
 8007ce6:	d13b      	bne.n	8007d60 <USB_EPStartXfer+0x2b8>
      if (ep->xfer_len > ep->maxpacket)
 8007ce8:	698b      	ldr	r3, [r1, #24]
 8007cea:	6909      	ldr	r1, [r1, #16]
      PCD_SET_EP_RX_CNT(USBx, ep->num, len);
 8007cec:	f8b0 0050 	ldrh.w	r0, [r0, #80]	@ 0x50
      if (ep->xfer_len > ep->maxpacket)
 8007cf0:	428b      	cmp	r3, r1
        ep->xfer_len -= len;
 8007cf2:	bf84      	itt	hi
 8007cf4:	1a5a      	subhi	r2, r3, r1
        len = ep->maxpacket;
 8007cf6:	460b      	movhi	r3, r1
      PCD_SET_EP_RX_CNT(USBx, ep->num, len);
 8007cf8:	7829      	ldrb	r1, [r5, #0]
 8007cfa:	61aa      	str	r2, [r5, #24]
 8007cfc:	b280      	uxth	r0, r0
 8007cfe:	f204 420c 	addw	r2, r4, #1036	@ 0x40c
 8007d02:	0109      	lsls	r1, r1, #4
 8007d04:	4402      	add	r2, r0
 8007d06:	5a88      	ldrh	r0, [r1, r2]
 8007d08:	2b3e      	cmp	r3, #62	@ 0x3e
 8007d0a:	f3c0 0009 	ubfx	r0, r0, #0, #10
 8007d0e:	5288      	strh	r0, [r1, r2]
 8007d10:	d91a      	bls.n	8007d48 <USB_EPStartXfer+0x2a0>
 8007d12:	0958      	lsrs	r0, r3, #5
 8007d14:	06db      	lsls	r3, r3, #27
 8007d16:	5a8b      	ldrh	r3, [r1, r2]
 8007d18:	bf08      	it	eq
 8007d1a:	f100 30ff 	addeq.w	r0, r0, #4294967295
 8007d1e:	b29b      	uxth	r3, r3
 8007d20:	ea43 2380 	orr.w	r3, r3, r0, lsl #10
 8007d24:	ea6f 4343 	mvn.w	r3, r3, lsl #17
 8007d28:	ea6f 4353 	mvn.w	r3, r3, lsr #17
 8007d2c:	b29b      	uxth	r3, r3
 8007d2e:	528b      	strh	r3, [r1, r2]
    PCD_SET_EP_RX_STATUS(USBx, ep->num, USB_EP_RX_VALID);
 8007d30:	782a      	ldrb	r2, [r5, #0]
 8007d32:	f834 3022 	ldrh.w	r3, [r4, r2, lsl #2]
 8007d36:	f423 4380 	bic.w	r3, r3, #16384	@ 0x4000
 8007d3a:	f023 0370 	bic.w	r3, r3, #112	@ 0x70
 8007d3e:	041b      	lsls	r3, r3, #16
 8007d40:	0c1b      	lsrs	r3, r3, #16
 8007d42:	f483 5340 	eor.w	r3, r3, #12288	@ 0x3000
 8007d46:	e6d9      	b.n	8007afc <USB_EPStartXfer+0x54>
      PCD_SET_EP_RX_CNT(USBx, ep->num, len);
 8007d48:	b90b      	cbnz	r3, 8007d4e <USB_EPStartXfer+0x2a6>
 8007d4a:	5a8b      	ldrh	r3, [r1, r2]
 8007d4c:	e7ea      	b.n	8007d24 <USB_EPStartXfer+0x27c>
 8007d4e:	5a88      	ldrh	r0, [r1, r2]
 8007d50:	f003 0601 	and.w	r6, r3, #1
 8007d54:	b280      	uxth	r0, r0
 8007d56:	eb06 0353 	add.w	r3, r6, r3, lsr #1
 8007d5a:	ea40 2383 	orr.w	r3, r0, r3, lsl #10
 8007d5e:	e7e5      	b.n	8007d2c <USB_EPStartXfer+0x284>
      if (ep->type == EP_TYPE_BULK)
 8007d60:	78ca      	ldrb	r2, [r1, #3]
 8007d62:	2a02      	cmp	r2, #2
 8007d64:	d170      	bne.n	8007e48 <USB_EPStartXfer+0x3a0>
        PCD_SET_EP_DBUF_CNT(USBx, ep->num, ep->is_in, ep->maxpacket);
 8007d66:	2b00      	cmp	r3, #0
 8007d68:	d138      	bne.n	8007ddc <USB_EPStartXfer+0x334>
 8007d6a:	f8b0 2050 	ldrh.w	r2, [r0, #80]	@ 0x50
 8007d6e:	780b      	ldrb	r3, [r1, #0]
 8007d70:	b292      	uxth	r2, r2
 8007d72:	f200 4004 	addw	r0, r0, #1028	@ 0x404
 8007d76:	011b      	lsls	r3, r3, #4
 8007d78:	4410      	add	r0, r2
 8007d7a:	5ac2      	ldrh	r2, [r0, r3]
 8007d7c:	f3c2 0209 	ubfx	r2, r2, #0, #10
 8007d80:	52c2      	strh	r2, [r0, r3]
 8007d82:	690a      	ldr	r2, [r1, #16]
 8007d84:	2a3e      	cmp	r2, #62	@ 0x3e
 8007d86:	d944      	bls.n	8007e12 <USB_EPStartXfer+0x36a>
 8007d88:	5ac1      	ldrh	r1, [r0, r3]
 8007d8a:	0956      	lsrs	r6, r2, #5
 8007d8c:	06d7      	lsls	r7, r2, #27
 8007d8e:	bf08      	it	eq
 8007d90:	f106 36ff 	addeq.w	r6, r6, #4294967295
 8007d94:	b289      	uxth	r1, r1
 8007d96:	ea41 2186 	orr.w	r1, r1, r6, lsl #10
 8007d9a:	ea6f 4141 	mvn.w	r1, r1, lsl #17
 8007d9e:	ea6f 4151 	mvn.w	r1, r1, lsr #17
 8007da2:	b289      	uxth	r1, r1
 8007da4:	52c1      	strh	r1, [r0, r3]
 8007da6:	f8b4 0050 	ldrh.w	r0, [r4, #80]	@ 0x50
 8007daa:	f204 410c 	addw	r1, r4, #1036	@ 0x40c
 8007dae:	b280      	uxth	r0, r0
 8007db0:	4401      	add	r1, r0
 8007db2:	5ac8      	ldrh	r0, [r1, r3]
 8007db4:	2a3e      	cmp	r2, #62	@ 0x3e
 8007db6:	f3c0 0009 	ubfx	r0, r0, #0, #10
 8007dba:	52c8      	strh	r0, [r1, r3]
 8007dbc:	d934      	bls.n	8007e28 <USB_EPStartXfer+0x380>
 8007dbe:	0950      	lsrs	r0, r2, #5
 8007dc0:	06d6      	lsls	r6, r2, #27
 8007dc2:	5aca      	ldrh	r2, [r1, r3]
 8007dc4:	bf08      	it	eq
 8007dc6:	f100 30ff 	addeq.w	r0, r0, #4294967295
 8007dca:	b292      	uxth	r2, r2
 8007dcc:	ea42 2280 	orr.w	r2, r2, r0, lsl #10
 8007dd0:	ea6f 4242 	mvn.w	r2, r2, lsl #17
 8007dd4:	ea6f 4252 	mvn.w	r2, r2, lsr #17
 8007dd8:	b292      	uxth	r2, r2
 8007dda:	52ca      	strh	r2, [r1, r3]
        if (ep->xfer_count != 0U)
 8007ddc:	69eb      	ldr	r3, [r5, #28]
 8007dde:	2b00      	cmp	r3, #0
 8007de0:	d0a6      	beq.n	8007d30 <USB_EPStartXfer+0x288>
          wEPVal = PCD_GET_ENDPOINT(USBx, ep->num);
 8007de2:	782a      	ldrb	r2, [r5, #0]
 8007de4:	f834 1022 	ldrh.w	r1, [r4, r2, lsl #2]
          if ((((wEPVal & USB_EP_DTOG_RX) != 0U) && ((wEPVal & USB_EP_DTOG_TX) != 0U)) ||
 8007de8:	0448      	lsls	r0, r1, #17
 8007dea:	f001 0340 	and.w	r3, r1, #64	@ 0x40
 8007dee:	d527      	bpl.n	8007e40 <USB_EPStartXfer+0x398>
 8007df0:	2b00      	cmp	r3, #0
 8007df2:	d09d      	beq.n	8007d30 <USB_EPStartXfer+0x288>
            PCD_FREE_USER_BUFFER(USBx, ep->num, 0U);
 8007df4:	f834 3022 	ldrh.w	r3, [r4, r2, lsl #2]
 8007df8:	f423 43e0 	bic.w	r3, r3, #28672	@ 0x7000
 8007dfc:	f023 0370 	bic.w	r3, r3, #112	@ 0x70
 8007e00:	041b      	lsls	r3, r3, #16
 8007e02:	0c1b      	lsrs	r3, r3, #16
 8007e04:	f443 4300 	orr.w	r3, r3, #32768	@ 0x8000
 8007e08:	f043 03c0 	orr.w	r3, r3, #192	@ 0xc0
 8007e0c:	f824 3022 	strh.w	r3, [r4, r2, lsl #2]
 8007e10:	e78e      	b.n	8007d30 <USB_EPStartXfer+0x288>
        PCD_SET_EP_DBUF_CNT(USBx, ep->num, ep->is_in, ep->maxpacket);
 8007e12:	5ac1      	ldrh	r1, [r0, r3]
 8007e14:	2a00      	cmp	r2, #0
 8007e16:	d0c0      	beq.n	8007d9a <USB_EPStartXfer+0x2f2>
 8007e18:	f002 0601 	and.w	r6, r2, #1
 8007e1c:	b289      	uxth	r1, r1
 8007e1e:	eb06 0652 	add.w	r6, r6, r2, lsr #1
 8007e22:	ea41 2186 	orr.w	r1, r1, r6, lsl #10
 8007e26:	e7bc      	b.n	8007da2 <USB_EPStartXfer+0x2fa>
 8007e28:	b90a      	cbnz	r2, 8007e2e <USB_EPStartXfer+0x386>
 8007e2a:	5aca      	ldrh	r2, [r1, r3]
 8007e2c:	e7d0      	b.n	8007dd0 <USB_EPStartXfer+0x328>
 8007e2e:	5ac8      	ldrh	r0, [r1, r3]
 8007e30:	f002 0601 	and.w	r6, r2, #1
 8007e34:	b280      	uxth	r0, r0
 8007e36:	eb06 0252 	add.w	r2, r6, r2, lsr #1
 8007e3a:	ea40 2282 	orr.w	r2, r0, r2, lsl #10
 8007e3e:	e7cb      	b.n	8007dd8 <USB_EPStartXfer+0x330>
              (((wEPVal & USB_EP_DTOG_RX) == 0U) && ((wEPVal & USB_EP_DTOG_TX) == 0U)))
 8007e40:	2b00      	cmp	r3, #0
 8007e42:	f47f af75 	bne.w	8007d30 <USB_EPStartXfer+0x288>
 8007e46:	e7d5      	b.n	8007df4 <USB_EPStartXfer+0x34c>
      else if (ep->type == EP_TYPE_ISOC)
 8007e48:	2a01      	cmp	r2, #1
 8007e4a:	d15c      	bne.n	8007f06 <USB_EPStartXfer+0x45e>
        if (ep->xfer_len > ep->maxpacket)
 8007e4c:	698a      	ldr	r2, [r1, #24]
 8007e4e:	6909      	ldr	r1, [r1, #16]
 8007e50:	428a      	cmp	r2, r1
          ep->xfer_len = 0U;
 8007e52:	bf94      	ite	ls
 8007e54:	2000      	movls	r0, #0
          ep->xfer_len -= len;
 8007e56:	1a50      	subhi	r0, r2, r1
 8007e58:	61a8      	str	r0, [r5, #24]
          len = ep->maxpacket;
 8007e5a:	bf88      	it	hi
 8007e5c:	460a      	movhi	r2, r1
        PCD_SET_EP_DBUF_CNT(USBx, ep->num, ep->is_in, len);
 8007e5e:	2b00      	cmp	r3, #0
 8007e60:	f47f af66 	bne.w	8007d30 <USB_EPStartXfer+0x288>
 8007e64:	f8b4 1050 	ldrh.w	r1, [r4, #80]	@ 0x50
 8007e68:	782b      	ldrb	r3, [r5, #0]
 8007e6a:	b289      	uxth	r1, r1
 8007e6c:	f204 4004 	addw	r0, r4, #1028	@ 0x404
 8007e70:	011b      	lsls	r3, r3, #4
 8007e72:	4408      	add	r0, r1
 8007e74:	5ac1      	ldrh	r1, [r0, r3]
 8007e76:	2a3e      	cmp	r2, #62	@ 0x3e
 8007e78:	f3c1 0109 	ubfx	r1, r1, #0, #10
 8007e7c:	52c1      	strh	r1, [r0, r3]
 8007e7e:	d92b      	bls.n	8007ed8 <USB_EPStartXfer+0x430>
 8007e80:	06d1      	lsls	r1, r2, #27
 8007e82:	5ac1      	ldrh	r1, [r0, r3]
 8007e84:	ea4f 1652 	mov.w	r6, r2, lsr #5
 8007e88:	bf08      	it	eq
 8007e8a:	f106 36ff 	addeq.w	r6, r6, #4294967295
 8007e8e:	b289      	uxth	r1, r1
 8007e90:	ea41 2186 	orr.w	r1, r1, r6, lsl #10
 8007e94:	ea6f 4141 	mvn.w	r1, r1, lsl #17
 8007e98:	ea6f 4151 	mvn.w	r1, r1, lsr #17
 8007e9c:	b289      	uxth	r1, r1
 8007e9e:	52c1      	strh	r1, [r0, r3]
 8007ea0:	f8b4 0050 	ldrh.w	r0, [r4, #80]	@ 0x50
 8007ea4:	f204 410c 	addw	r1, r4, #1036	@ 0x40c
 8007ea8:	b280      	uxth	r0, r0
 8007eaa:	4401      	add	r1, r0
 8007eac:	5ac8      	ldrh	r0, [r1, r3]
 8007eae:	2a3e      	cmp	r2, #62	@ 0x3e
 8007eb0:	f3c0 0009 	ubfx	r0, r0, #0, #10
 8007eb4:	52c8      	strh	r0, [r1, r3]
 8007eb6:	d91a      	bls.n	8007eee <USB_EPStartXfer+0x446>
 8007eb8:	0950      	lsrs	r0, r2, #5
 8007eba:	06d2      	lsls	r2, r2, #27
 8007ebc:	5aca      	ldrh	r2, [r1, r3]
 8007ebe:	bf08      	it	eq
 8007ec0:	f100 30ff 	addeq.w	r0, r0, #4294967295
 8007ec4:	b292      	uxth	r2, r2
 8007ec6:	ea42 2280 	orr.w	r2, r2, r0, lsl #10
 8007eca:	ea6f 4242 	mvn.w	r2, r2, lsl #17
 8007ece:	ea6f 4252 	mvn.w	r2, r2, lsr #17
 8007ed2:	b292      	uxth	r2, r2
 8007ed4:	52ca      	strh	r2, [r1, r3]
 8007ed6:	e72b      	b.n	8007d30 <USB_EPStartXfer+0x288>
 8007ed8:	5ac1      	ldrh	r1, [r0, r3]
 8007eda:	2a00      	cmp	r2, #0
 8007edc:	d0da      	beq.n	8007e94 <USB_EPStartXfer+0x3ec>
 8007ede:	f002 0601 	and.w	r6, r2, #1
 8007ee2:	b289      	uxth	r1, r1
 8007ee4:	eb06 0652 	add.w	r6, r6, r2, lsr #1
 8007ee8:	ea41 2186 	orr.w	r1, r1, r6, lsl #10
 8007eec:	e7d6      	b.n	8007e9c <USB_EPStartXfer+0x3f4>
 8007eee:	b90a      	cbnz	r2, 8007ef4 <USB_EPStartXfer+0x44c>
 8007ef0:	5aca      	ldrh	r2, [r1, r3]
 8007ef2:	e7ea      	b.n	8007eca <USB_EPStartXfer+0x422>
 8007ef4:	5ac8      	ldrh	r0, [r1, r3]
 8007ef6:	f002 0601 	and.w	r6, r2, #1
 8007efa:	b280      	uxth	r0, r0
 8007efc:	eb06 0252 	add.w	r2, r6, r2, lsr #1
 8007f00:	ea40 2282 	orr.w	r2, r0, r2, lsl #10
 8007f04:	e7e5      	b.n	8007ed2 <USB_EPStartXfer+0x42a>
        return HAL_ERROR;
 8007f06:	2001      	movs	r0, #1
 8007f08:	e5ff      	b.n	8007b0a <USB_EPStartXfer+0x62>

08007f0a <USB_ReadPMA>:
  uint32_t count;
  uint32_t RdVal;
  __IO uint16_t *pdwVal;
  uint8_t *pBuf = pbUsrBuf;

  pdwVal = (__IO uint16_t *)(BaseAddr + 0x400U + ((uint32_t)wPMABufAddr * PMA_ACCESS));
 8007f0a:	eb00 0042 	add.w	r0, r0, r2, lsl #1
{
 8007f0e:	b5f0      	push	{r4, r5, r6, r7, lr}
  pdwVal = (__IO uint16_t *)(BaseAddr + 0x400U + ((uint32_t)wPMABufAddr * PMA_ACCESS));
 8007f10:	f500 6080 	add.w	r0, r0, #1024	@ 0x400
  uint32_t n = (uint32_t)wNBytes >> 1;
 8007f14:	085d      	lsrs	r5, r3, #1
  pdwVal = (__IO uint16_t *)(BaseAddr + 0x400U + ((uint32_t)wPMABufAddr * PMA_ACCESS));
 8007f16:	4607      	mov	r7, r0

  for (count = n; count != 0U; count--)
 8007f18:	460c      	mov	r4, r1
 8007f1a:	462e      	mov	r6, r5
 8007f1c:	3402      	adds	r4, #2
 8007f1e:	b936      	cbnz	r6, 8007f2e <USB_ReadPMA+0x24>
#if PMA_ACCESS > 1U
    pdwVal++;
#endif /* PMA_ACCESS */
  }

  if ((wNBytes % 2U) != 0U)
 8007f20:	07db      	lsls	r3, r3, #31
  {
    RdVal = *pdwVal;
 8007f22:	bf44      	itt	mi
 8007f24:	f830 3025 	ldrhmi.w	r3, [r0, r5, lsl #2]
    *pBuf = (uint8_t)((RdVal >> 0) & 0xFFU);
 8007f28:	f801 3015 	strbmi.w	r3, [r1, r5, lsl #1]
  }
}
 8007f2c:	bdf0      	pop	{r4, r5, r6, r7, pc}
    RdVal = *(__IO uint16_t *)pdwVal;
 8007f2e:	f837 2b04 	ldrh.w	r2, [r7], #4
  for (count = n; count != 0U; count--)
 8007f32:	3e01      	subs	r6, #1
    RdVal = *(__IO uint16_t *)pdwVal;
 8007f34:	b292      	uxth	r2, r2
    *pBuf = (uint8_t)((RdVal >> 0) & 0xFFU);
 8007f36:	f804 2c02 	strb.w	r2, [r4, #-2]
    *pBuf = (uint8_t)((RdVal >> 8) & 0xFFU);
 8007f3a:	0a12      	lsrs	r2, r2, #8
 8007f3c:	f804 2c01 	strb.w	r2, [r4, #-1]
  for (count = n; count != 0U; count--)
 8007f40:	e7ec      	b.n	8007f1c <USB_ReadPMA+0x12>

08007f42 <USBD_CDC_EP0_RxReady>:
  */
static uint8_t  USBD_CDC_EP0_RxReady(USBD_HandleTypeDef *pdev)
{
  USBD_CDC_HandleTypeDef   *hcdc = (USBD_CDC_HandleTypeDef *) pdev->pClassData;

  if ((pdev->pUserData != NULL) && (hcdc->CmdOpCode != 0xFFU))
 8007f42:	f8d0 32bc 	ldr.w	r3, [r0, #700]	@ 0x2bc
{
 8007f46:	b510      	push	{r4, lr}
  if ((pdev->pUserData != NULL) && (hcdc->CmdOpCode != 0xFFU))
 8007f48:	b16b      	cbz	r3, 8007f66 <USBD_CDC_EP0_RxReady+0x24>
  USBD_CDC_HandleTypeDef   *hcdc = (USBD_CDC_HandleTypeDef *) pdev->pClassData;
 8007f4a:	f8d0 42b8 	ldr.w	r4, [r0, #696]	@ 0x2b8
  if ((pdev->pUserData != NULL) && (hcdc->CmdOpCode != 0xFFU))
 8007f4e:	f894 0200 	ldrb.w	r0, [r4, #512]	@ 0x200
 8007f52:	28ff      	cmp	r0, #255	@ 0xff
 8007f54:	d007      	beq.n	8007f66 <USBD_CDC_EP0_RxReady+0x24>
  {
    ((USBD_CDC_ItfTypeDef *)pdev->pUserData)->Control(hcdc->CmdOpCode,
 8007f56:	689b      	ldr	r3, [r3, #8]
 8007f58:	4621      	mov	r1, r4
 8007f5a:	f894 2201 	ldrb.w	r2, [r4, #513]	@ 0x201
 8007f5e:	4798      	blx	r3
                                                      (uint8_t *)(void *)hcdc->data,
                                                      (uint16_t)hcdc->CmdLength);
    hcdc->CmdOpCode = 0xFFU;
 8007f60:	23ff      	movs	r3, #255	@ 0xff
 8007f62:	f884 3200 	strb.w	r3, [r4, #512]	@ 0x200

  }
  return USBD_OK;
}
 8007f66:	2000      	movs	r0, #0
 8007f68:	bd10      	pop	{r4, pc}
	...

08007f6c <USBD_CDC_GetFSCfgDesc>:
  * @param  length : pointer data length
  * @retval pointer to descriptor buffer
  */
static uint8_t  *USBD_CDC_GetFSCfgDesc(uint16_t *length)
{
  *length = sizeof(USBD_CDC_CfgFSDesc);
 8007f6c:	2343      	movs	r3, #67	@ 0x43
 8007f6e:	8003      	strh	r3, [r0, #0]
  return USBD_CDC_CfgFSDesc;
}
 8007f70:	4800      	ldr	r0, [pc, #0]	@ (8007f74 <USBD_CDC_GetFSCfgDesc+0x8>)
 8007f72:	4770      	bx	lr
 8007f74:	200000bc 	.word	0x200000bc

08007f78 <USBD_CDC_GetHSCfgDesc>:
  * @param  length : pointer data length
  * @retval pointer to descriptor buffer
  */
static uint8_t  *USBD_CDC_GetHSCfgDesc(uint16_t *length)
{
  *length = sizeof(USBD_CDC_CfgHSDesc);
 8007f78:	2343      	movs	r3, #67	@ 0x43
 8007f7a:	8003      	strh	r3, [r0, #0]
  return USBD_CDC_CfgHSDesc;
}
 8007f7c:	4800      	ldr	r0, [pc, #0]	@ (8007f80 <USBD_CDC_GetHSCfgDesc+0x8>)
 8007f7e:	4770      	bx	lr
 8007f80:	20000100 	.word	0x20000100

08007f84 <USBD_CDC_GetOtherSpeedCfgDesc>:
  * @param  length : pointer data length
  * @retval pointer to descriptor buffer
  */
static uint8_t  *USBD_CDC_GetOtherSpeedCfgDesc(uint16_t *length)
{
  *length = sizeof(USBD_CDC_OtherSpeedCfgDesc);
 8007f84:	2343      	movs	r3, #67	@ 0x43
 8007f86:	8003      	strh	r3, [r0, #0]
  return USBD_CDC_OtherSpeedCfgDesc;
}
 8007f88:	4800      	ldr	r0, [pc, #0]	@ (8007f8c <USBD_CDC_GetOtherSpeedCfgDesc+0x8>)
 8007f8a:	4770      	bx	lr
 8007f8c:	20000078 	.word	0x20000078

08007f90 <USBD_CDC_GetDeviceQualifierDescriptor>:
* @param  length : pointer data length
* @retval pointer to descriptor buffer
*/
uint8_t  *USBD_CDC_GetDeviceQualifierDescriptor(uint16_t *length)
{
  *length = sizeof(USBD_CDC_DeviceQualifierDesc);
 8007f90:	230a      	movs	r3, #10
 8007f92:	8003      	strh	r3, [r0, #0]
  return USBD_CDC_DeviceQualifierDesc;
}
 8007f94:	4800      	ldr	r0, [pc, #0]	@ (8007f98 <USBD_CDC_GetDeviceQualifierDescriptor+0x8>)
 8007f96:	4770      	bx	lr
 8007f98:	2000017c 	.word	0x2000017c

08007f9c <USBD_CDC_DataOut>:
{
 8007f9c:	b538      	push	{r3, r4, r5, lr}
 8007f9e:	4604      	mov	r4, r0
  USBD_CDC_HandleTypeDef   *hcdc = (USBD_CDC_HandleTypeDef *) pdev->pClassData;
 8007fa0:	f8d0 52b8 	ldr.w	r5, [r0, #696]	@ 0x2b8
  hcdc->RxLength = USBD_LL_GetRxDataSize(pdev, epnum);
 8007fa4:	f000 feea 	bl	8008d7c <USBD_LL_GetRxDataSize>
  if (pdev->pClassData != NULL)
 8007fa8:	f8d4 32b8 	ldr.w	r3, [r4, #696]	@ 0x2b8
  hcdc->RxLength = USBD_LL_GetRxDataSize(pdev, epnum);
 8007fac:	f8c5 020c 	str.w	r0, [r5, #524]	@ 0x20c
  if (pdev->pClassData != NULL)
 8007fb0:	b14b      	cbz	r3, 8007fc6 <USBD_CDC_DataOut+0x2a>
    ((USBD_CDC_ItfTypeDef *)pdev->pUserData)->Receive(hcdc->RxBuffer, &hcdc->RxLength);
 8007fb2:	f8d4 32bc 	ldr.w	r3, [r4, #700]	@ 0x2bc
 8007fb6:	f8d5 0204 	ldr.w	r0, [r5, #516]	@ 0x204
 8007fba:	68db      	ldr	r3, [r3, #12]
 8007fbc:	f505 7103 	add.w	r1, r5, #524	@ 0x20c
 8007fc0:	4798      	blx	r3
    return USBD_OK;
 8007fc2:	2000      	movs	r0, #0
}
 8007fc4:	bd38      	pop	{r3, r4, r5, pc}
    return USBD_FAIL;
 8007fc6:	2002      	movs	r0, #2
 8007fc8:	e7fc      	b.n	8007fc4 <USBD_CDC_DataOut+0x28>

08007fca <USBD_CDC_DataIn>:
{
 8007fca:	b5f8      	push	{r3, r4, r5, r6, r7, lr}
  USBD_CDC_HandleTypeDef *hcdc = (USBD_CDC_HandleTypeDef *)pdev->pClassData;
 8007fcc:	f8d0 62b8 	ldr.w	r6, [r0, #696]	@ 0x2b8
  if (pdev->pClassData != NULL)
 8007fd0:	b1ce      	cbz	r6, 8008006 <USBD_CDC_DataIn+0x3c>
    if ((pdev->ep_in[epnum].total_length > 0U) && ((pdev->ep_in[epnum].total_length % hpcd->IN_ep[epnum].maxpacket) == 0U))
 8007fd2:	2414      	movs	r4, #20
 8007fd4:	fb04 0401 	mla	r4, r4, r1, r0
 8007fd8:	69e3      	ldr	r3, [r4, #28]
 8007fda:	b183      	cbz	r3, 8007ffe <USBD_CDC_DataIn+0x34>
 8007fdc:	2728      	movs	r7, #40	@ 0x28
 8007fde:	f8d0 22c0 	ldr.w	r2, [r0, #704]	@ 0x2c0
 8007fe2:	fb07 2201 	mla	r2, r7, r1, r2
 8007fe6:	6a12      	ldr	r2, [r2, #32]
 8007fe8:	fbb3 f5f2 	udiv	r5, r3, r2
 8007fec:	fb02 3315 	mls	r3, r2, r5, r3
 8007ff0:	b92b      	cbnz	r3, 8007ffe <USBD_CDC_DataIn+0x34>
      USBD_LL_Transmit(pdev, epnum, NULL, 0U);
 8007ff2:	461a      	mov	r2, r3
      pdev->ep_in[epnum].total_length = 0U;
 8007ff4:	61e3      	str	r3, [r4, #28]
      USBD_LL_Transmit(pdev, epnum, NULL, 0U);
 8007ff6:	f000 feaf 	bl	8008d58 <USBD_LL_Transmit>
    return USBD_OK;
 8007ffa:	2000      	movs	r0, #0
}
 8007ffc:	bdf8      	pop	{r3, r4, r5, r6, r7, pc}
      hcdc->TxState = 0U;
 8007ffe:	2300      	movs	r3, #0
 8008000:	f8c6 3214 	str.w	r3, [r6, #532]	@ 0x214
 8008004:	e7f9      	b.n	8007ffa <USBD_CDC_DataIn+0x30>
    return USBD_FAIL;
 8008006:	2002      	movs	r0, #2
 8008008:	e7f8      	b.n	8007ffc <USBD_CDC_DataIn+0x32>

0800800a <USBD_CDC_Setup>:
  uint8_t ifalt = 0U;
 800800a:	2300      	movs	r3, #0
{
 800800c:	b5f7      	push	{r0, r1, r2, r4, r5, r6, r7, lr}
  switch (req->bmRequest & USB_REQ_TYPE_MASK)
 800800e:	780f      	ldrb	r7, [r1, #0]
  uint8_t ifalt = 0U;
 8008010:	f88d 3005 	strb.w	r3, [sp, #5]
  uint16_t status_info = 0U;
 8008014:	f8ad 3006 	strh.w	r3, [sp, #6]
  switch (req->bmRequest & USB_REQ_TYPE_MASK)
 8008018:	f017 0360 	ands.w	r3, r7, #96	@ 0x60
{
 800801c:	4604      	mov	r4, r0
 800801e:	460d      	mov	r5, r1
  USBD_CDC_HandleTypeDef   *hcdc = (USBD_CDC_HandleTypeDef *) pdev->pClassData;
 8008020:	f8d0 62b8 	ldr.w	r6, [r0, #696]	@ 0x2b8
  switch (req->bmRequest & USB_REQ_TYPE_MASK)
 8008024:	d022      	beq.n	800806c <USBD_CDC_Setup+0x62>
 8008026:	2b20      	cmp	r3, #32
 8008028:	d13a      	bne.n	80080a0 <USBD_CDC_Setup+0x96>
      if (req->wLength)
 800802a:	88ca      	ldrh	r2, [r1, #6]
          ((USBD_CDC_ItfTypeDef *)pdev->pUserData)->Control(req->bRequest,
 800802c:	784b      	ldrb	r3, [r1, #1]
      if (req->wLength)
 800802e:	b1ba      	cbz	r2, 8008060 <USBD_CDC_Setup+0x56>
        if (req->bmRequest & 0x80U)
 8008030:	0639      	lsls	r1, r7, #24
 8008032:	d50b      	bpl.n	800804c <USBD_CDC_Setup+0x42>
          ((USBD_CDC_ItfTypeDef *)pdev->pUserData)->Control(req->bRequest,
 8008034:	f8d0 12bc 	ldr.w	r1, [r0, #700]	@ 0x2bc
 8008038:	4618      	mov	r0, r3
 800803a:	688f      	ldr	r7, [r1, #8]
 800803c:	4631      	mov	r1, r6
 800803e:	47b8      	blx	r7
          USBD_CtlSendData(pdev, (uint8_t *)(void *)hcdc->data, req->wLength);
 8008040:	4631      	mov	r1, r6
 8008042:	4620      	mov	r0, r4
 8008044:	88ea      	ldrh	r2, [r5, #6]
            USBD_CtlSendData(pdev, &ifalt, 1U);
 8008046:	f000 fc4d 	bl	80088e4 <USBD_CtlSendData>
 800804a:	e006      	b.n	800805a <USBD_CDC_Setup+0x50>
          USBD_CtlPrepareRx(pdev, (uint8_t *)(void *)hcdc->data, req->wLength);
 800804c:	4631      	mov	r1, r6
          hcdc->CmdOpCode = req->bRequest;
 800804e:	f886 3200 	strb.w	r3, [r6, #512]	@ 0x200
          hcdc->CmdLength = (uint8_t)req->wLength;
 8008052:	f886 2201 	strb.w	r2, [r6, #513]	@ 0x201
          USBD_CtlPrepareRx(pdev, (uint8_t *)(void *)hcdc->data, req->wLength);
 8008056:	f000 fc5a 	bl	800890e <USBD_CtlPrepareRx>
  uint8_t ret = USBD_OK;
 800805a:	2000      	movs	r0, #0
}
 800805c:	b003      	add	sp, #12
 800805e:	bdf0      	pop	{r4, r5, r6, r7, pc}
        ((USBD_CDC_ItfTypeDef *)pdev->pUserData)->Control(req->bRequest,
 8008060:	f8d0 02bc 	ldr.w	r0, [r0, #700]	@ 0x2bc
 8008064:	6884      	ldr	r4, [r0, #8]
 8008066:	4618      	mov	r0, r3
 8008068:	47a0      	blx	r4
 800806a:	e7f6      	b.n	800805a <USBD_CDC_Setup+0x50>
      switch (req->bRequest)
 800806c:	784b      	ldrb	r3, [r1, #1]
 800806e:	2b0a      	cmp	r3, #10
 8008070:	d00a      	beq.n	8008088 <USBD_CDC_Setup+0x7e>
 8008072:	2b0b      	cmp	r3, #11
 8008074:	d010      	beq.n	8008098 <USBD_CDC_Setup+0x8e>
 8008076:	b99b      	cbnz	r3, 80080a0 <USBD_CDC_Setup+0x96>
          if (pdev->dev_state == USBD_STATE_CONFIGURED)
 8008078:	f890 329c 	ldrb.w	r3, [r0, #668]	@ 0x29c
 800807c:	2b03      	cmp	r3, #3
 800807e:	d10f      	bne.n	80080a0 <USBD_CDC_Setup+0x96>
            USBD_CtlSendData(pdev, (uint8_t *)(void *)&status_info, 2U);
 8008080:	2202      	movs	r2, #2
 8008082:	f10d 0106 	add.w	r1, sp, #6
 8008086:	e7de      	b.n	8008046 <USBD_CDC_Setup+0x3c>
          if (pdev->dev_state == USBD_STATE_CONFIGURED)
 8008088:	f890 329c 	ldrb.w	r3, [r0, #668]	@ 0x29c
 800808c:	2b03      	cmp	r3, #3
 800808e:	d107      	bne.n	80080a0 <USBD_CDC_Setup+0x96>
            USBD_CtlSendData(pdev, &ifalt, 1U);
 8008090:	2201      	movs	r2, #1
 8008092:	f10d 0105 	add.w	r1, sp, #5
 8008096:	e7d6      	b.n	8008046 <USBD_CDC_Setup+0x3c>
          if (pdev->dev_state != USBD_STATE_CONFIGURED)
 8008098:	f890 329c 	ldrb.w	r3, [r0, #668]	@ 0x29c
 800809c:	2b03      	cmp	r3, #3
 800809e:	d0dc      	beq.n	800805a <USBD_CDC_Setup+0x50>
          USBD_CtlError(pdev, req);
 80080a0:	4620      	mov	r0, r4
 80080a2:	4629      	mov	r1, r5
 80080a4:	f000 fbf7 	bl	8008896 <USBD_CtlError>
            ret = USBD_FAIL;
 80080a8:	2002      	movs	r0, #2
 80080aa:	e7d7      	b.n	800805c <USBD_CDC_Setup+0x52>

080080ac <USBD_CDC_DeInit>:
{
 80080ac:	b538      	push	{r3, r4, r5, lr}
 80080ae:	4604      	mov	r4, r0
  pdev->ep_in[CDC_IN_EP & 0xFU].is_used = 0U;
 80080b0:	2500      	movs	r5, #0
  USBD_LL_CloseEP(pdev, CDC_IN_EP);
 80080b2:	2181      	movs	r1, #129	@ 0x81
 80080b4:	f000 fe1b 	bl	8008cee <USBD_LL_CloseEP>
  USBD_LL_CloseEP(pdev, CDC_OUT_EP);
 80080b8:	2101      	movs	r1, #1
 80080ba:	4620      	mov	r0, r4
  pdev->ep_in[CDC_IN_EP & 0xFU].is_used = 0U;
 80080bc:	62e5      	str	r5, [r4, #44]	@ 0x2c
  USBD_LL_CloseEP(pdev, CDC_OUT_EP);
 80080be:	f000 fe16 	bl	8008cee <USBD_LL_CloseEP>
  USBD_LL_CloseEP(pdev, CDC_CMD_EP);
 80080c2:	2182      	movs	r1, #130	@ 0x82
 80080c4:	4620      	mov	r0, r4
  pdev->ep_out[CDC_OUT_EP & 0xFU].is_used = 0U;
 80080c6:	f8c4 516c 	str.w	r5, [r4, #364]	@ 0x16c
  USBD_LL_CloseEP(pdev, CDC_CMD_EP);
 80080ca:	f000 fe10 	bl	8008cee <USBD_LL_CloseEP>
  if (pdev->pClassData != NULL)
 80080ce:	f8d4 32b8 	ldr.w	r3, [r4, #696]	@ 0x2b8
  pdev->ep_in[CDC_CMD_EP & 0xFU].is_used = 0U;
 80080d2:	6425      	str	r5, [r4, #64]	@ 0x40
  if (pdev->pClassData != NULL)
 80080d4:	b14b      	cbz	r3, 80080ea <USBD_CDC_DeInit+0x3e>
    ((USBD_CDC_ItfTypeDef *)pdev->pUserData)->DeInit();
 80080d6:	f8d4 32bc 	ldr.w	r3, [r4, #700]	@ 0x2bc
 80080da:	685b      	ldr	r3, [r3, #4]
 80080dc:	4798      	blx	r3
    USBD_free(pdev->pClassData);
 80080de:	f8d4 02b8 	ldr.w	r0, [r4, #696]	@ 0x2b8
 80080e2:	f000 fe53 	bl	8008d8c <USBD_static_free>
    pdev->pClassData = NULL;
 80080e6:	f8c4 52b8 	str.w	r5, [r4, #696]	@ 0x2b8
}
 80080ea:	2000      	movs	r0, #0
 80080ec:	bd38      	pop	{r3, r4, r5, pc}

080080ee <USBD_CDC_Init>:
{
 80080ee:	b570      	push	{r4, r5, r6, lr}
  if (pdev->dev_speed == USBD_SPEED_HIGH)
 80080f0:	7c03      	ldrb	r3, [r0, #16]
{
 80080f2:	4604      	mov	r4, r0
  if (pdev->dev_speed == USBD_SPEED_HIGH)
 80080f4:	bba3      	cbnz	r3, 8008160 <USBD_CDC_Init+0x72>
    USBD_LL_OpenEP(pdev, CDC_IN_EP, USBD_EP_TYPE_BULK,
 80080f6:	f44f 7300 	mov.w	r3, #512	@ 0x200
 80080fa:	2181      	movs	r1, #129	@ 0x81
 80080fc:	2202      	movs	r2, #2
 80080fe:	f000 fdea 	bl	8008cd6 <USBD_LL_OpenEP>
    pdev->ep_in[CDC_IN_EP & 0xFU].is_used = 1U;
 8008102:	2101      	movs	r1, #1
    USBD_LL_OpenEP(pdev, CDC_OUT_EP, USBD_EP_TYPE_BULK,
 8008104:	f44f 7300 	mov.w	r3, #512	@ 0x200
    pdev->ep_in[CDC_IN_EP & 0xFU].is_used = 1U;
 8008108:	62e1      	str	r1, [r4, #44]	@ 0x2c
    pdev->ep_out[CDC_OUT_EP & 0xFU].is_used = 1U;
 800810a:	2501      	movs	r5, #1
    USBD_LL_OpenEP(pdev, CDC_OUT_EP, USBD_EP_TYPE_BULK,
 800810c:	2202      	movs	r2, #2
 800810e:	4620      	mov	r0, r4
 8008110:	f000 fde1 	bl	8008cd6 <USBD_LL_OpenEP>
  USBD_LL_OpenEP(pdev, CDC_CMD_EP, USBD_EP_TYPE_INTR, CDC_CMD_PACKET_SIZE);
 8008114:	2308      	movs	r3, #8
 8008116:	2203      	movs	r2, #3
 8008118:	2182      	movs	r1, #130	@ 0x82
 800811a:	4620      	mov	r0, r4
    pdev->ep_out[CDC_OUT_EP & 0xFU].is_used = 1U;
 800811c:	f8c4 516c 	str.w	r5, [r4, #364]	@ 0x16c
  USBD_LL_OpenEP(pdev, CDC_CMD_EP, USBD_EP_TYPE_INTR, CDC_CMD_PACKET_SIZE);
 8008120:	f000 fdd9 	bl	8008cd6 <USBD_LL_OpenEP>
  pdev->pClassData = USBD_malloc(sizeof(USBD_CDC_HandleTypeDef));
 8008124:	f44f 7007 	mov.w	r0, #540	@ 0x21c
  pdev->ep_in[CDC_CMD_EP & 0xFU].is_used = 1U;
 8008128:	6425      	str	r5, [r4, #64]	@ 0x40
  pdev->pClassData = USBD_malloc(sizeof(USBD_CDC_HandleTypeDef));
 800812a:	f000 fe2b 	bl	8008d84 <USBD_static_malloc>
 800812e:	4606      	mov	r6, r0
 8008130:	f8c4 02b8 	str.w	r0, [r4, #696]	@ 0x2b8
  if (pdev->pClassData == NULL)
 8008134:	b1f8      	cbz	r0, 8008176 <USBD_CDC_Init+0x88>
    ((USBD_CDC_ItfTypeDef *)pdev->pUserData)->Init();
 8008136:	f8d4 32bc 	ldr.w	r3, [r4, #700]	@ 0x2bc
 800813a:	681b      	ldr	r3, [r3, #0]
 800813c:	4798      	blx	r3
    hcdc->TxState = 0U;
 800813e:	2300      	movs	r3, #0
 8008140:	f8c6 3214 	str.w	r3, [r6, #532]	@ 0x214
    hcdc->RxState = 0U;
 8008144:	f8c6 3218 	str.w	r3, [r6, #536]	@ 0x218
    if (pdev->dev_speed == USBD_SPEED_HIGH)
 8008148:	7c23      	ldrb	r3, [r4, #16]
      USBD_LL_PrepareReceive(pdev, CDC_OUT_EP, hcdc->RxBuffer,
 800814a:	f8d6 2204 	ldr.w	r2, [r6, #516]	@ 0x204
    if (pdev->dev_speed == USBD_SPEED_HIGH)
 800814e:	b983      	cbnz	r3, 8008172 <USBD_CDC_Init+0x84>
      USBD_LL_PrepareReceive(pdev, CDC_OUT_EP, hcdc->RxBuffer,
 8008150:	f44f 7300 	mov.w	r3, #512	@ 0x200
      USBD_LL_PrepareReceive(pdev, CDC_OUT_EP, hcdc->RxBuffer,
 8008154:	4629      	mov	r1, r5
 8008156:	4620      	mov	r0, r4
 8008158:	f000 fe07 	bl	8008d6a <USBD_LL_PrepareReceive>
  uint8_t ret = 0U;
 800815c:	2000      	movs	r0, #0
}
 800815e:	bd70      	pop	{r4, r5, r6, pc}
    USBD_LL_OpenEP(pdev, CDC_IN_EP, USBD_EP_TYPE_BULK,
 8008160:	2340      	movs	r3, #64	@ 0x40
 8008162:	2181      	movs	r1, #129	@ 0x81
 8008164:	2202      	movs	r2, #2
 8008166:	f000 fdb6 	bl	8008cd6 <USBD_LL_OpenEP>
    pdev->ep_in[CDC_IN_EP & 0xFU].is_used = 1U;
 800816a:	2101      	movs	r1, #1
    USBD_LL_OpenEP(pdev, CDC_OUT_EP, USBD_EP_TYPE_BULK,
 800816c:	2340      	movs	r3, #64	@ 0x40
    pdev->ep_in[CDC_IN_EP & 0xFU].is_used = 1U;
 800816e:	62e1      	str	r1, [r4, #44]	@ 0x2c
    USBD_LL_OpenEP(pdev, CDC_OUT_EP, USBD_EP_TYPE_BULK,
 8008170:	e7cb      	b.n	800810a <USBD_CDC_Init+0x1c>
      USBD_LL_PrepareReceive(pdev, CDC_OUT_EP, hcdc->RxBuffer,
 8008172:	2340      	movs	r3, #64	@ 0x40
 8008174:	e7ee      	b.n	8008154 <USBD_CDC_Init+0x66>
    ret = 1U;
 8008176:	4628      	mov	r0, r5
 8008178:	e7f1      	b.n	800815e <USBD_CDC_Init+0x70>

0800817a <USBD_CDC_RegisterInterface>:
uint8_t  USBD_CDC_RegisterInterface(USBD_HandleTypeDef   *pdev,
                                    USBD_CDC_ItfTypeDef *fops)
{
  uint8_t  ret = USBD_FAIL;

  if (fops != NULL)
 800817a:	b119      	cbz	r1, 8008184 <USBD_CDC_RegisterInterface+0xa>
  {
    pdev->pUserData = fops;
 800817c:	f8c0 12bc 	str.w	r1, [r0, #700]	@ 0x2bc
    ret = USBD_OK;
 8008180:	2000      	movs	r0, #0
 8008182:	4770      	bx	lr
  uint8_t  ret = USBD_FAIL;
 8008184:	2002      	movs	r0, #2
  }

  return ret;
}
 8008186:	4770      	bx	lr

08008188 <USBD_CDC_SetTxBuffer>:
  */
uint8_t  USBD_CDC_SetTxBuffer(USBD_HandleTypeDef   *pdev,
                              uint8_t  *pbuff,
                              uint16_t length)
{
  USBD_CDC_HandleTypeDef   *hcdc = (USBD_CDC_HandleTypeDef *) pdev->pClassData;
 8008188:	f8d0 32b8 	ldr.w	r3, [r0, #696]	@ 0x2b8

  hcdc->TxBuffer = pbuff;
  hcdc->TxLength = length;

  return USBD_OK;
}
 800818c:	2000      	movs	r0, #0
  hcdc->TxBuffer = pbuff;
 800818e:	f8c3 1208 	str.w	r1, [r3, #520]	@ 0x208
  hcdc->TxLength = length;
 8008192:	f8c3 2210 	str.w	r2, [r3, #528]	@ 0x210
}
 8008196:	4770      	bx	lr

08008198 <USBD_CDC_SetRxBuffer>:
uint8_t  USBD_CDC_SetRxBuffer(USBD_HandleTypeDef   *pdev,
                              uint8_t  *pbuff)
{
  USBD_CDC_HandleTypeDef   *hcdc = (USBD_CDC_HandleTypeDef *) pdev->pClassData;

  hcdc->RxBuffer = pbuff;
 8008198:	f8d0 32b8 	ldr.w	r3, [r0, #696]	@ 0x2b8

  return USBD_OK;
}
 800819c:	2000      	movs	r0, #0
  hcdc->RxBuffer = pbuff;
 800819e:	f8c3 1204 	str.w	r1, [r3, #516]	@ 0x204
}
 80081a2:	4770      	bx	lr

080081a4 <USBD_CDC_TransmitPacket>:
  * @param  pdev: device instance
  * @retval status
  */
uint8_t  USBD_CDC_TransmitPacket(USBD_HandleTypeDef *pdev)
{
  USBD_CDC_HandleTypeDef   *hcdc = (USBD_CDC_HandleTypeDef *) pdev->pClassData;
 80081a4:	f8d0 22b8 	ldr.w	r2, [r0, #696]	@ 0x2b8
{
 80081a8:	b510      	push	{r4, lr}

  if (pdev->pClassData != NULL)
 80081aa:	b182      	cbz	r2, 80081ce <USBD_CDC_TransmitPacket+0x2a>
  {
    if (hcdc->TxState == 0U)
 80081ac:	f8d2 4214 	ldr.w	r4, [r2, #532]	@ 0x214
 80081b0:	2301      	movs	r3, #1
 80081b2:	b974      	cbnz	r4, 80081d2 <USBD_CDC_TransmitPacket+0x2e>
    {
      /* Tx Transfer in progress */
      hcdc->TxState = 1U;
 80081b4:	f8c2 3214 	str.w	r3, [r2, #532]	@ 0x214

      /* Update the packet total length */
      pdev->ep_in[CDC_IN_EP & 0xFU].total_length = hcdc->TxLength;
 80081b8:	f8d2 3210 	ldr.w	r3, [r2, #528]	@ 0x210

      /* Transmit next packet */
      USBD_LL_Transmit(pdev, CDC_IN_EP, hcdc->TxBuffer,
 80081bc:	2181      	movs	r1, #129	@ 0x81
      pdev->ep_in[CDC_IN_EP & 0xFU].total_length = hcdc->TxLength;
 80081be:	6303      	str	r3, [r0, #48]	@ 0x30
      USBD_LL_Transmit(pdev, CDC_IN_EP, hcdc->TxBuffer,
 80081c0:	f8d2 2208 	ldr.w	r2, [r2, #520]	@ 0x208
 80081c4:	b29b      	uxth	r3, r3
 80081c6:	f000 fdc7 	bl	8008d58 <USBD_LL_Transmit>
                       (uint16_t)hcdc->TxLength);

      return USBD_OK;
 80081ca:	4620      	mov	r0, r4
  }
  else
  {
    return USBD_FAIL;
  }
}
 80081cc:	bd10      	pop	{r4, pc}
    return USBD_FAIL;
 80081ce:	2002      	movs	r0, #2
 80081d0:	e7fc      	b.n	80081cc <USBD_CDC_TransmitPacket+0x28>
      return USBD_BUSY;
 80081d2:	4618      	mov	r0, r3
 80081d4:	e7fa      	b.n	80081cc <USBD_CDC_TransmitPacket+0x28>

080081d6 <USBD_CDC_ReceivePacket>:
  * @param  pdev: device instance
  * @retval status
  */
uint8_t  USBD_CDC_ReceivePacket(USBD_HandleTypeDef *pdev)
{
  USBD_CDC_HandleTypeDef   *hcdc = (USBD_CDC_HandleTypeDef *) pdev->pClassData;
 80081d6:	f8d0 22b8 	ldr.w	r2, [r0, #696]	@ 0x2b8
{
 80081da:	b508      	push	{r3, lr}

  /* Suspend or Resume USB Out process */
  if (pdev->pClassData != NULL)
 80081dc:	b162      	cbz	r2, 80081f8 <USBD_CDC_ReceivePacket+0x22>
  {
    if (pdev->dev_speed == USBD_SPEED_HIGH)
 80081de:	7c03      	ldrb	r3, [r0, #16]
    {
      /* Prepare Out endpoint to receive next packet */
      USBD_LL_PrepareReceive(pdev,
 80081e0:	f8d2 2204 	ldr.w	r2, [r2, #516]	@ 0x204
    if (pdev->dev_speed == USBD_SPEED_HIGH)
 80081e4:	b933      	cbnz	r3, 80081f4 <USBD_CDC_ReceivePacket+0x1e>
      USBD_LL_PrepareReceive(pdev,
 80081e6:	f44f 7300 	mov.w	r3, #512	@ 0x200
                             CDC_DATA_HS_OUT_PACKET_SIZE);
    }
    else
    {
      /* Prepare Out endpoint to receive next packet */
      USBD_LL_PrepareReceive(pdev,
 80081ea:	2101      	movs	r1, #1
 80081ec:	f000 fdbd 	bl	8008d6a <USBD_LL_PrepareReceive>
                             CDC_OUT_EP,
                             hcdc->RxBuffer,
                             CDC_DATA_FS_OUT_PACKET_SIZE);
    }
    return USBD_OK;
 80081f0:	2000      	movs	r0, #0
  }
  else
  {
    return USBD_FAIL;
  }
}
 80081f2:	bd08      	pop	{r3, pc}
      USBD_LL_PrepareReceive(pdev,
 80081f4:	2340      	movs	r3, #64	@ 0x40
 80081f6:	e7f8      	b.n	80081ea <USBD_CDC_ReceivePacket+0x14>
    return USBD_FAIL;
 80081f8:	2002      	movs	r0, #2
 80081fa:	e7fa      	b.n	80081f2 <USBD_CDC_ReceivePacket+0x1c>

080081fc <USBD_Init>:
* @param  id: Low level core index
* @retval None
*/
USBD_StatusTypeDef USBD_Init(USBD_HandleTypeDef *pdev,
                             USBD_DescriptorsTypeDef *pdesc, uint8_t id)
{
 80081fc:	b508      	push	{r3, lr}
  /* Check whether the USB Host handle is valid */
  if (pdev == NULL)
 80081fe:	b180      	cbz	r0, 8008222 <USBD_Init+0x26>
#endif
    return USBD_FAIL;
  }

  /* Unlink previous class*/
  if (pdev->pClass != NULL)
 8008200:	f8d0 32b4 	ldr.w	r3, [r0, #692]	@ 0x2b4
 8008204:	b113      	cbz	r3, 800820c <USBD_Init+0x10>
  {
    pdev->pClass = NULL;
 8008206:	2300      	movs	r3, #0
 8008208:	f8c0 32b4 	str.w	r3, [r0, #692]	@ 0x2b4
  }

  /* Assign USBD Descriptors */
  if (pdesc != NULL)
 800820c:	b109      	cbz	r1, 8008212 <USBD_Init+0x16>
  {
    pdev->pDesc = pdesc;
 800820e:	f8c0 12b0 	str.w	r1, [r0, #688]	@ 0x2b0
  }

  /* Set Device initial State */
  pdev->dev_state = USBD_STATE_DEFAULT;
 8008212:	2301      	movs	r3, #1
  pdev->id = id;
 8008214:	7002      	strb	r2, [r0, #0]
  pdev->dev_state = USBD_STATE_DEFAULT;
 8008216:	f880 329c 	strb.w	r3, [r0, #668]	@ 0x29c
  /* Initialize low level driver */
  USBD_LL_Init(pdev);
 800821a:	f000 fd13 	bl	8008c44 <USBD_LL_Init>

  return USBD_OK;
 800821e:	2000      	movs	r0, #0
}
 8008220:	bd08      	pop	{r3, pc}
    return USBD_FAIL;
 8008222:	2002      	movs	r0, #2
 8008224:	e7fc      	b.n	8008220 <USBD_Init+0x24>

08008226 <USBD_RegisterClass>:
  * @retval USBD Status
  */
USBD_StatusTypeDef  USBD_RegisterClass(USBD_HandleTypeDef *pdev, USBD_ClassTypeDef *pclass)
{
  USBD_StatusTypeDef status = USBD_OK;
  if (pclass != NULL)
 8008226:	b119      	cbz	r1, 8008230 <USBD_RegisterClass+0xa>
  {
    /* link the class to the USB Device handle */
    pdev->pClass = pclass;
 8008228:	f8c0 12b4 	str.w	r1, [r0, #692]	@ 0x2b4
    status = USBD_OK;
 800822c:	2000      	movs	r0, #0
 800822e:	4770      	bx	lr
  else
  {
#if (USBD_DEBUG_LEVEL > 1U)
    USBD_ErrLog("Invalid Class handle");
#endif
    status = USBD_FAIL;
 8008230:	2002      	movs	r0, #2
  }

  return status;
}
 8008232:	4770      	bx	lr

08008234 <USBD_Start>:
  *         Start the USB Device Core.
  * @param  pdev: Device Handle
  * @retval USBD Status
  */
USBD_StatusTypeDef  USBD_Start(USBD_HandleTypeDef *pdev)
{
 8008234:	b508      	push	{r3, lr}
  /* Start the low level driver  */
  USBD_LL_Start(pdev);
 8008236:	f000 fd45 	bl	8008cc4 <USBD_LL_Start>

  return USBD_OK;
}
 800823a:	2000      	movs	r0, #0
 800823c:	bd08      	pop	{r3, pc}

0800823e <USBD_SetClassConfig>:
* @param  cfgidx: configuration index
* @retval status
*/

USBD_StatusTypeDef USBD_SetClassConfig(USBD_HandleTypeDef  *pdev, uint8_t cfgidx)
{
 800823e:	b508      	push	{r3, lr}
  USBD_StatusTypeDef ret = USBD_FAIL;

  if (pdev->pClass != NULL)
 8008240:	f8d0 32b4 	ldr.w	r3, [r0, #692]	@ 0x2b4
 8008244:	b133      	cbz	r3, 8008254 <USBD_SetClassConfig+0x16>
  {
    /* Set configuration  and Start the Class*/
    if (pdev->pClass->Init(pdev, cfgidx) == 0U)
 8008246:	681b      	ldr	r3, [r3, #0]
 8008248:	4798      	blx	r3
 800824a:	3800      	subs	r0, #0
 800824c:	bf18      	it	ne
 800824e:	2001      	movne	r0, #1
 8008250:	0040      	lsls	r0, r0, #1
      ret = USBD_OK;
    }
  }

  return ret;
}
 8008252:	bd08      	pop	{r3, pc}
  USBD_StatusTypeDef ret = USBD_FAIL;
 8008254:	2002      	movs	r0, #2
 8008256:	e7fc      	b.n	8008252 <USBD_SetClassConfig+0x14>

08008258 <USBD_ClrClassConfig>:
* @param  pdev: device instance
* @param  cfgidx: configuration index
* @retval status: USBD_StatusTypeDef
*/
USBD_StatusTypeDef USBD_ClrClassConfig(USBD_HandleTypeDef  *pdev, uint8_t cfgidx)
{
 8008258:	b508      	push	{r3, lr}
  /* Clear configuration  and De-initialize the Class process*/
  pdev->pClass->DeInit(pdev, cfgidx);
 800825a:	f8d0 32b4 	ldr.w	r3, [r0, #692]	@ 0x2b4
 800825e:	685b      	ldr	r3, [r3, #4]
 8008260:	4798      	blx	r3

  return USBD_OK;
}
 8008262:	2000      	movs	r0, #0
 8008264:	bd08      	pop	{r3, pc}

08008266 <USBD_LL_SetupStage>:
*         Handle the setup stage
* @param  pdev: device instance
* @retval status
*/
USBD_StatusTypeDef USBD_LL_SetupStage(USBD_HandleTypeDef *pdev, uint8_t *psetup)
{
 8008266:	b538      	push	{r3, r4, r5, lr}
  USBD_ParseSetupRequest(&pdev->request, psetup);
 8008268:	f500 752a 	add.w	r5, r0, #680	@ 0x2a8
{
 800826c:	4604      	mov	r4, r0
  USBD_ParseSetupRequest(&pdev->request, psetup);
 800826e:	4628      	mov	r0, r5
 8008270:	f000 fb06 	bl	8008880 <USBD_ParseSetupRequest>

  pdev->ep0_state = USBD_EP0_SETUP;
 8008274:	2301      	movs	r3, #1

  pdev->ep0_data_len = pdev->request.wLength;

  switch (pdev->request.bmRequest & 0x1FU)
 8008276:	f894 12a8 	ldrb.w	r1, [r4, #680]	@ 0x2a8
  pdev->ep0_state = USBD_EP0_SETUP;
 800827a:	f8c4 3294 	str.w	r3, [r4, #660]	@ 0x294
  pdev->ep0_data_len = pdev->request.wLength;
 800827e:	f8b4 32ae 	ldrh.w	r3, [r4, #686]	@ 0x2ae
 8008282:	f8c4 3298 	str.w	r3, [r4, #664]	@ 0x298
  switch (pdev->request.bmRequest & 0x1FU)
 8008286:	f001 031f 	and.w	r3, r1, #31
 800828a:	2b01      	cmp	r3, #1
 800828c:	d008      	beq.n	80082a0 <USBD_LL_SetupStage+0x3a>
 800828e:	2b02      	cmp	r3, #2
 8008290:	d00b      	beq.n	80082aa <USBD_LL_SetupStage+0x44>
 8008292:	b97b      	cbnz	r3, 80082b4 <USBD_LL_SetupStage+0x4e>
  {
    case USB_REQ_RECIPIENT_DEVICE:
      USBD_StdDevReq(pdev, &pdev->request);
 8008294:	4629      	mov	r1, r5
 8008296:	4620      	mov	r0, r4
 8008298:	f000 f8fa 	bl	8008490 <USBD_StdDevReq>
      USBD_LL_StallEP(pdev, (pdev->request.bmRequest & 0x80U));
      break;
  }

  return USBD_OK;
}
 800829c:	2000      	movs	r0, #0
 800829e:	bd38      	pop	{r3, r4, r5, pc}
      USBD_StdItfReq(pdev, &pdev->request);
 80082a0:	4629      	mov	r1, r5
 80082a2:	4620      	mov	r0, r4
 80082a4:	f000 fa3c 	bl	8008720 <USBD_StdItfReq>
      break;
 80082a8:	e7f8      	b.n	800829c <USBD_LL_SetupStage+0x36>
      USBD_StdEPReq(pdev, &pdev->request);
 80082aa:	4629      	mov	r1, r5
 80082ac:	4620      	mov	r0, r4
 80082ae:	f000 fa5b 	bl	8008768 <USBD_StdEPReq>
      break;
 80082b2:	e7f3      	b.n	800829c <USBD_LL_SetupStage+0x36>
      USBD_LL_StallEP(pdev, (pdev->request.bmRequest & 0x80U));
 80082b4:	4620      	mov	r0, r4
 80082b6:	f001 0180 	and.w	r1, r1, #128	@ 0x80
 80082ba:	f000 fd21 	bl	8008d00 <USBD_LL_StallEP>
      break;
 80082be:	e7ed      	b.n	800829c <USBD_LL_SetupStage+0x36>

080082c0 <USBD_LL_DataOutStage>:
* @param  epnum: endpoint index
* @retval status
*/
USBD_StatusTypeDef USBD_LL_DataOutStage(USBD_HandleTypeDef *pdev,
                                        uint8_t epnum, uint8_t *pdata)
{
 80082c0:	b570      	push	{r4, r5, r6, lr}
 80082c2:	4604      	mov	r4, r0
 80082c4:	4616      	mov	r6, r2
  USBD_EndpointTypeDef *pep;

  if (epnum == 0U)
 80082c6:	bb39      	cbnz	r1, 8008318 <USBD_LL_DataOutStage+0x58>
  {
    pep = &pdev->ep_out[0];

    if (pdev->ep0_state == USBD_EP0_DATA_OUT)
 80082c8:	f8d0 2294 	ldr.w	r2, [r0, #660]	@ 0x294
 80082cc:	2a03      	cmp	r2, #3
 80082ce:	d11c      	bne.n	800830a <USBD_LL_DataOutStage+0x4a>
    {
      if (pep->rem_length > pep->maxpacket)
 80082d0:	e9d0 5358 	ldrd	r5, r3, [r0, #352]	@ 0x160
 80082d4:	429d      	cmp	r5, r3
 80082d6:	d90b      	bls.n	80082f0 <USBD_LL_DataOutStage+0x30>
      {
        pep->rem_length -= pep->maxpacket;
 80082d8:	1aed      	subs	r5, r5, r3

        USBD_CtlContinueRx(pdev, pdata,
 80082da:	42ab      	cmp	r3, r5
 80082dc:	bf28      	it	cs
 80082de:	462b      	movcs	r3, r5
 80082e0:	4631      	mov	r1, r6
        pep->rem_length -= pep->maxpacket;
 80082e2:	f8c0 5160 	str.w	r5, [r0, #352]	@ 0x160
        USBD_CtlContinueRx(pdev, pdata,
 80082e6:	b29a      	uxth	r2, r3
 80082e8:	f000 fb1e 	bl	8008928 <USBD_CtlContinueRx>
  {
    /* should never be in this condition */
    return USBD_FAIL;
  }

  return USBD_OK;
 80082ec:	2000      	movs	r0, #0
}
 80082ee:	bd70      	pop	{r4, r5, r6, pc}
        if ((pdev->pClass->EP0_RxReady != NULL) &&
 80082f0:	f8d0 32b4 	ldr.w	r3, [r0, #692]	@ 0x2b4
 80082f4:	691b      	ldr	r3, [r3, #16]
 80082f6:	b123      	cbz	r3, 8008302 <USBD_LL_DataOutStage+0x42>
 80082f8:	f890 229c 	ldrb.w	r2, [r0, #668]	@ 0x29c
 80082fc:	2a03      	cmp	r2, #3
 80082fe:	d100      	bne.n	8008302 <USBD_LL_DataOutStage+0x42>
          pdev->pClass->EP0_RxReady(pdev);
 8008300:	4798      	blx	r3
        USBD_CtlSendStatus(pdev);
 8008302:	4620      	mov	r0, r4
 8008304:	f000 fb18 	bl	8008938 <USBD_CtlSendStatus>
 8008308:	e7f0      	b.n	80082ec <USBD_LL_DataOutStage+0x2c>
      if (pdev->ep0_state == USBD_EP0_STATUS_OUT)
 800830a:	2a05      	cmp	r2, #5
 800830c:	d1ee      	bne.n	80082ec <USBD_LL_DataOutStage+0x2c>
        pdev->ep0_state = USBD_EP0_IDLE;
 800830e:	f8c4 1294 	str.w	r1, [r4, #660]	@ 0x294
        USBD_LL_StallEP(pdev, 0U);
 8008312:	f000 fcf5 	bl	8008d00 <USBD_LL_StallEP>
 8008316:	e7e9      	b.n	80082ec <USBD_LL_DataOutStage+0x2c>
  else if ((pdev->pClass->DataOut != NULL) &&
 8008318:	f8d0 32b4 	ldr.w	r3, [r0, #692]	@ 0x2b4
 800831c:	699b      	ldr	r3, [r3, #24]
 800831e:	b12b      	cbz	r3, 800832c <USBD_LL_DataOutStage+0x6c>
 8008320:	f890 229c 	ldrb.w	r2, [r0, #668]	@ 0x29c
 8008324:	2a03      	cmp	r2, #3
 8008326:	d101      	bne.n	800832c <USBD_LL_DataOutStage+0x6c>
    pdev->pClass->DataOut(pdev, epnum);
 8008328:	4798      	blx	r3
 800832a:	e7df      	b.n	80082ec <USBD_LL_DataOutStage+0x2c>
    return USBD_FAIL;
 800832c:	2002      	movs	r0, #2
 800832e:	e7de      	b.n	80082ee <USBD_LL_DataOutStage+0x2e>

08008330 <USBD_LL_DataInStage>:
* @param  epnum: endpoint index
* @retval status
*/
USBD_StatusTypeDef USBD_LL_DataInStage(USBD_HandleTypeDef *pdev,
                                       uint8_t epnum, uint8_t *pdata)
{
 8008330:	b5f8      	push	{r3, r4, r5, r6, r7, lr}
 8008332:	4604      	mov	r4, r0
 8008334:	4613      	mov	r3, r2
  USBD_EndpointTypeDef *pep;

  if (epnum == 0U)
 8008336:	460f      	mov	r7, r1
 8008338:	2900      	cmp	r1, #0
 800833a:	d149      	bne.n	80083d0 <USBD_LL_DataInStage+0xa0>
  {
    pep = &pdev->ep_in[0];

    if (pdev->ep0_state == USBD_EP0_DATA_IN)
 800833c:	f8d0 2294 	ldr.w	r2, [r0, #660]	@ 0x294
 8008340:	2a02      	cmp	r2, #2
 8008342:	d13a      	bne.n	80083ba <USBD_LL_DataInStage+0x8a>
    {
      if (pep->rem_length > pep->maxpacket)
 8008344:	e9d0 5608 	ldrd	r5, r6, [r0, #32]
 8008348:	42b5      	cmp	r5, r6
 800834a:	d911      	bls.n	8008370 <USBD_LL_DataInStage+0x40>
      {
        pep->rem_length -= pep->maxpacket;
 800834c:	1bad      	subs	r5, r5, r6

        USBD_CtlContinueSendData(pdev, pdata, (uint16_t)pep->rem_length);
 800834e:	4619      	mov	r1, r3
        pep->rem_length -= pep->maxpacket;
 8008350:	6205      	str	r5, [r0, #32]
        USBD_CtlContinueSendData(pdev, pdata, (uint16_t)pep->rem_length);
 8008352:	b2aa      	uxth	r2, r5
 8008354:	f000 fad3 	bl	80088fe <USBD_CtlContinueSendData>

        /* Prepare endpoint for premature end of transfer */
        USBD_LL_PrepareReceive(pdev, 0U, NULL, 0U);
 8008358:	463b      	mov	r3, r7
        {
          USBD_CtlContinueSendData(pdev, NULL, 0U);
          pdev->ep0_data_len = 0U;

          /* Prepare endpoint for premature end of transfer */
          USBD_LL_PrepareReceive(pdev, 0U, NULL, 0U);
 800835a:	461a      	mov	r2, r3
 800835c:	4619      	mov	r1, r3
 800835e:	4620      	mov	r0, r4
 8008360:	f000 fd03 	bl	8008d6a <USBD_LL_PrepareReceive>
      {
        USBD_LL_StallEP(pdev, 0x80U);
      }
    }

    if (pdev->dev_test_mode == 1U)
 8008364:	f894 32a0 	ldrb.w	r3, [r4, #672]	@ 0x2a0
 8008368:	2b01      	cmp	r3, #1
 800836a:	d02d      	beq.n	80083c8 <USBD_LL_DataInStage+0x98>
  {
    /* should never be in this condition */
    return USBD_FAIL;
  }

  return USBD_OK;
 800836c:	2000      	movs	r0, #0
}
 800836e:	bdf8      	pop	{r3, r4, r5, r6, r7, pc}
        if ((pep->total_length % pep->maxpacket == 0U) &&
 8008370:	69c3      	ldr	r3, [r0, #28]
 8008372:	fbb3 f5f6 	udiv	r5, r3, r6
 8008376:	fb06 3515 	mls	r5, r6, r5, r3
 800837a:	b965      	cbnz	r5, 8008396 <USBD_LL_DataInStage+0x66>
 800837c:	429e      	cmp	r6, r3
 800837e:	d80a      	bhi.n	8008396 <USBD_LL_DataInStage+0x66>
            (pep->total_length >= pep->maxpacket) &&
 8008380:	f8d0 2298 	ldr.w	r2, [r0, #664]	@ 0x298
 8008384:	4293      	cmp	r3, r2
 8008386:	d206      	bcs.n	8008396 <USBD_LL_DataInStage+0x66>
          USBD_CtlContinueSendData(pdev, NULL, 0U);
 8008388:	462a      	mov	r2, r5
 800838a:	f000 fab8 	bl	80088fe <USBD_CtlContinueSendData>
          USBD_LL_PrepareReceive(pdev, 0U, NULL, 0U);
 800838e:	462b      	mov	r3, r5
          pdev->ep0_data_len = 0U;
 8008390:	f8c4 5298 	str.w	r5, [r4, #664]	@ 0x298
          USBD_LL_PrepareReceive(pdev, 0U, NULL, 0U);
 8008394:	e7e1      	b.n	800835a <USBD_LL_DataInStage+0x2a>
          if ((pdev->pClass->EP0_TxSent != NULL) &&
 8008396:	f8d4 32b4 	ldr.w	r3, [r4, #692]	@ 0x2b4
 800839a:	68db      	ldr	r3, [r3, #12]
 800839c:	b12b      	cbz	r3, 80083aa <USBD_LL_DataInStage+0x7a>
 800839e:	f894 229c 	ldrb.w	r2, [r4, #668]	@ 0x29c
 80083a2:	2a03      	cmp	r2, #3
 80083a4:	d101      	bne.n	80083aa <USBD_LL_DataInStage+0x7a>
            pdev->pClass->EP0_TxSent(pdev);
 80083a6:	4620      	mov	r0, r4
 80083a8:	4798      	blx	r3
          USBD_LL_StallEP(pdev, 0x80U);
 80083aa:	2180      	movs	r1, #128	@ 0x80
 80083ac:	4620      	mov	r0, r4
 80083ae:	f000 fca7 	bl	8008d00 <USBD_LL_StallEP>
          USBD_CtlReceiveStatus(pdev);
 80083b2:	4620      	mov	r0, r4
 80083b4:	f000 facb 	bl	800894e <USBD_CtlReceiveStatus>
 80083b8:	e7d4      	b.n	8008364 <USBD_LL_DataInStage+0x34>
      if ((pdev->ep0_state == USBD_EP0_STATUS_IN) ||
 80083ba:	f032 0304 	bics.w	r3, r2, #4
 80083be:	d1d1      	bne.n	8008364 <USBD_LL_DataInStage+0x34>
        USBD_LL_StallEP(pdev, 0x80U);
 80083c0:	2180      	movs	r1, #128	@ 0x80
 80083c2:	f000 fc9d 	bl	8008d00 <USBD_LL_StallEP>
 80083c6:	e7cd      	b.n	8008364 <USBD_LL_DataInStage+0x34>
      pdev->dev_test_mode = 0U;
 80083c8:	2300      	movs	r3, #0
 80083ca:	f884 32a0 	strb.w	r3, [r4, #672]	@ 0x2a0
 80083ce:	e7cd      	b.n	800836c <USBD_LL_DataInStage+0x3c>
  else if ((pdev->pClass->DataIn != NULL) &&
 80083d0:	f8d0 32b4 	ldr.w	r3, [r0, #692]	@ 0x2b4
 80083d4:	695b      	ldr	r3, [r3, #20]
 80083d6:	b12b      	cbz	r3, 80083e4 <USBD_LL_DataInStage+0xb4>
 80083d8:	f890 229c 	ldrb.w	r2, [r0, #668]	@ 0x29c
 80083dc:	2a03      	cmp	r2, #3
 80083de:	d101      	bne.n	80083e4 <USBD_LL_DataInStage+0xb4>
    pdev->pClass->DataIn(pdev, epnum);
 80083e0:	4798      	blx	r3
 80083e2:	e7c3      	b.n	800836c <USBD_LL_DataInStage+0x3c>
    return USBD_FAIL;
 80083e4:	2002      	movs	r0, #2
 80083e6:	e7c2      	b.n	800836e <USBD_LL_DataInStage+0x3e>

080083e8 <USBD_LL_Reset>:
*/

USBD_StatusTypeDef USBD_LL_Reset(USBD_HandleTypeDef *pdev)
{
  /* Open EP0 OUT */
  USBD_LL_OpenEP(pdev, 0x00U, USBD_EP_TYPE_CTRL, USB_MAX_EP0_SIZE);
 80083e8:	2200      	movs	r2, #0
{
 80083ea:	b570      	push	{r4, r5, r6, lr}
 80083ec:	4604      	mov	r4, r0
  pdev->ep_out[0x00U & 0xFU].is_used = 1U;
 80083ee:	2501      	movs	r5, #1

  pdev->ep_out[0].maxpacket = USB_MAX_EP0_SIZE;
 80083f0:	2640      	movs	r6, #64	@ 0x40
  USBD_LL_OpenEP(pdev, 0x00U, USBD_EP_TYPE_CTRL, USB_MAX_EP0_SIZE);
 80083f2:	4611      	mov	r1, r2
 80083f4:	2340      	movs	r3, #64	@ 0x40
 80083f6:	f000 fc6e 	bl	8008cd6 <USBD_LL_OpenEP>

  /* Open EP0 IN */
  USBD_LL_OpenEP(pdev, 0x80U, USBD_EP_TYPE_CTRL, USB_MAX_EP0_SIZE);
 80083fa:	4633      	mov	r3, r6
 80083fc:	2180      	movs	r1, #128	@ 0x80
 80083fe:	2200      	movs	r2, #0
 8008400:	4620      	mov	r0, r4
  pdev->ep_out[0x00U & 0xFU].is_used = 1U;
 8008402:	f8c4 5158 	str.w	r5, [r4, #344]	@ 0x158
  pdev->ep_out[0].maxpacket = USB_MAX_EP0_SIZE;
 8008406:	f8c4 6164 	str.w	r6, [r4, #356]	@ 0x164
  USBD_LL_OpenEP(pdev, 0x80U, USBD_EP_TYPE_CTRL, USB_MAX_EP0_SIZE);
 800840a:	f000 fc64 	bl	8008cd6 <USBD_LL_OpenEP>

  pdev->ep_in[0].maxpacket = USB_MAX_EP0_SIZE;

  /* Upon Reset call user call back */
  pdev->dev_state = USBD_STATE_DEFAULT;
  pdev->ep0_state = USBD_EP0_IDLE;
 800840e:	2100      	movs	r1, #0
  pdev->dev_config = 0U;
  pdev->dev_remote_wakeup = 0U;

  if (pdev->pClassData)
 8008410:	f8d4 32b8 	ldr.w	r3, [r4, #696]	@ 0x2b8
  pdev->ep_in[0x80U & 0xFU].is_used = 1U;
 8008414:	61a5      	str	r5, [r4, #24]
  pdev->ep_in[0].maxpacket = USB_MAX_EP0_SIZE;
 8008416:	6266      	str	r6, [r4, #36]	@ 0x24
  pdev->dev_state = USBD_STATE_DEFAULT;
 8008418:	f884 529c 	strb.w	r5, [r4, #668]	@ 0x29c
  pdev->ep0_state = USBD_EP0_IDLE;
 800841c:	f8c4 1294 	str.w	r1, [r4, #660]	@ 0x294
  pdev->dev_config = 0U;
 8008420:	6061      	str	r1, [r4, #4]
  pdev->dev_remote_wakeup = 0U;
 8008422:	f8c4 12a4 	str.w	r1, [r4, #676]	@ 0x2a4
  if (pdev->pClassData)
 8008426:	b123      	cbz	r3, 8008432 <USBD_LL_Reset+0x4a>
  {
    pdev->pClass->DeInit(pdev, (uint8_t)pdev->dev_config);
 8008428:	f8d4 32b4 	ldr.w	r3, [r4, #692]	@ 0x2b4
 800842c:	4620      	mov	r0, r4
 800842e:	685b      	ldr	r3, [r3, #4]
 8008430:	4798      	blx	r3
  }

  return USBD_OK;
}
 8008432:	2000      	movs	r0, #0
 8008434:	bd70      	pop	{r4, r5, r6, pc}

08008436 <USBD_LL_SetSpeed>:
* @retval status
*/
USBD_StatusTypeDef USBD_LL_SetSpeed(USBD_HandleTypeDef *pdev,
                                    USBD_SpeedTypeDef speed)
{
  pdev->dev_speed = speed;
 8008436:	7401      	strb	r1, [r0, #16]

  return USBD_OK;
}
 8008438:	2000      	movs	r0, #0
 800843a:	4770      	bx	lr

0800843c <USBD_LL_Suspend>:
* @retval status
*/

USBD_StatusTypeDef USBD_LL_Suspend(USBD_HandleTypeDef *pdev)
{
  pdev->dev_old_state =  pdev->dev_state;
 800843c:	f890 329c 	ldrb.w	r3, [r0, #668]	@ 0x29c
 8008440:	f880 329d 	strb.w	r3, [r0, #669]	@ 0x29d
  pdev->dev_state  = USBD_STATE_SUSPENDED;
 8008444:	2304      	movs	r3, #4
 8008446:	f880 329c 	strb.w	r3, [r0, #668]	@ 0x29c

  return USBD_OK;
}
 800844a:	2000      	movs	r0, #0
 800844c:	4770      	bx	lr

0800844e <USBD_LL_Resume>:
* @retval status
*/

USBD_StatusTypeDef USBD_LL_Resume(USBD_HandleTypeDef *pdev)
{
  if (pdev->dev_state == USBD_STATE_SUSPENDED)
 800844e:	f890 329c 	ldrb.w	r3, [r0, #668]	@ 0x29c
 8008452:	2b04      	cmp	r3, #4
  {
    pdev->dev_state = pdev->dev_old_state;
 8008454:	bf04      	itt	eq
 8008456:	f890 329d 	ldrbeq.w	r3, [r0, #669]	@ 0x29d
 800845a:	f880 329c 	strbeq.w	r3, [r0, #668]	@ 0x29c
  }

  return USBD_OK;
}
 800845e:	2000      	movs	r0, #0
 8008460:	4770      	bx	lr

08008462 <USBD_LL_SOF>:
* @param  pdev: device instance
* @retval status
*/

USBD_StatusTypeDef USBD_LL_SOF(USBD_HandleTypeDef *pdev)
{
 8008462:	b508      	push	{r3, lr}
  if (pdev->dev_state == USBD_STATE_CONFIGURED)
 8008464:	f890 229c 	ldrb.w	r2, [r0, #668]	@ 0x29c
 8008468:	2a03      	cmp	r2, #3
 800846a:	d104      	bne.n	8008476 <USBD_LL_SOF+0x14>
  {
    if (pdev->pClass->SOF != NULL)
 800846c:	f8d0 32b4 	ldr.w	r3, [r0, #692]	@ 0x2b4
 8008470:	69db      	ldr	r3, [r3, #28]
 8008472:	b103      	cbz	r3, 8008476 <USBD_LL_SOF+0x14>
    {
      pdev->pClass->SOF(pdev);
 8008474:	4798      	blx	r3
    }
  }

  return USBD_OK;
}
 8008476:	2000      	movs	r0, #0
 8008478:	bd08      	pop	{r3, pc}

0800847a <USBD_CtlError.constprop.0>:
* @param  pdev: device instance
* @param  req: usb request
* @retval None
*/

void USBD_CtlError(USBD_HandleTypeDef *pdev,
 800847a:	b510      	push	{r4, lr}
 800847c:	4604      	mov	r4, r0
                   USBD_SetupReqTypedef *req)
{
  USBD_LL_StallEP(pdev, 0x80U);
 800847e:	2180      	movs	r1, #128	@ 0x80
 8008480:	f000 fc3e 	bl	8008d00 <USBD_LL_StallEP>
  USBD_LL_StallEP(pdev, 0U);
 8008484:	4620      	mov	r0, r4
}
 8008486:	e8bd 4010 	ldmia.w	sp!, {r4, lr}
  USBD_LL_StallEP(pdev, 0U);
 800848a:	2100      	movs	r1, #0
 800848c:	f000 bc38 	b.w	8008d00 <USBD_LL_StallEP>

08008490 <USBD_StdDevReq>:
{
 8008490:	b537      	push	{r0, r1, r2, r4, r5, lr}
 8008492:	780b      	ldrb	r3, [r1, #0]
 8008494:	4604      	mov	r4, r0
  switch (req->bmRequest & USB_REQ_TYPE_MASK)
 8008496:	f003 0360 	and.w	r3, r3, #96	@ 0x60
 800849a:	2b20      	cmp	r3, #32
{
 800849c:	460d      	mov	r5, r1
  switch (req->bmRequest & USB_REQ_TYPE_MASK)
 800849e:	d006      	beq.n	80084ae <USBD_StdDevReq+0x1e>
 80084a0:	2b40      	cmp	r3, #64	@ 0x40
 80084a2:	d004      	beq.n	80084ae <USBD_StdDevReq+0x1e>
 80084a4:	b163      	cbz	r3, 80084c0 <USBD_StdDevReq+0x30>
        USBD_CtlError(pdev, req);
 80084a6:	4620      	mov	r0, r4
 80084a8:	f7ff ffe7 	bl	800847a <USBD_CtlError.constprop.0>
        break;
 80084ac:	e005      	b.n	80084ba <USBD_StdDevReq+0x2a>
      pdev->pClass->Setup(pdev, req);
 80084ae:	f8d4 32b4 	ldr.w	r3, [r4, #692]	@ 0x2b4
 80084b2:	4629      	mov	r1, r5
 80084b4:	4620      	mov	r0, r4
 80084b6:	689b      	ldr	r3, [r3, #8]
 80084b8:	4798      	blx	r3
}
 80084ba:	2000      	movs	r0, #0
 80084bc:	b003      	add	sp, #12
 80084be:	bd30      	pop	{r4, r5, pc}
      switch (req->bRequest)
 80084c0:	784b      	ldrb	r3, [r1, #1]
 80084c2:	2b09      	cmp	r3, #9
 80084c4:	d8ef      	bhi.n	80084a6 <USBD_StdDevReq+0x16>
 80084c6:	a201      	add	r2, pc, #4	@ (adr r2, 80084cc <USBD_StdDevReq+0x3c>)
 80084c8:	f852 f023 	ldr.w	pc, [r2, r3, lsl #2]
 80084cc:	080086cf 	.word	0x080086cf
 80084d0:	08008705 	.word	0x08008705
 80084d4:	080084a7 	.word	0x080084a7
 80084d8:	080086f7 	.word	0x080086f7
 80084dc:	080084a7 	.word	0x080084a7
 80084e0:	080085f5 	.word	0x080085f5
 80084e4:	080084f5 	.word	0x080084f5
 80084e8:	080084a7 	.word	0x080084a7
 80084ec:	0800869f 	.word	0x0800869f
 80084f0:	08008637 	.word	0x08008637
  uint16_t len = 0U;
 80084f4:	2300      	movs	r3, #0
 80084f6:	f8ad 3006 	strh.w	r3, [sp, #6]
  switch (req->wValue >> 8)
 80084fa:	884b      	ldrh	r3, [r1, #2]
 80084fc:	0a1a      	lsrs	r2, r3, #8
 80084fe:	3a01      	subs	r2, #1
 8008500:	2a06      	cmp	r2, #6
 8008502:	d8d0      	bhi.n	80084a6 <USBD_StdDevReq+0x16>
 8008504:	a101      	add	r1, pc, #4	@ (adr r1, 800850c <USBD_StdDevReq+0x7c>)
 8008506:	f851 f022 	ldr.w	pc, [r1, r2, lsl #2]
 800850a:	bf00      	nop
 800850c:	08008529 	.word	0x08008529
 8008510:	0800854d 	.word	0x0800854d
 8008514:	08008567 	.word	0x08008567
 8008518:	080084a7 	.word	0x080084a7
 800851c:	080084a7 	.word	0x080084a7
 8008520:	080085ab 	.word	0x080085ab
 8008524:	080085c1 	.word	0x080085c1
      pbuf = pdev->pDesc->GetDeviceDescriptor(pdev->dev_speed, &len);
 8008528:	f8d0 32b0 	ldr.w	r3, [r0, #688]	@ 0x2b0
 800852c:	681b      	ldr	r3, [r3, #0]
            pbuf = pdev->pDesc->GetInterfaceStrDescriptor(pdev->dev_speed, &len);
 800852e:	7c20      	ldrb	r0, [r4, #16]
 8008530:	f10d 0106 	add.w	r1, sp, #6
 8008534:	4798      	blx	r3
    if ((len != 0U) && (req->wLength != 0U))
 8008536:	f8bd 2006 	ldrh.w	r2, [sp, #6]
 800853a:	2a00      	cmp	r2, #0
 800853c:	d055      	beq.n	80085ea <USBD_StdDevReq+0x15a>
 800853e:	88eb      	ldrh	r3, [r5, #6]
 8008540:	2b00      	cmp	r3, #0
 8008542:	d149      	bne.n	80085d8 <USBD_StdDevReq+0x148>
        USBD_CtlSendStatus(pdev);
 8008544:	4620      	mov	r0, r4
 8008546:	f000 f9f7 	bl	8008938 <USBD_CtlSendStatus>
 800854a:	e7b6      	b.n	80084ba <USBD_StdDevReq+0x2a>
      if (pdev->dev_speed == USBD_SPEED_HIGH)
 800854c:	7c02      	ldrb	r2, [r0, #16]
      pdev->pClass->Setup(pdev, req);
 800854e:	f8d0 32b4 	ldr.w	r3, [r0, #692]	@ 0x2b4
      if (pdev->dev_speed == USBD_SPEED_HIGH)
 8008552:	b932      	cbnz	r2, 8008562 <USBD_StdDevReq+0xd2>
        pbuf = pdev->pClass->GetHSConfigDescriptor(&len);
 8008554:	6a9b      	ldr	r3, [r3, #40]	@ 0x28
        pbuf = pdev->pClass->GetFSConfigDescriptor(&len);
 8008556:	f10d 0006 	add.w	r0, sp, #6
 800855a:	4798      	blx	r3
        pbuf[1] = USB_DESC_TYPE_CONFIGURATION;
 800855c:	2302      	movs	r3, #2
        pbuf[1] = USB_DESC_TYPE_OTHER_SPEED_CONFIGURATION;
 800855e:	7043      	strb	r3, [r0, #1]
  if (err != 0U)
 8008560:	e7e9      	b.n	8008536 <USBD_StdDevReq+0xa6>
        pbuf = pdev->pClass->GetFSConfigDescriptor(&len);
 8008562:	6adb      	ldr	r3, [r3, #44]	@ 0x2c
 8008564:	e7f7      	b.n	8008556 <USBD_StdDevReq+0xc6>
      switch ((uint8_t)(req->wValue))
 8008566:	b2db      	uxtb	r3, r3
 8008568:	2b05      	cmp	r3, #5
 800856a:	d89c      	bhi.n	80084a6 <USBD_StdDevReq+0x16>
 800856c:	e8df f003 	tbb	[pc, r3]
 8008570:	110d0903 	.word	0x110d0903
 8008574:	1915      	.short	0x1915
          if (pdev->pDesc->GetLangIDStrDescriptor != NULL)
 8008576:	f8d0 32b0 	ldr.w	r3, [r0, #688]	@ 0x2b0
 800857a:	685b      	ldr	r3, [r3, #4]
          if (pdev->pDesc->GetInterfaceStrDescriptor != NULL)
 800857c:	2b00      	cmp	r3, #0
 800857e:	d1d6      	bne.n	800852e <USBD_StdDevReq+0x9e>
 8008580:	e791      	b.n	80084a6 <USBD_StdDevReq+0x16>
          if (pdev->pDesc->GetManufacturerStrDescriptor != NULL)
 8008582:	f8d0 32b0 	ldr.w	r3, [r0, #688]	@ 0x2b0
 8008586:	689b      	ldr	r3, [r3, #8]
 8008588:	e7f8      	b.n	800857c <USBD_StdDevReq+0xec>
          if (pdev->pDesc->GetProductStrDescriptor != NULL)
 800858a:	f8d0 32b0 	ldr.w	r3, [r0, #688]	@ 0x2b0
 800858e:	68db      	ldr	r3, [r3, #12]
 8008590:	e7f4      	b.n	800857c <USBD_StdDevReq+0xec>
          if (pdev->pDesc->GetSerialStrDescriptor != NULL)
 8008592:	f8d0 32b0 	ldr.w	r3, [r0, #688]	@ 0x2b0
 8008596:	691b      	ldr	r3, [r3, #16]
 8008598:	e7f0      	b.n	800857c <USBD_StdDevReq+0xec>
          if (pdev->pDesc->GetConfigurationStrDescriptor != NULL)
 800859a:	f8d0 32b0 	ldr.w	r3, [r0, #688]	@ 0x2b0
 800859e:	695b      	ldr	r3, [r3, #20]
 80085a0:	e7ec      	b.n	800857c <USBD_StdDevReq+0xec>
          if (pdev->pDesc->GetInterfaceStrDescriptor != NULL)
 80085a2:	f8d0 32b0 	ldr.w	r3, [r0, #688]	@ 0x2b0
 80085a6:	699b      	ldr	r3, [r3, #24]
 80085a8:	e7e8      	b.n	800857c <USBD_StdDevReq+0xec>
      if (pdev->dev_speed == USBD_SPEED_HIGH)
 80085aa:	7c03      	ldrb	r3, [r0, #16]
 80085ac:	2b00      	cmp	r3, #0
 80085ae:	f47f af7a 	bne.w	80084a6 <USBD_StdDevReq+0x16>
        pbuf = pdev->pClass->GetDeviceQualifierDescriptor(&len);
 80085b2:	f8d0 32b4 	ldr.w	r3, [r0, #692]	@ 0x2b4
 80085b6:	f10d 0006 	add.w	r0, sp, #6
 80085ba:	6b5b      	ldr	r3, [r3, #52]	@ 0x34
 80085bc:	4798      	blx	r3
  if (err != 0U)
 80085be:	e7ba      	b.n	8008536 <USBD_StdDevReq+0xa6>
      if (pdev->dev_speed == USBD_SPEED_HIGH)
 80085c0:	7c03      	ldrb	r3, [r0, #16]
 80085c2:	2b00      	cmp	r3, #0
 80085c4:	f47f af6f 	bne.w	80084a6 <USBD_StdDevReq+0x16>
        pbuf = pdev->pClass->GetOtherSpeedConfigDescriptor(&len);
 80085c8:	f8d0 32b4 	ldr.w	r3, [r0, #692]	@ 0x2b4
 80085cc:	f10d 0006 	add.w	r0, sp, #6
 80085d0:	6b1b      	ldr	r3, [r3, #48]	@ 0x30
 80085d2:	4798      	blx	r3
        pbuf[1] = USB_DESC_TYPE_OTHER_SPEED_CONFIGURATION;
 80085d4:	2307      	movs	r3, #7
 80085d6:	e7c2      	b.n	800855e <USBD_StdDevReq+0xce>
      len = MIN(len, req->wLength);
 80085d8:	429a      	cmp	r2, r3
 80085da:	bf28      	it	cs
 80085dc:	461a      	movcs	r2, r3
      (void)USBD_CtlSendData(pdev, pbuf, len);
 80085de:	4601      	mov	r1, r0
 80085e0:	4620      	mov	r0, r4
      len = MIN(len, req->wLength);
 80085e2:	f8ad 2006 	strh.w	r2, [sp, #6]
      (void)USBD_CtlSendData(pdev, pbuf, len);
 80085e6:	f000 f97d 	bl	80088e4 <USBD_CtlSendData>
    if (req->wLength == 0U)
 80085ea:	88eb      	ldrh	r3, [r5, #6]
 80085ec:	2b00      	cmp	r3, #0
 80085ee:	f47f af64 	bne.w	80084ba <USBD_StdDevReq+0x2a>
 80085f2:	e7a7      	b.n	8008544 <USBD_StdDevReq+0xb4>
  if ((req->wIndex == 0U) && (req->wLength == 0U) && (req->wValue < 128U))
 80085f4:	888b      	ldrh	r3, [r1, #4]
 80085f6:	2b00      	cmp	r3, #0
 80085f8:	f47f af55 	bne.w	80084a6 <USBD_StdDevReq+0x16>
 80085fc:	88cb      	ldrh	r3, [r1, #6]
 80085fe:	2b00      	cmp	r3, #0
 8008600:	f47f af51 	bne.w	80084a6 <USBD_StdDevReq+0x16>
 8008604:	884d      	ldrh	r5, [r1, #2]
 8008606:	2d7f      	cmp	r5, #127	@ 0x7f
 8008608:	f63f af4d 	bhi.w	80084a6 <USBD_StdDevReq+0x16>
    if (pdev->dev_state == USBD_STATE_CONFIGURED)
 800860c:	f890 329c 	ldrb.w	r3, [r0, #668]	@ 0x29c
 8008610:	2b03      	cmp	r3, #3
 8008612:	f43f af48 	beq.w	80084a6 <USBD_StdDevReq+0x16>
    dev_addr = (uint8_t)(req->wValue) & 0x7FU;
 8008616:	b2ed      	uxtb	r5, r5
      USBD_LL_SetUSBAddress(pdev, dev_addr);
 8008618:	4629      	mov	r1, r5
      pdev->dev_address = dev_addr;
 800861a:	f880 529e 	strb.w	r5, [r0, #670]	@ 0x29e
      USBD_LL_SetUSBAddress(pdev, dev_addr);
 800861e:	f000 fb92 	bl	8008d46 <USBD_LL_SetUSBAddress>
      USBD_CtlSendStatus(pdev);
 8008622:	4620      	mov	r0, r4
 8008624:	f000 f988 	bl	8008938 <USBD_CtlSendStatus>
      if (dev_addr != 0U)
 8008628:	b11d      	cbz	r5, 8008632 <USBD_StdDevReq+0x1a2>
        pdev->dev_state = USBD_STATE_ADDRESSED;
 800862a:	2302      	movs	r3, #2
        pdev->dev_state = USBD_STATE_DEFAULT;
 800862c:	f884 329c 	strb.w	r3, [r4, #668]	@ 0x29c
 8008630:	e743      	b.n	80084ba <USBD_StdDevReq+0x2a>
 8008632:	2301      	movs	r3, #1
 8008634:	e7fa      	b.n	800862c <USBD_StdDevReq+0x19c>
  cfgidx = (uint8_t)(req->wValue);
 8008636:	7889      	ldrb	r1, [r1, #2]
 8008638:	4d38      	ldr	r5, [pc, #224]	@ (800871c <USBD_StdDevReq+0x28c>)
  if (cfgidx > USBD_MAX_NUM_CONFIGURATION)
 800863a:	2901      	cmp	r1, #1
  cfgidx = (uint8_t)(req->wValue);
 800863c:	7029      	strb	r1, [r5, #0]
  if (cfgidx > USBD_MAX_NUM_CONFIGURATION)
 800863e:	f63f af32 	bhi.w	80084a6 <USBD_StdDevReq+0x16>
    switch (pdev->dev_state)
 8008642:	f890 329c 	ldrb.w	r3, [r0, #668]	@ 0x29c
 8008646:	2b02      	cmp	r3, #2
 8008648:	d008      	beq.n	800865c <USBD_StdDevReq+0x1cc>
 800864a:	2b03      	cmp	r3, #3
 800864c:	d015      	beq.n	800867a <USBD_StdDevReq+0x1ea>
        USBD_CtlError(pdev, req);
 800864e:	f7ff ff14 	bl	800847a <USBD_CtlError.constprop.0>
        USBD_ClrClassConfig(pdev, cfgidx);
 8008652:	4620      	mov	r0, r4
 8008654:	7829      	ldrb	r1, [r5, #0]
 8008656:	f7ff fdff 	bl	8008258 <USBD_ClrClassConfig>
        break;
 800865a:	e72e      	b.n	80084ba <USBD_StdDevReq+0x2a>
        if (cfgidx)
 800865c:	2900      	cmp	r1, #0
 800865e:	f43f af71 	beq.w	8008544 <USBD_StdDevReq+0xb4>
          pdev->dev_config = cfgidx;
 8008662:	2101      	movs	r1, #1
          pdev->dev_state = USBD_STATE_CONFIGURED;
 8008664:	2303      	movs	r3, #3
          pdev->dev_config = cfgidx;
 8008666:	6041      	str	r1, [r0, #4]
          pdev->dev_state = USBD_STATE_CONFIGURED;
 8008668:	f880 329c 	strb.w	r3, [r0, #668]	@ 0x29c
          if (USBD_SetClassConfig(pdev, cfgidx) == USBD_FAIL)
 800866c:	4620      	mov	r0, r4
 800866e:	f7ff fde6 	bl	800823e <USBD_SetClassConfig>
 8008672:	2802      	cmp	r0, #2
 8008674:	f47f af66 	bne.w	8008544 <USBD_StdDevReq+0xb4>
 8008678:	e715      	b.n	80084a6 <USBD_StdDevReq+0x16>
        if (cfgidx == 0U)
 800867a:	b931      	cbnz	r1, 800868a <USBD_StdDevReq+0x1fa>
          pdev->dev_state = USBD_STATE_ADDRESSED;
 800867c:	2302      	movs	r3, #2
          pdev->dev_config = cfgidx;
 800867e:	6041      	str	r1, [r0, #4]
          pdev->dev_state = USBD_STATE_ADDRESSED;
 8008680:	f880 329c 	strb.w	r3, [r0, #668]	@ 0x29c
          USBD_ClrClassConfig(pdev, cfgidx);
 8008684:	f7ff fde8 	bl	8008258 <USBD_ClrClassConfig>
          USBD_CtlSendStatus(pdev);
 8008688:	e75c      	b.n	8008544 <USBD_StdDevReq+0xb4>
        else if (cfgidx != pdev->dev_config)
 800868a:	6841      	ldr	r1, [r0, #4]
 800868c:	2901      	cmp	r1, #1
 800868e:	f43f af59 	beq.w	8008544 <USBD_StdDevReq+0xb4>
          USBD_ClrClassConfig(pdev, (uint8_t)pdev->dev_config);
 8008692:	b2c9      	uxtb	r1, r1
 8008694:	f7ff fde0 	bl	8008258 <USBD_ClrClassConfig>
          pdev->dev_config = cfgidx;
 8008698:	7829      	ldrb	r1, [r5, #0]
 800869a:	6061      	str	r1, [r4, #4]
 800869c:	e7e6      	b.n	800866c <USBD_StdDevReq+0x1dc>
  if (req->wLength != 1U)
 800869e:	88ca      	ldrh	r2, [r1, #6]
 80086a0:	2a01      	cmp	r2, #1
 80086a2:	f47f af00 	bne.w	80084a6 <USBD_StdDevReq+0x16>
    switch (pdev->dev_state)
 80086a6:	f890 329c 	ldrb.w	r3, [r0, #668]	@ 0x29c
 80086aa:	2b02      	cmp	r3, #2
 80086ac:	d80a      	bhi.n	80086c4 <USBD_StdDevReq+0x234>
 80086ae:	2b00      	cmp	r3, #0
 80086b0:	f43f aef9 	beq.w	80084a6 <USBD_StdDevReq+0x16>
        pdev->dev_default_config = 0U;
 80086b4:	4601      	mov	r1, r0
 80086b6:	2300      	movs	r3, #0
 80086b8:	f841 3f08 	str.w	r3, [r1, #8]!
      USBD_CtlSendData(pdev, (uint8_t *)(void *)&pdev->dev_config_status, 2U);
 80086bc:	4620      	mov	r0, r4
 80086be:	f000 f911 	bl	80088e4 <USBD_CtlSendData>
      break;
 80086c2:	e6fa      	b.n	80084ba <USBD_StdDevReq+0x2a>
    switch (pdev->dev_state)
 80086c4:	2b03      	cmp	r3, #3
 80086c6:	f47f aeee 	bne.w	80084a6 <USBD_StdDevReq+0x16>
        USBD_CtlSendData(pdev, (uint8_t *)(void *)&pdev->dev_config, 1U);
 80086ca:	1d01      	adds	r1, r0, #4
 80086cc:	e7f6      	b.n	80086bc <USBD_StdDevReq+0x22c>
  switch (pdev->dev_state)
 80086ce:	f890 329c 	ldrb.w	r3, [r0, #668]	@ 0x29c
 80086d2:	3b01      	subs	r3, #1
 80086d4:	2b02      	cmp	r3, #2
 80086d6:	f63f aee6 	bhi.w	80084a6 <USBD_StdDevReq+0x16>
      if (req->wLength != 0x2U)
 80086da:	88ca      	ldrh	r2, [r1, #6]
 80086dc:	2a02      	cmp	r2, #2
 80086de:	f47f aee2 	bne.w	80084a6 <USBD_StdDevReq+0x16>
      if (pdev->dev_remote_wakeup)
 80086e2:	f8d0 32a4 	ldr.w	r3, [r0, #676]	@ 0x2a4
 80086e6:	4601      	mov	r1, r0
        pdev->dev_config_status |= USB_CONFIG_REMOTE_WAKEUP;
 80086e8:	2b00      	cmp	r3, #0
 80086ea:	bf0c      	ite	eq
 80086ec:	2301      	moveq	r3, #1
 80086ee:	2303      	movne	r3, #3
 80086f0:	f841 3f0c 	str.w	r3, [r1, #12]!
 80086f4:	e7e2      	b.n	80086bc <USBD_StdDevReq+0x22c>
  if (req->wValue == USB_FEATURE_REMOTE_WAKEUP)
 80086f6:	884b      	ldrh	r3, [r1, #2]
 80086f8:	2b01      	cmp	r3, #1
 80086fa:	f47f aede 	bne.w	80084ba <USBD_StdDevReq+0x2a>
        pdev->dev_remote_wakeup = 0U;
 80086fe:	f8c4 32a4 	str.w	r3, [r4, #676]	@ 0x2a4
 8008702:	e71f      	b.n	8008544 <USBD_StdDevReq+0xb4>
  switch (pdev->dev_state)
 8008704:	f890 329c 	ldrb.w	r3, [r0, #668]	@ 0x29c
 8008708:	3b01      	subs	r3, #1
 800870a:	2b02      	cmp	r3, #2
 800870c:	f63f aecb 	bhi.w	80084a6 <USBD_StdDevReq+0x16>
      if (req->wValue == USB_FEATURE_REMOTE_WAKEUP)
 8008710:	884b      	ldrh	r3, [r1, #2]
 8008712:	2b01      	cmp	r3, #1
 8008714:	f47f aed1 	bne.w	80084ba <USBD_StdDevReq+0x2a>
        pdev->dev_remote_wakeup = 0U;
 8008718:	2300      	movs	r3, #0
 800871a:	e7f0      	b.n	80086fe <USBD_StdDevReq+0x26e>
 800871c:	2000138c 	.word	0x2000138c

08008720 <USBD_StdItfReq>:
{
 8008720:	b538      	push	{r3, r4, r5, lr}
  switch (req->bmRequest & USB_REQ_TYPE_MASK)
 8008722:	780b      	ldrb	r3, [r1, #0]
{
 8008724:	4604      	mov	r4, r0
  switch (req->bmRequest & USB_REQ_TYPE_MASK)
 8008726:	f003 0260 	and.w	r2, r3, #96	@ 0x60
 800872a:	065b      	lsls	r3, r3, #25
{
 800872c:	460d      	mov	r5, r1
  switch (req->bmRequest & USB_REQ_TYPE_MASK)
 800872e:	d501      	bpl.n	8008734 <USBD_StdItfReq+0x14>
 8008730:	2a40      	cmp	r2, #64	@ 0x40
 8008732:	d115      	bne.n	8008760 <USBD_StdItfReq+0x40>
      switch (pdev->dev_state)
 8008734:	f894 329c 	ldrb.w	r3, [r4, #668]	@ 0x29c
 8008738:	3b01      	subs	r3, #1
 800873a:	2b02      	cmp	r3, #2
 800873c:	d810      	bhi.n	8008760 <USBD_StdItfReq+0x40>
          if (LOBYTE(req->wIndex) <= USBD_MAX_NUM_INTERFACES)
 800873e:	792b      	ldrb	r3, [r5, #4]
 8008740:	2b01      	cmp	r3, #1
 8008742:	d80d      	bhi.n	8008760 <USBD_StdItfReq+0x40>
            ret = (USBD_StatusTypeDef)pdev->pClass->Setup(pdev, req);
 8008744:	f8d4 32b4 	ldr.w	r3, [r4, #692]	@ 0x2b4
 8008748:	4629      	mov	r1, r5
 800874a:	689b      	ldr	r3, [r3, #8]
 800874c:	4620      	mov	r0, r4
 800874e:	4798      	blx	r3
            if ((req->wLength == 0U) && (ret == USBD_OK))
 8008750:	88eb      	ldrh	r3, [r5, #6]
 8008752:	b91b      	cbnz	r3, 800875c <USBD_StdItfReq+0x3c>
 8008754:	b910      	cbnz	r0, 800875c <USBD_StdItfReq+0x3c>
              USBD_CtlSendStatus(pdev);
 8008756:	4620      	mov	r0, r4
 8008758:	f000 f8ee 	bl	8008938 <USBD_CtlSendStatus>
}
 800875c:	2000      	movs	r0, #0
 800875e:	bd38      	pop	{r3, r4, r5, pc}
          USBD_CtlError(pdev, req);
 8008760:	4620      	mov	r0, r4
 8008762:	f7ff fe8a 	bl	800847a <USBD_CtlError.constprop.0>
          break;
 8008766:	e7f9      	b.n	800875c <USBD_StdItfReq+0x3c>

08008768 <USBD_StdEPReq>:
{
 8008768:	b538      	push	{r3, r4, r5, lr}
 800876a:	780a      	ldrb	r2, [r1, #0]
 800876c:	4604      	mov	r4, r0
  switch (req->bmRequest & USB_REQ_TYPE_MASK)
 800876e:	f002 0260 	and.w	r2, r2, #96	@ 0x60
 8008772:	2a20      	cmp	r2, #32
{
 8008774:	460b      	mov	r3, r1
  switch (req->bmRequest & USB_REQ_TYPE_MASK)
 8008776:	d006      	beq.n	8008786 <USBD_StdEPReq+0x1e>
 8008778:	2a40      	cmp	r2, #64	@ 0x40
 800877a:	d004      	beq.n	8008786 <USBD_StdEPReq+0x1e>
 800877c:	b15a      	cbz	r2, 8008796 <USBD_StdEPReq+0x2e>
              USBD_CtlError(pdev, req);
 800877e:	4620      	mov	r0, r4
 8008780:	f7ff fe7b 	bl	800847a <USBD_CtlError.constprop.0>
              break;
 8008784:	e005      	b.n	8008792 <USBD_StdEPReq+0x2a>
      pdev->pClass->Setup(pdev, req);
 8008786:	f8d4 22b4 	ldr.w	r2, [r4, #692]	@ 0x2b4
 800878a:	4619      	mov	r1, r3
 800878c:	4620      	mov	r0, r4
 800878e:	6892      	ldr	r2, [r2, #8]
 8008790:	4790      	blx	r2
}
 8008792:	2000      	movs	r0, #0
 8008794:	bd38      	pop	{r3, r4, r5, pc}
      switch (req->bRequest)
 8008796:	785a      	ldrb	r2, [r3, #1]
  ep_addr  = LOBYTE(req->wIndex);
 8008798:	888d      	ldrh	r5, [r1, #4]
      switch (req->bRequest)
 800879a:	2a01      	cmp	r2, #1
  ep_addr  = LOBYTE(req->wIndex);
 800879c:	7909      	ldrb	r1, [r1, #4]
      switch (req->bRequest)
 800879e:	d035      	beq.n	800880c <USBD_StdEPReq+0xa4>
 80087a0:	2a03      	cmp	r2, #3
 80087a2:	d021      	beq.n	80087e8 <USBD_StdEPReq+0x80>
 80087a4:	2a00      	cmp	r2, #0
 80087a6:	d1ea      	bne.n	800877e <USBD_StdEPReq+0x16>
          switch (pdev->dev_state)
 80087a8:	f890 329c 	ldrb.w	r3, [r0, #668]	@ 0x29c
 80087ac:	2b02      	cmp	r3, #2
 80087ae:	d044      	beq.n	800883a <USBD_StdEPReq+0xd2>
 80087b0:	2b03      	cmp	r3, #3
 80087b2:	d1e4      	bne.n	800877e <USBD_StdEPReq+0x16>
              if ((ep_addr & 0x80U) == 0x80U)
 80087b4:	2214      	movs	r2, #20
                if (pdev->ep_in[ep_addr & 0xFU].is_used == 0U)
 80087b6:	f001 030f 	and.w	r3, r1, #15
              if ((ep_addr & 0x80U) == 0x80U)
 80087ba:	f015 0f80 	tst.w	r5, #128	@ 0x80
                if (pdev->ep_in[ep_addr & 0xFU].is_used == 0U)
 80087be:	fb02 0303 	mla	r3, r2, r3, r0
              if ((ep_addr & 0x80U) == 0x80U)
 80087c2:	d04b      	beq.n	800885c <USBD_StdEPReq+0xf4>
                if (pdev->ep_in[ep_addr & 0xFU].is_used == 0U)
 80087c4:	699b      	ldr	r3, [r3, #24]
 80087c6:	2b00      	cmp	r3, #0
 80087c8:	d0d9      	beq.n	800877e <USBD_StdEPReq+0x16>
              pep = ((ep_addr & 0x80U) == 0x80U) ? &pdev->ep_in[ep_addr & 0x7FU] : \
 80087ca:	2514      	movs	r5, #20
 80087cc:	f001 037f 	and.w	r3, r1, #127	@ 0x7f
 80087d0:	fb03 5505 	mla	r5, r3, r5, r5
              if ((ep_addr == 0x00U) || (ep_addr == 0x80U))
 80087d4:	2980      	cmp	r1, #128	@ 0x80
              pep = ((ep_addr & 0x80U) == 0x80U) ? &pdev->ep_in[ep_addr & 0x7FU] : \
 80087d6:	4405      	add	r5, r0
              if ((ep_addr == 0x00U) || (ep_addr == 0x80U))
 80087d8:	d04b      	beq.n	8008872 <USBD_StdEPReq+0x10a>
              else if (USBD_LL_IsStallEP(pdev, ep_addr))
 80087da:	4620      	mov	r0, r4
 80087dc:	f000 faa2 	bl	8008d24 <USBD_LL_IsStallEP>
 80087e0:	2800      	cmp	r0, #0
 80087e2:	d04b      	beq.n	800887c <USBD_StdEPReq+0x114>
                pep->status = 0x0001U;
 80087e4:	2301      	movs	r3, #1
 80087e6:	e045      	b.n	8008874 <USBD_StdEPReq+0x10c>
          switch (pdev->dev_state)
 80087e8:	f890 229c 	ldrb.w	r2, [r0, #668]	@ 0x29c
 80087ec:	2a02      	cmp	r2, #2
 80087ee:	d01b      	beq.n	8008828 <USBD_StdEPReq+0xc0>
 80087f0:	2a03      	cmp	r2, #3
 80087f2:	d1c4      	bne.n	800877e <USBD_StdEPReq+0x16>
              if (req->wValue == USB_FEATURE_EP_HALT)
 80087f4:	885a      	ldrh	r2, [r3, #2]
 80087f6:	b92a      	cbnz	r2, 8008804 <USBD_StdEPReq+0x9c>
                if ((ep_addr != 0x00U) &&
 80087f8:	064a      	lsls	r2, r1, #25
 80087fa:	d003      	beq.n	8008804 <USBD_StdEPReq+0x9c>
                    (ep_addr != 0x80U) && (req->wLength == 0x00U))
 80087fc:	88db      	ldrh	r3, [r3, #6]
 80087fe:	b90b      	cbnz	r3, 8008804 <USBD_StdEPReq+0x9c>
                  USBD_LL_StallEP(pdev, ep_addr);
 8008800:	f000 fa7e 	bl	8008d00 <USBD_LL_StallEP>
              USBD_CtlSendStatus(pdev);
 8008804:	4620      	mov	r0, r4
 8008806:	f000 f897 	bl	8008938 <USBD_CtlSendStatus>
              break;
 800880a:	e7c2      	b.n	8008792 <USBD_StdEPReq+0x2a>
          switch (pdev->dev_state)
 800880c:	f890 229c 	ldrb.w	r2, [r0, #668]	@ 0x29c
 8008810:	2a02      	cmp	r2, #2
 8008812:	d009      	beq.n	8008828 <USBD_StdEPReq+0xc0>
 8008814:	2a03      	cmp	r2, #3
 8008816:	d1b2      	bne.n	800877e <USBD_StdEPReq+0x16>
              if (req->wValue == USB_FEATURE_EP_HALT)
 8008818:	885b      	ldrh	r3, [r3, #2]
 800881a:	2b00      	cmp	r3, #0
 800881c:	d1b9      	bne.n	8008792 <USBD_StdEPReq+0x2a>
                if ((ep_addr & 0x7FU) != 0x00U)
 800881e:	064d      	lsls	r5, r1, #25
 8008820:	d0f0      	beq.n	8008804 <USBD_StdEPReq+0x9c>
                  USBD_LL_ClearStallEP(pdev, ep_addr);
 8008822:	f000 fa76 	bl	8008d12 <USBD_LL_ClearStallEP>
 8008826:	e7ed      	b.n	8008804 <USBD_StdEPReq+0x9c>
              if ((ep_addr != 0x00U) && (ep_addr != 0x80U))
 8008828:	064b      	lsls	r3, r1, #25
 800882a:	d0a8      	beq.n	800877e <USBD_StdEPReq+0x16>
                USBD_LL_StallEP(pdev, ep_addr);
 800882c:	f000 fa68 	bl	8008d00 <USBD_LL_StallEP>
                USBD_LL_StallEP(pdev, 0x80U);
 8008830:	2180      	movs	r1, #128	@ 0x80
 8008832:	4620      	mov	r0, r4
 8008834:	f000 fa64 	bl	8008d00 <USBD_LL_StallEP>
 8008838:	e7ab      	b.n	8008792 <USBD_StdEPReq+0x2a>
              if ((ep_addr != 0x00U) && (ep_addr != 0x80U))
 800883a:	064a      	lsls	r2, r1, #25
 800883c:	d19f      	bne.n	800877e <USBD_StdEPReq+0x16>
              pep = ((ep_addr & 0x80U) == 0x80U) ? &pdev->ep_in[ep_addr & 0x7FU] : \
 800883e:	062b      	lsls	r3, r5, #24
              pep->status = 0x0000U;
 8008840:	f04f 0300 	mov.w	r3, #0
              USBD_CtlSendData(pdev, (uint8_t *)(void *)&pep->status, 2U);
 8008844:	f04f 0202 	mov.w	r2, #2
              pep = ((ep_addr & 0x80U) == 0x80U) ? &pdev->ep_in[ep_addr & 0x7FU] : \
 8008848:	bf4c      	ite	mi
 800884a:	f100 0114 	addmi.w	r1, r0, #20
 800884e:	f500 71aa 	addpl.w	r1, r0, #340	@ 0x154
              pep->status = 0x0000U;
 8008852:	600b      	str	r3, [r1, #0]
              USBD_CtlSendData(pdev, (uint8_t *)(void *)&pep->status, 2U);
 8008854:	4620      	mov	r0, r4
 8008856:	f000 f845 	bl	80088e4 <USBD_CtlSendData>
              break;
 800885a:	e79a      	b.n	8008792 <USBD_StdEPReq+0x2a>
                if (pdev->ep_out[ep_addr & 0xFU].is_used == 0U)
 800885c:	f8d3 3158 	ldr.w	r3, [r3, #344]	@ 0x158
 8008860:	2b00      	cmp	r3, #0
 8008862:	d08c      	beq.n	800877e <USBD_StdEPReq+0x16>
              pep = ((ep_addr & 0x80U) == 0x80U) ? &pdev->ep_in[ep_addr & 0x7FU] : \
 8008864:	2514      	movs	r5, #20
 8008866:	fb05 0501 	mla	r5, r5, r1, r0
 800886a:	f505 75aa 	add.w	r5, r5, #340	@ 0x154
              if ((ep_addr == 0x00U) || (ep_addr == 0x80U))
 800886e:	2900      	cmp	r1, #0
 8008870:	d1b3      	bne.n	80087da <USBD_StdEPReq+0x72>
                pep->status = 0x0000U;
 8008872:	2300      	movs	r3, #0
                pep->status = 0x0001U;
 8008874:	602b      	str	r3, [r5, #0]
              USBD_CtlSendData(pdev, (uint8_t *)(void *)&pep->status, 2U);
 8008876:	2202      	movs	r2, #2
 8008878:	4629      	mov	r1, r5
 800887a:	e7eb      	b.n	8008854 <USBD_StdEPReq+0xec>
                pep->status = 0x0000U;
 800887c:	6028      	str	r0, [r5, #0]
 800887e:	e7fa      	b.n	8008876 <USBD_StdEPReq+0x10e>

08008880 <USBD_ParseSetupRequest>:
  req->bmRequest = *(uint8_t *)(pdata);
 8008880:	780b      	ldrb	r3, [r1, #0]
 8008882:	7003      	strb	r3, [r0, #0]
  req->bRequest = *(uint8_t *)(pdata + 1U);
 8008884:	784b      	ldrb	r3, [r1, #1]
 8008886:	7043      	strb	r3, [r0, #1]
  req->wValue = SWAPBYTE(pdata + 2U);
 8008888:	884b      	ldrh	r3, [r1, #2]
 800888a:	8043      	strh	r3, [r0, #2]
  req->wIndex = SWAPBYTE(pdata + 4U);
 800888c:	888b      	ldrh	r3, [r1, #4]
 800888e:	8083      	strh	r3, [r0, #4]
  req->wLength = SWAPBYTE(pdata + 6U);
 8008890:	88cb      	ldrh	r3, [r1, #6]
 8008892:	80c3      	strh	r3, [r0, #6]
}
 8008894:	4770      	bx	lr

08008896 <USBD_CtlError>:
{
 8008896:	b510      	push	{r4, lr}
 8008898:	4604      	mov	r4, r0
  USBD_LL_StallEP(pdev, 0x80U);
 800889a:	2180      	movs	r1, #128	@ 0x80
 800889c:	f000 fa30 	bl	8008d00 <USBD_LL_StallEP>
  USBD_LL_StallEP(pdev, 0U);
 80088a0:	4620      	mov	r0, r4
}
 80088a2:	e8bd 4010 	ldmia.w	sp!, {r4, lr}
  USBD_LL_StallEP(pdev, 0U);
 80088a6:	2100      	movs	r1, #0
 80088a8:	f000 ba2a 	b.w	8008d00 <USBD_LL_StallEP>

080088ac <USBD_GetString>:
  * @param  unicode : Formatted string buffer (unicode)
  * @param  len : descriptor length
  * @retval None
  */
void USBD_GetString(uint8_t *desc, uint8_t *unicode, uint16_t *len)
{
 80088ac:	b570      	push	{r4, r5, r6, lr}
 80088ae:	460d      	mov	r5, r1
 80088b0:	4616      	mov	r6, r2
  uint8_t idx = 0U;

  if (desc != NULL)
 80088b2:	4604      	mov	r4, r0
 80088b4:	b170      	cbz	r0, 80088d4 <USBD_GetString+0x28>
  */
static uint8_t USBD_GetLen(uint8_t *buf)
{
  uint8_t  len = 0U;

  while (*buf != '\0')
 80088b6:	f7f7 fc49 	bl	800014c <strlen>
    *len = (uint16_t)USBD_GetLen(desc) * 2U + 2U;
 80088ba:	b2c3      	uxtb	r3, r0
 80088bc:	3301      	adds	r3, #1
 80088be:	005b      	lsls	r3, r3, #1
 80088c0:	8033      	strh	r3, [r6, #0]
    unicode[idx++] = *(uint8_t *)(void *)len;
 80088c2:	702b      	strb	r3, [r5, #0]
    unicode[idx++] = USB_DESC_TYPE_STRING;
 80088c4:	2303      	movs	r3, #3
      unicode[idx++] =  0U;
 80088c6:	2000      	movs	r0, #0
    unicode[idx++] = USB_DESC_TYPE_STRING;
 80088c8:	706b      	strb	r3, [r5, #1]
 80088ca:	2302      	movs	r3, #2
 80088cc:	3c01      	subs	r4, #1
    while (*desc != '\0')
 80088ce:	f814 1f01 	ldrb.w	r1, [r4, #1]!
 80088d2:	b901      	cbnz	r1, 80088d6 <USBD_GetString+0x2a>
}
 80088d4:	bd70      	pop	{r4, r5, r6, pc}
      unicode[idx++] = *desc++;
 80088d6:	1c5a      	adds	r2, r3, #1
 80088d8:	54e9      	strb	r1, [r5, r3]
 80088da:	b2d2      	uxtb	r2, r2
      unicode[idx++] =  0U;
 80088dc:	3302      	adds	r3, #2
 80088de:	b2db      	uxtb	r3, r3
 80088e0:	54a8      	strb	r0, [r5, r2]
 80088e2:	e7f4      	b.n	80088ce <USBD_GetString+0x22>

080088e4 <USBD_CtlSendData>:
* @param  len: length of data to be sent
* @retval status
*/
USBD_StatusTypeDef USBD_CtlSendData(USBD_HandleTypeDef *pdev,
                                    uint8_t *pbuf, uint16_t len)
{
 80088e4:	4613      	mov	r3, r2
  /* Set EP0 State */
  pdev->ep0_state = USBD_EP0_DATA_IN;
 80088e6:	2202      	movs	r2, #2
{
 80088e8:	b510      	push	{r4, lr}
  pdev->ep_in[0].total_length = len;
  pdev->ep_in[0].rem_length   = len;
 80088ea:	e9c0 3307 	strd	r3, r3, [r0, #28]
  pdev->ep0_state = USBD_EP0_DATA_IN;
 80088ee:	f8c0 2294 	str.w	r2, [r0, #660]	@ 0x294

  /* Start the transfer */
  USBD_LL_Transmit(pdev, 0x00U, pbuf, len);
 80088f2:	460a      	mov	r2, r1
 80088f4:	2100      	movs	r1, #0
 80088f6:	f000 fa2f 	bl	8008d58 <USBD_LL_Transmit>

  return USBD_OK;
}
 80088fa:	2000      	movs	r0, #0
 80088fc:	bd10      	pop	{r4, pc}

080088fe <USBD_CtlContinueSendData>:
* @param  len: length of data to be sent
* @retval status
*/
USBD_StatusTypeDef USBD_CtlContinueSendData(USBD_HandleTypeDef *pdev,
                                            uint8_t *pbuf, uint16_t len)
{
 80088fe:	b508      	push	{r3, lr}
 8008900:	4613      	mov	r3, r2
  /* Start the next transfer */
  USBD_LL_Transmit(pdev, 0x00U, pbuf, len);
 8008902:	460a      	mov	r2, r1
 8008904:	2100      	movs	r1, #0
 8008906:	f000 fa27 	bl	8008d58 <USBD_LL_Transmit>

  return USBD_OK;
}
 800890a:	2000      	movs	r0, #0
 800890c:	bd08      	pop	{r3, pc}

0800890e <USBD_CtlPrepareRx>:
* @param  len: length of data to be received
* @retval status
*/
USBD_StatusTypeDef USBD_CtlPrepareRx(USBD_HandleTypeDef *pdev,
                                     uint8_t *pbuf, uint16_t len)
{
 800890e:	4613      	mov	r3, r2
  /* Set EP0 State */
  pdev->ep0_state = USBD_EP0_DATA_OUT;
 8008910:	2203      	movs	r2, #3
{
 8008912:	b510      	push	{r4, lr}
  pdev->ep_out[0].total_length = len;
  pdev->ep_out[0].rem_length   = len;
 8008914:	e9c0 3357 	strd	r3, r3, [r0, #348]	@ 0x15c
  pdev->ep0_state = USBD_EP0_DATA_OUT;
 8008918:	f8c0 2294 	str.w	r2, [r0, #660]	@ 0x294

  /* Start the transfer */
  USBD_LL_PrepareReceive(pdev, 0U, pbuf, len);
 800891c:	460a      	mov	r2, r1
 800891e:	2100      	movs	r1, #0
 8008920:	f000 fa23 	bl	8008d6a <USBD_LL_PrepareReceive>

  return USBD_OK;
}
 8008924:	2000      	movs	r0, #0
 8008926:	bd10      	pop	{r4, pc}

08008928 <USBD_CtlContinueRx>:
* @param  len: length of data to be received
* @retval status
*/
USBD_StatusTypeDef USBD_CtlContinueRx(USBD_HandleTypeDef *pdev,
                                      uint8_t *pbuf, uint16_t len)
{
 8008928:	b508      	push	{r3, lr}
 800892a:	4613      	mov	r3, r2
  USBD_LL_PrepareReceive(pdev, 0U, pbuf, len);
 800892c:	460a      	mov	r2, r1
 800892e:	2100      	movs	r1, #0
 8008930:	f000 fa1b 	bl	8008d6a <USBD_LL_PrepareReceive>

  return USBD_OK;
}
 8008934:	2000      	movs	r0, #0
 8008936:	bd08      	pop	{r3, pc}

08008938 <USBD_CtlSendStatus>:
*         send zero lzngth packet on the ctl pipe
* @param  pdev: device instance
* @retval status
*/
USBD_StatusTypeDef USBD_CtlSendStatus(USBD_HandleTypeDef *pdev)
{
 8008938:	b508      	push	{r3, lr}
  /* Set EP0 State */
  pdev->ep0_state = USBD_EP0_STATUS_IN;
 800893a:	2304      	movs	r3, #4
 800893c:	f8c0 3294 	str.w	r3, [r0, #660]	@ 0x294

  /* Start the transfer */
  USBD_LL_Transmit(pdev, 0x00U, NULL, 0U);
 8008940:	2300      	movs	r3, #0
 8008942:	461a      	mov	r2, r3
 8008944:	4619      	mov	r1, r3
 8008946:	f000 fa07 	bl	8008d58 <USBD_LL_Transmit>

  return USBD_OK;
}
 800894a:	2000      	movs	r0, #0
 800894c:	bd08      	pop	{r3, pc}

0800894e <USBD_CtlReceiveStatus>:
*         receive zero lzngth packet on the ctl pipe
* @param  pdev: device instance
* @retval status
*/
USBD_StatusTypeDef USBD_CtlReceiveStatus(USBD_HandleTypeDef *pdev)
{
 800894e:	b508      	push	{r3, lr}
  /* Set EP0 State */
  pdev->ep0_state = USBD_EP0_STATUS_OUT;
 8008950:	2305      	movs	r3, #5
 8008952:	f8c0 3294 	str.w	r3, [r0, #660]	@ 0x294

  /* Start the transfer */
  USBD_LL_PrepareReceive(pdev, 0U, NULL, 0U);
 8008956:	2300      	movs	r3, #0
 8008958:	461a      	mov	r2, r3
 800895a:	4619      	mov	r1, r3
 800895c:	f000 fa05 	bl	8008d6a <USBD_LL_PrepareReceive>

  return USBD_OK;
}
 8008960:	2000      	movs	r0, #0
 8008962:	bd08      	pop	{r3, pc}

08008964 <MX_USB_DEVICE_Init>:
/**
  * Init USB device Library, add supported class and start the library
  * @retval None
  */
void MX_USB_DEVICE_Init(void)
{
 8008964:	b508      	push	{r3, lr}
  /* USER CODE BEGIN USB_DEVICE_Init_PreTreatment */

  /* USER CODE END USB_DEVICE_Init_PreTreatment */

  /* Init Device Library, add supported class and start the library. */
  if (USBD_Init(&hUsbDeviceFS, &FS_Desc, DEVICE_FS) != USBD_OK)
 8008966:	2200      	movs	r2, #0
 8008968:	490e      	ldr	r1, [pc, #56]	@ (80089a4 <MX_USB_DEVICE_Init+0x40>)
 800896a:	480f      	ldr	r0, [pc, #60]	@ (80089a8 <MX_USB_DEVICE_Init+0x44>)
 800896c:	f7ff fc46 	bl	80081fc <USBD_Init>
 8008970:	b108      	cbz	r0, 8008976 <MX_USB_DEVICE_Init+0x12>
  {
    Error_Handler();
 8008972:	f7f9 fdf1 	bl	8002558 <Error_Handler>
  }
  if (USBD_RegisterClass(&hUsbDeviceFS, &USBD_CDC) != USBD_OK)
 8008976:	490d      	ldr	r1, [pc, #52]	@ (80089ac <MX_USB_DEVICE_Init+0x48>)
 8008978:	480b      	ldr	r0, [pc, #44]	@ (80089a8 <MX_USB_DEVICE_Init+0x44>)
 800897a:	f7ff fc54 	bl	8008226 <USBD_RegisterClass>
 800897e:	b108      	cbz	r0, 8008984 <MX_USB_DEVICE_Init+0x20>
  {
    Error_Handler();
 8008980:	f7f9 fdea 	bl	8002558 <Error_Handler>
  }
  if (USBD_CDC_RegisterInterface(&hUsbDeviceFS, &USBD_Interface_fops_FS) != USBD_OK)
 8008984:	490a      	ldr	r1, [pc, #40]	@ (80089b0 <MX_USB_DEVICE_Init+0x4c>)
 8008986:	4808      	ldr	r0, [pc, #32]	@ (80089a8 <MX_USB_DEVICE_Init+0x44>)
 8008988:	f7ff fbf7 	bl	800817a <USBD_CDC_RegisterInterface>
 800898c:	b108      	cbz	r0, 8008992 <MX_USB_DEVICE_Init+0x2e>
  {
    Error_Handler();
 800898e:	f7f9 fde3 	bl	8002558 <Error_Handler>
  }
  if (USBD_Start(&hUsbDeviceFS) != USBD_OK)
 8008992:	4805      	ldr	r0, [pc, #20]	@ (80089a8 <MX_USB_DEVICE_Init+0x44>)
 8008994:	f7ff fc4e 	bl	8008234 <USBD_Start>
 8008998:	b118      	cbz	r0, 80089a2 <MX_USB_DEVICE_Init+0x3e>
  }

  /* USER CODE BEGIN USB_DEVICE_Init_PostTreatment */

  /* USER CODE END USB_DEVICE_Init_PostTreatment */
}
 800899a:	e8bd 4008 	ldmia.w	sp!, {r3, lr}
    Error_Handler();
 800899e:	f7f9 bddb 	b.w	8002558 <Error_Handler>
}
 80089a2:	bd08      	pop	{r3, pc}
 80089a4:	200001d4 	.word	0x200001d4
 80089a8:	20001390 	.word	0x20001390
 80089ac:	20000144 	.word	0x20000144
 80089b0:	20000188 	.word	0x20000188

080089b4 <CDC_DeInit_FS>:
static int8_t CDC_DeInit_FS(void)
{
  /* USER CODE BEGIN 4 */
  return (USBD_OK);
  /* USER CODE END 4 */
}
 80089b4:	2000      	movs	r0, #0
 80089b6:	4770      	bx	lr

080089b8 <CDC_Control_FS>:
  * @retval Result of the operation: USBD_OK if all operations are OK else USBD_FAIL
  */
static int8_t CDC_Control_FS(uint8_t cmd, uint8_t* pbuf, uint16_t length)
{
  /* USER CODE BEGIN 5 */
  switch(cmd)
 80089b8:	2820      	cmp	r0, #32
 80089ba:	d003      	beq.n	80089c4 <CDC_Control_FS+0xc>
 80089bc:	2821      	cmp	r0, #33	@ 0x21
 80089be:	d00b      	beq.n	80089d8 <CDC_Control_FS+0x20>
    break;
  }

  return (USBD_OK);
  /* USER CODE END 5 */
}
 80089c0:	2000      	movs	r0, #0
 80089c2:	4770      	bx	lr
    	LineCoding.bitrate = (uint32_t)(pbuf[0] | (pbuf[1] << 8) | (pbuf[2] << 16) | (pbuf[3] << 24));
 80089c4:	680a      	ldr	r2, [r1, #0]
 80089c6:	4b0d      	ldr	r3, [pc, #52]	@ (80089fc <CDC_Control_FS+0x44>)
 80089c8:	601a      	str	r2, [r3, #0]
		LineCoding.format = pbuf[4];
 80089ca:	790a      	ldrb	r2, [r1, #4]
 80089cc:	711a      	strb	r2, [r3, #4]
		LineCoding.paritytype = pbuf[5];
 80089ce:	794a      	ldrb	r2, [r1, #5]
 80089d0:	715a      	strb	r2, [r3, #5]
		LineCoding.datatype = pbuf[6];
 80089d2:	798a      	ldrb	r2, [r1, #6]
 80089d4:	719a      	strb	r2, [r3, #6]
    break;
 80089d6:	e7f3      	b.n	80089c0 <CDC_Control_FS+0x8>
		pbuf[0] = (uint8_t)(LineCoding.bitrate);
 80089d8:	4b08      	ldr	r3, [pc, #32]	@ (80089fc <CDC_Control_FS+0x44>)
 80089da:	681a      	ldr	r2, [r3, #0]
 80089dc:	700a      	strb	r2, [r1, #0]
		pbuf[1] = (uint8_t)(LineCoding.bitrate >> 8);
 80089de:	681a      	ldr	r2, [r3, #0]
 80089e0:	0a12      	lsrs	r2, r2, #8
 80089e2:	704a      	strb	r2, [r1, #1]
		pbuf[2] = (uint8_t)(LineCoding.bitrate >> 16);
 80089e4:	885a      	ldrh	r2, [r3, #2]
 80089e6:	708a      	strb	r2, [r1, #2]
		pbuf[3] = (uint8_t)(LineCoding.bitrate >> 24);
 80089e8:	78da      	ldrb	r2, [r3, #3]
 80089ea:	70ca      	strb	r2, [r1, #3]
		pbuf[4] = LineCoding.format;
 80089ec:	791a      	ldrb	r2, [r3, #4]
 80089ee:	710a      	strb	r2, [r1, #4]
		pbuf[5] = LineCoding.paritytype;
 80089f0:	795a      	ldrb	r2, [r3, #5]
 80089f2:	714a      	strb	r2, [r1, #5]
		pbuf[6] = LineCoding.datatype;
 80089f4:	799b      	ldrb	r3, [r3, #6]
 80089f6:	718b      	strb	r3, [r1, #6]
    break;
 80089f8:	e7e2      	b.n	80089c0 <CDC_Control_FS+0x8>
 80089fa:	bf00      	nop
 80089fc:	20000198 	.word	0x20000198

08008a00 <CDC_Receive_FS>:
  */
static int8_t CDC_Receive_FS(uint8_t* Buf, uint32_t *Len)
{
  /* USER CODE BEGIN 6 */

	if (MyPtrRx != NULL) {
 8008a00:	4b07      	ldr	r3, [pc, #28]	@ (8008a20 <CDC_Receive_FS+0x20>)
{
 8008a02:	b510      	push	{r4, lr}
	if (MyPtrRx != NULL) {
 8008a04:	681b      	ldr	r3, [r3, #0]
{
 8008a06:	4604      	mov	r4, r0
	if (MyPtrRx != NULL) {
 8008a08:	b10b      	cbz	r3, 8008a0e <CDC_Receive_FS+0xe>
		MyPtrRx(Buf, *Len);
 8008a0a:	6809      	ldr	r1, [r1, #0]
 8008a0c:	4798      	blx	r3
	}
	USBD_CDC_SetRxBuffer(&hUsbDeviceFS, &Buf[0]);
 8008a0e:	4621      	mov	r1, r4
 8008a10:	4804      	ldr	r0, [pc, #16]	@ (8008a24 <CDC_Receive_FS+0x24>)
 8008a12:	f7ff fbc1 	bl	8008198 <USBD_CDC_SetRxBuffer>
	USBD_CDC_ReceivePacket(&hUsbDeviceFS);
 8008a16:	4803      	ldr	r0, [pc, #12]	@ (8008a24 <CDC_Receive_FS+0x24>)
 8008a18:	f7ff fbdd 	bl	80081d6 <USBD_CDC_ReceivePacket>
	return (USBD_OK);
  /* USER CODE END 6 */
}
 8008a1c:	2000      	movs	r0, #0
 8008a1e:	bd10      	pop	{r4, pc}
 8008a20:	20001654 	.word	0x20001654
 8008a24:	20001390 	.word	0x20001390

08008a28 <CDC_Init_FS>:
{
 8008a28:	b508      	push	{r3, lr}
  USBD_CDC_SetTxBuffer(&hUsbDeviceFS, UserTxBufferFS, 0);
 8008a2a:	2200      	movs	r2, #0
 8008a2c:	4904      	ldr	r1, [pc, #16]	@ (8008a40 <CDC_Init_FS+0x18>)
 8008a2e:	4805      	ldr	r0, [pc, #20]	@ (8008a44 <CDC_Init_FS+0x1c>)
 8008a30:	f7ff fbaa 	bl	8008188 <USBD_CDC_SetTxBuffer>
  USBD_CDC_SetRxBuffer(&hUsbDeviceFS, UserRxBufferFS);
 8008a34:	4904      	ldr	r1, [pc, #16]	@ (8008a48 <CDC_Init_FS+0x20>)
 8008a36:	4803      	ldr	r0, [pc, #12]	@ (8008a44 <CDC_Init_FS+0x1c>)
 8008a38:	f7ff fbae 	bl	8008198 <USBD_CDC_SetRxBuffer>
}
 8008a3c:	2000      	movs	r0, #0
 8008a3e:	bd08      	pop	{r3, pc}
 8008a40:	20001658 	.word	0x20001658
 8008a44:	20001390 	.word	0x20001390
 8008a48:	20001a58 	.word	0x20001a58

08008a4c <CDC_Transmit_FS>:
  * @param  Buf: Buffer of data to be sent
  * @param  Len: Number of data to be sent (in bytes)
  * @retval USBD_OK if all operations are OK else USBD_FAIL or USBD_BUSY
  */
uint8_t CDC_Transmit_FS(uint8_t* Buf, uint16_t Len)
{
 8008a4c:	b510      	push	{r4, lr}
  uint8_t result = USBD_OK;
  /* USER CODE BEGIN 7 */
  USBD_CDC_HandleTypeDef *hcdc = (USBD_CDC_HandleTypeDef*)hUsbDeviceFS.pClassData;
 8008a4e:	4c09      	ldr	r4, [pc, #36]	@ (8008a74 <CDC_Transmit_FS+0x28>)
{
 8008a50:	460a      	mov	r2, r1
  USBD_CDC_HandleTypeDef *hcdc = (USBD_CDC_HandleTypeDef*)hUsbDeviceFS.pClassData;
 8008a52:	f8d4 32b8 	ldr.w	r3, [r4, #696]	@ 0x2b8
  if (hcdc->TxState != 0){
 8008a56:	f8d3 3214 	ldr.w	r3, [r3, #532]	@ 0x214
 8008a5a:	b943      	cbnz	r3, 8008a6e <CDC_Transmit_FS+0x22>
    return USBD_BUSY;
  }
  USBD_CDC_SetTxBuffer(&hUsbDeviceFS, Buf, Len);
 8008a5c:	4601      	mov	r1, r0
 8008a5e:	4620      	mov	r0, r4
 8008a60:	f7ff fb92 	bl	8008188 <USBD_CDC_SetTxBuffer>
  result = USBD_CDC_TransmitPacket(&hUsbDeviceFS);
 8008a64:	4620      	mov	r0, r4
  /* USER CODE END 7 */
  return result;
}
 8008a66:	e8bd 4010 	ldmia.w	sp!, {r4, lr}
  result = USBD_CDC_TransmitPacket(&hUsbDeviceFS);
 8008a6a:	f7ff bb9b 	b.w	80081a4 <USBD_CDC_TransmitPacket>
}
 8008a6e:	2001      	movs	r0, #1
 8008a70:	bd10      	pop	{r4, pc}
 8008a72:	bf00      	nop
 8008a74:	20001390 	.word	0x20001390

08008a78 <CDC_Attach_Rx>:

/* USER CODE BEGIN PRIVATE_FUNCTIONS_IMPLEMENTATION */
void CDC_Attach_Rx(void(*PtrRx)(uint8_t *buf, uint32_t Len)){
	MyPtrRx = PtrRx;
 8008a78:	4b01      	ldr	r3, [pc, #4]	@ (8008a80 <CDC_Attach_Rx+0x8>)
 8008a7a:	6018      	str	r0, [r3, #0]
}
 8008a7c:	4770      	bx	lr
 8008a7e:	bf00      	nop
 8008a80:	20001654 	.word	0x20001654

08008a84 <USBD_FS_DeviceDescriptor>:
  * @retval Pointer to descriptor buffer
  */
uint8_t * USBD_FS_DeviceDescriptor(USBD_SpeedTypeDef speed, uint16_t *length)
{
  UNUSED(speed);
  *length = sizeof(USBD_FS_DeviceDesc);
 8008a84:	2312      	movs	r3, #18
  return USBD_FS_DeviceDesc;
}
 8008a86:	4801      	ldr	r0, [pc, #4]	@ (8008a8c <USBD_FS_DeviceDescriptor+0x8>)
  *length = sizeof(USBD_FS_DeviceDesc);
 8008a88:	800b      	strh	r3, [r1, #0]
}
 8008a8a:	4770      	bx	lr
 8008a8c:	200001c0 	.word	0x200001c0

08008a90 <USBD_FS_LangIDStrDescriptor>:
  * @retval Pointer to descriptor buffer
  */
uint8_t * USBD_FS_LangIDStrDescriptor(USBD_SpeedTypeDef speed, uint16_t *length)
{
  UNUSED(speed);
  *length = sizeof(USBD_LangIDDesc);
 8008a90:	2304      	movs	r3, #4
  return USBD_LangIDDesc;
}
 8008a92:	4801      	ldr	r0, [pc, #4]	@ (8008a98 <USBD_FS_LangIDStrDescriptor+0x8>)
  *length = sizeof(USBD_LangIDDesc);
 8008a94:	800b      	strh	r3, [r1, #0]
}
 8008a96:	4770      	bx	lr
 8008a98:	200001bc 	.word	0x200001bc

08008a9c <IntToUnicode>:
  * @param  pbuf: pointer to the buffer
  * @param  len: buffer length
  * @retval None
  */
static void IntToUnicode(uint32_t value, uint8_t * pbuf, uint8_t len)
{
 8008a9c:	2300      	movs	r3, #0
 8008a9e:	b570      	push	{r4, r5, r6, lr}
      pbuf[2 * idx] = (value >> 28) + 'A' - 10;
    }

    value = value << 4;

    pbuf[2 * idx + 1] = 0;
 8008aa0:	461e      	mov	r6, r3
 8008aa2:	1c4d      	adds	r5, r1, #1
      pbuf[2 * idx] = (value >> 28) + '0';
 8008aa4:	0f04      	lsrs	r4, r0, #28
    if (((value >> 28)) < 0xA)
 8008aa6:	f1b0 4f20 	cmp.w	r0, #2684354560	@ 0xa0000000
      pbuf[2 * idx] = (value >> 28) + '0';
 8008aaa:	bf34      	ite	cc
 8008aac:	3430      	addcc	r4, #48	@ 0x30
      pbuf[2 * idx] = (value >> 28) + 'A' - 10;
 8008aae:	3437      	addcs	r4, #55	@ 0x37
      pbuf[2 * idx] = (value >> 28) + '0';
 8008ab0:	f801 4013 	strb.w	r4, [r1, r3, lsl #1]
    pbuf[2 * idx + 1] = 0;
 8008ab4:	f805 6013 	strb.w	r6, [r5, r3, lsl #1]
  for (idx = 0; idx < len; idx++)
 8008ab8:	3301      	adds	r3, #1
 8008aba:	b2dc      	uxtb	r4, r3
 8008abc:	42a2      	cmp	r2, r4
    value = value << 4;
 8008abe:	ea4f 1000 	mov.w	r0, r0, lsl #4
  for (idx = 0; idx < len; idx++)
 8008ac2:	d8ef      	bhi.n	8008aa4 <IntToUnicode+0x8>
  }
}
 8008ac4:	bd70      	pop	{r4, r5, r6, pc}
	...

08008ac8 <USBD_FS_SerialStrDescriptor>:
  *length = USB_SIZ_STRING_SERIAL;
 8008ac8:	231a      	movs	r3, #26
{
 8008aca:	b510      	push	{r4, lr}
  *length = USB_SIZ_STRING_SERIAL;
 8008acc:	800b      	strh	r3, [r1, #0]
  deviceserial0 = *(uint32_t *) DEVICE_ID1;
 8008ace:	4b0a      	ldr	r3, [pc, #40]	@ (8008af8 <USBD_FS_SerialStrDescriptor+0x30>)
 8008ad0:	f8d3 07e8 	ldr.w	r0, [r3, #2024]	@ 0x7e8
  deviceserial0 += deviceserial2;
 8008ad4:	f8d3 27f0 	ldr.w	r2, [r3, #2032]	@ 0x7f0
  if (deviceserial0 != 0)
 8008ad8:	1880      	adds	r0, r0, r2
 8008ada:	d00a      	beq.n	8008af2 <USBD_FS_SerialStrDescriptor+0x2a>
  deviceserial1 = *(uint32_t *) DEVICE_ID2;
 8008adc:	f8d3 47ec 	ldr.w	r4, [r3, #2028]	@ 0x7ec
    IntToUnicode(deviceserial0, &USBD_StringSerial[2], 8);
 8008ae0:	4906      	ldr	r1, [pc, #24]	@ (8008afc <USBD_FS_SerialStrDescriptor+0x34>)
 8008ae2:	2208      	movs	r2, #8
 8008ae4:	f7ff ffda 	bl	8008a9c <IntToUnicode>
    IntToUnicode(deviceserial1, &USBD_StringSerial[18], 4);
 8008ae8:	2204      	movs	r2, #4
 8008aea:	4620      	mov	r0, r4
 8008aec:	3110      	adds	r1, #16
 8008aee:	f7ff ffd5 	bl	8008a9c <IntToUnicode>
}
 8008af2:	4803      	ldr	r0, [pc, #12]	@ (8008b00 <USBD_FS_SerialStrDescriptor+0x38>)
 8008af4:	bd10      	pop	{r4, pc}
 8008af6:	bf00      	nop
 8008af8:	1ffff000 	.word	0x1ffff000
 8008afc:	200001a2 	.word	0x200001a2
 8008b00:	200001a0 	.word	0x200001a0

08008b04 <USBD_FS_ManufacturerStrDescriptor>:
{
 8008b04:	b508      	push	{r3, lr}
 8008b06:	460a      	mov	r2, r1
  USBD_GetString((uint8_t *)USBD_MANUFACTURER_STRING, USBD_StrDesc, length);
 8008b08:	4802      	ldr	r0, [pc, #8]	@ (8008b14 <USBD_FS_ManufacturerStrDescriptor+0x10>)
 8008b0a:	4903      	ldr	r1, [pc, #12]	@ (8008b18 <USBD_FS_ManufacturerStrDescriptor+0x14>)
 8008b0c:	f7ff fece 	bl	80088ac <USBD_GetString>
}
 8008b10:	4801      	ldr	r0, [pc, #4]	@ (8008b18 <USBD_FS_ManufacturerStrDescriptor+0x14>)
 8008b12:	bd08      	pop	{r3, pc}
 8008b14:	08009be3 	.word	0x08009be3
 8008b18:	20001e58 	.word	0x20001e58

08008b1c <USBD_FS_ProductStrDescriptor>:
{
 8008b1c:	b508      	push	{r3, lr}
 8008b1e:	460a      	mov	r2, r1
    USBD_GetString((uint8_t *)USBD_PRODUCT_STRING_FS, USBD_StrDesc, length);
 8008b20:	4802      	ldr	r0, [pc, #8]	@ (8008b2c <USBD_FS_ProductStrDescriptor+0x10>)
 8008b22:	4903      	ldr	r1, [pc, #12]	@ (8008b30 <USBD_FS_ProductStrDescriptor+0x14>)
 8008b24:	f7ff fec2 	bl	80088ac <USBD_GetString>
}
 8008b28:	4801      	ldr	r0, [pc, #4]	@ (8008b30 <USBD_FS_ProductStrDescriptor+0x14>)
 8008b2a:	bd08      	pop	{r3, pc}
 8008b2c:	08009bf6 	.word	0x08009bf6
 8008b30:	20001e58 	.word	0x20001e58

08008b34 <USBD_FS_ConfigStrDescriptor>:
{
 8008b34:	b508      	push	{r3, lr}
 8008b36:	460a      	mov	r2, r1
    USBD_GetString((uint8_t *)USBD_CONFIGURATION_STRING_FS, USBD_StrDesc, length);
 8008b38:	4802      	ldr	r0, [pc, #8]	@ (8008b44 <USBD_FS_ConfigStrDescriptor+0x10>)
 8008b3a:	4903      	ldr	r1, [pc, #12]	@ (8008b48 <USBD_FS_ConfigStrDescriptor+0x14>)
 8008b3c:	f7ff feb6 	bl	80088ac <USBD_GetString>
}
 8008b40:	4801      	ldr	r0, [pc, #4]	@ (8008b48 <USBD_FS_ConfigStrDescriptor+0x14>)
 8008b42:	bd08      	pop	{r3, pc}
 8008b44:	08009c0c 	.word	0x08009c0c
 8008b48:	20001e58 	.word	0x20001e58

08008b4c <USBD_FS_InterfaceStrDescriptor>:
{
 8008b4c:	b508      	push	{r3, lr}
 8008b4e:	460a      	mov	r2, r1
    USBD_GetString((uint8_t *)USBD_INTERFACE_STRING_FS, USBD_StrDesc, length);
 8008b50:	4802      	ldr	r0, [pc, #8]	@ (8008b5c <USBD_FS_InterfaceStrDescriptor+0x10>)
 8008b52:	4903      	ldr	r1, [pc, #12]	@ (8008b60 <USBD_FS_InterfaceStrDescriptor+0x14>)
 8008b54:	f7ff feaa 	bl	80088ac <USBD_GetString>
}
 8008b58:	4801      	ldr	r0, [pc, #4]	@ (8008b60 <USBD_FS_InterfaceStrDescriptor+0x14>)
 8008b5a:	bd08      	pop	{r3, pc}
 8008b5c:	08009c17 	.word	0x08009c17
 8008b60:	20001e58 	.word	0x20001e58

08008b64 <USBD_Get_USB_Status>:
  */
USBD_StatusTypeDef USBD_Get_USB_Status(HAL_StatusTypeDef hal_status)
{
  USBD_StatusTypeDef usb_status = USBD_OK;

  switch (hal_status)
 8008b64:	b118      	cbz	r0, 8008b6e <USBD_Get_USB_Status+0xa>
 8008b66:	2802      	cmp	r0, #2
 8008b68:	bf0c      	ite	eq
 8008b6a:	2001      	moveq	r0, #1
 8008b6c:	2002      	movne	r0, #2
    default :
      usb_status = USBD_FAIL;
    break;
  }
  return usb_status;
}
 8008b6e:	4770      	bx	lr

08008b70 <HAL_PCD_MspInit>:
{
 8008b70:	b507      	push	{r0, r1, r2, lr}
  if(pcdHandle->Instance==USB)
 8008b72:	4b12      	ldr	r3, [pc, #72]	@ (8008bbc <HAL_PCD_MspInit+0x4c>)
 8008b74:	6802      	ldr	r2, [r0, #0]
 8008b76:	429a      	cmp	r2, r3
 8008b78:	d11d      	bne.n	8008bb6 <HAL_PCD_MspInit+0x46>
    __HAL_RCC_USB_CLK_ENABLE();
 8008b7a:	f503 33da 	add.w	r3, r3, #111616	@ 0x1b400
 8008b7e:	69da      	ldr	r2, [r3, #28]
    HAL_NVIC_SetPriority(USB_HP_CAN1_TX_IRQn, 0, 0);
 8008b80:	2013      	movs	r0, #19
    __HAL_RCC_USB_CLK_ENABLE();
 8008b82:	f442 0200 	orr.w	r2, r2, #8388608	@ 0x800000
 8008b86:	61da      	str	r2, [r3, #28]
    HAL_NVIC_SetPriority(USB_HP_CAN1_TX_IRQn, 0, 0);
 8008b88:	2200      	movs	r2, #0
    __HAL_RCC_USB_CLK_ENABLE();
 8008b8a:	69db      	ldr	r3, [r3, #28]
    HAL_NVIC_SetPriority(USB_HP_CAN1_TX_IRQn, 0, 0);
 8008b8c:	4611      	mov	r1, r2
    __HAL_RCC_USB_CLK_ENABLE();
 8008b8e:	f403 0300 	and.w	r3, r3, #8388608	@ 0x800000
 8008b92:	9301      	str	r3, [sp, #4]
 8008b94:	9b01      	ldr	r3, [sp, #4]
    HAL_NVIC_SetPriority(USB_HP_CAN1_TX_IRQn, 0, 0);
 8008b96:	f7fa fe3d 	bl	8003814 <HAL_NVIC_SetPriority>
    HAL_NVIC_EnableIRQ(USB_HP_CAN1_TX_IRQn);
 8008b9a:	2013      	movs	r0, #19
 8008b9c:	f7fa fe6a 	bl	8003874 <HAL_NVIC_EnableIRQ>
    HAL_NVIC_SetPriority(USB_LP_CAN1_RX0_IRQn, 0, 0);
 8008ba0:	2200      	movs	r2, #0
 8008ba2:	2014      	movs	r0, #20
 8008ba4:	4611      	mov	r1, r2
 8008ba6:	f7fa fe35 	bl	8003814 <HAL_NVIC_SetPriority>
    HAL_NVIC_EnableIRQ(USB_LP_CAN1_RX0_IRQn);
 8008baa:	2014      	movs	r0, #20
}
 8008bac:	b003      	add	sp, #12
 8008bae:	f85d eb04 	ldr.w	lr, [sp], #4
    HAL_NVIC_EnableIRQ(USB_LP_CAN1_RX0_IRQn);
 8008bb2:	f7fa be5f 	b.w	8003874 <HAL_NVIC_EnableIRQ>
}
 8008bb6:	b003      	add	sp, #12
 8008bb8:	bd00      	pop	{pc}
 8008bba:	bf00      	nop
 8008bbc:	40005c00 	.word	0x40005c00

08008bc0 <HAL_PCD_SetupStageCallback>:
  USBD_LL_SetupStage((USBD_HandleTypeDef*)hpcd->pData, (uint8_t *)hpcd->Setup);
 8008bc0:	f500 7126 	add.w	r1, r0, #664	@ 0x298
 8008bc4:	f8d0 02d4 	ldr.w	r0, [r0, #724]	@ 0x2d4
 8008bc8:	f7ff bb4d 	b.w	8008266 <USBD_LL_SetupStage>

08008bcc <HAL_PCD_DataOutStageCallback>:
  USBD_LL_DataOutStage((USBD_HandleTypeDef*)hpcd->pData, epnum, hpcd->OUT_ep[epnum].xfer_buff);
 8008bcc:	2328      	movs	r3, #40	@ 0x28
 8008bce:	fb03 0301 	mla	r3, r3, r1, r0
 8008bd2:	f8d0 02d4 	ldr.w	r0, [r0, #724]	@ 0x2d4
 8008bd6:	f8d3 2164 	ldr.w	r2, [r3, #356]	@ 0x164
 8008bda:	f7ff bb71 	b.w	80082c0 <USBD_LL_DataOutStage>

08008bde <HAL_PCD_DataInStageCallback>:
  USBD_LL_DataInStage((USBD_HandleTypeDef*)hpcd->pData, epnum, hpcd->IN_ep[epnum].xfer_buff);
 8008bde:	2328      	movs	r3, #40	@ 0x28
 8008be0:	fb03 0301 	mla	r3, r3, r1, r0
 8008be4:	f8d0 02d4 	ldr.w	r0, [r0, #724]	@ 0x2d4
 8008be8:	6a5a      	ldr	r2, [r3, #36]	@ 0x24
 8008bea:	f7ff bba1 	b.w	8008330 <USBD_LL_DataInStage>

08008bee <HAL_PCD_SOFCallback>:
  USBD_LL_SOF((USBD_HandleTypeDef*)hpcd->pData);
 8008bee:	f8d0 02d4 	ldr.w	r0, [r0, #724]	@ 0x2d4
 8008bf2:	f7ff bc36 	b.w	8008462 <USBD_LL_SOF>

08008bf6 <HAL_PCD_ResetCallback>:
{
 8008bf6:	b510      	push	{r4, lr}
  if ( hpcd->Init.speed != PCD_SPEED_FULL)
 8008bf8:	7983      	ldrb	r3, [r0, #6]
{
 8008bfa:	4604      	mov	r4, r0
  if ( hpcd->Init.speed != PCD_SPEED_FULL)
 8008bfc:	2b02      	cmp	r3, #2
 8008bfe:	d001      	beq.n	8008c04 <HAL_PCD_ResetCallback+0xe>
    Error_Handler();
 8008c00:	f7f9 fcaa 	bl	8002558 <Error_Handler>
  USBD_LL_SetSpeed((USBD_HandleTypeDef*)hpcd->pData, speed);
 8008c04:	f8d4 02d4 	ldr.w	r0, [r4, #724]	@ 0x2d4
 8008c08:	2101      	movs	r1, #1
 8008c0a:	f7ff fc14 	bl	8008436 <USBD_LL_SetSpeed>
  USBD_LL_Reset((USBD_HandleTypeDef*)hpcd->pData);
 8008c0e:	f8d4 02d4 	ldr.w	r0, [r4, #724]	@ 0x2d4
}
 8008c12:	e8bd 4010 	ldmia.w	sp!, {r4, lr}
  USBD_LL_Reset((USBD_HandleTypeDef*)hpcd->pData);
 8008c16:	f7ff bbe7 	b.w	80083e8 <USBD_LL_Reset>
	...

08008c1c <HAL_PCD_SuspendCallback>:
{
 8008c1c:	b510      	push	{r4, lr}
 8008c1e:	4604      	mov	r4, r0
  USBD_LL_Suspend((USBD_HandleTypeDef*)hpcd->pData);
 8008c20:	f8d0 02d4 	ldr.w	r0, [r0, #724]	@ 0x2d4
 8008c24:	f7ff fc0a 	bl	800843c <USBD_LL_Suspend>
  if (hpcd->Init.low_power_enable)
 8008c28:	7aa3      	ldrb	r3, [r4, #10]
 8008c2a:	b123      	cbz	r3, 8008c36 <HAL_PCD_SuspendCallback+0x1a>
    SCB->SCR |= (uint32_t)((uint32_t)(SCB_SCR_SLEEPDEEP_Msk | SCB_SCR_SLEEPONEXIT_Msk));
 8008c2c:	4a02      	ldr	r2, [pc, #8]	@ (8008c38 <HAL_PCD_SuspendCallback+0x1c>)
 8008c2e:	6913      	ldr	r3, [r2, #16]
 8008c30:	f043 0306 	orr.w	r3, r3, #6
 8008c34:	6113      	str	r3, [r2, #16]
}
 8008c36:	bd10      	pop	{r4, pc}
 8008c38:	e000ed00 	.word	0xe000ed00

08008c3c <HAL_PCD_ResumeCallback>:
  USBD_LL_Resume((USBD_HandleTypeDef*)hpcd->pData);
 8008c3c:	f8d0 02d4 	ldr.w	r0, [r0, #724]	@ 0x2d4
 8008c40:	f7ff bc05 	b.w	800844e <USBD_LL_Resume>

08008c44 <USBD_LL_Init>:
{
 8008c44:	b510      	push	{r4, lr}
  hpcd_USB_FS.Instance = USB;
 8008c46:	4b1d      	ldr	r3, [pc, #116]	@ (8008cbc <USBD_LL_Init+0x78>)
{
 8008c48:	4604      	mov	r4, r0
  hpcd_USB_FS.pData = pdev;
 8008c4a:	481d      	ldr	r0, [pc, #116]	@ (8008cc0 <USBD_LL_Init+0x7c>)
  hpcd_USB_FS.Instance = USB;
 8008c4c:	6003      	str	r3, [r0, #0]
  hpcd_USB_FS.Init.dev_endpoints = 8;
 8008c4e:	2308      	movs	r3, #8
 8008c50:	7103      	strb	r3, [r0, #4]
  hpcd_USB_FS.Init.speed = PCD_SPEED_FULL;
 8008c52:	2302      	movs	r3, #2
 8008c54:	7183      	strb	r3, [r0, #6]
  hpcd_USB_FS.Init.low_power_enable = DISABLE;
 8008c56:	2300      	movs	r3, #0
  hpcd_USB_FS.pData = pdev;
 8008c58:	f8c0 42d4 	str.w	r4, [r0, #724]	@ 0x2d4
  pdev->pData = &hpcd_USB_FS;
 8008c5c:	f8c4 02c0 	str.w	r0, [r4, #704]	@ 0x2c0
  hpcd_USB_FS.Init.low_power_enable = DISABLE;
 8008c60:	8143      	strh	r3, [r0, #10]
  hpcd_USB_FS.Init.battery_charging_enable = DISABLE;
 8008c62:	7303      	strb	r3, [r0, #12]
  if (HAL_PCD_Init(&hpcd_USB_FS) != HAL_OK)
 8008c64:	f7fc fc3f 	bl	80054e6 <HAL_PCD_Init>
 8008c68:	b108      	cbz	r0, 8008c6e <USBD_LL_Init+0x2a>
    Error_Handler( );
 8008c6a:	f7f9 fc75 	bl	8002558 <Error_Handler>
  HAL_PCDEx_PMAConfig((PCD_HandleTypeDef*)pdev->pData , 0x00 , PCD_SNG_BUF, 0x18);
 8008c6e:	2200      	movs	r2, #0
 8008c70:	2318      	movs	r3, #24
 8008c72:	4611      	mov	r1, r2
 8008c74:	f8d4 02c0 	ldr.w	r0, [r4, #704]	@ 0x2c0
 8008c78:	f7fd fa95 	bl	80061a6 <HAL_PCDEx_PMAConfig>
  HAL_PCDEx_PMAConfig((PCD_HandleTypeDef*)pdev->pData , 0x80 , PCD_SNG_BUF, 0x58);
 8008c7c:	2358      	movs	r3, #88	@ 0x58
 8008c7e:	2200      	movs	r2, #0
 8008c80:	2180      	movs	r1, #128	@ 0x80
 8008c82:	f8d4 02c0 	ldr.w	r0, [r4, #704]	@ 0x2c0
 8008c86:	f7fd fa8e 	bl	80061a6 <HAL_PCDEx_PMAConfig>
  HAL_PCDEx_PMAConfig((PCD_HandleTypeDef*)pdev->pData , 0x81 , PCD_SNG_BUF, 0xC0);
 8008c8a:	23c0      	movs	r3, #192	@ 0xc0
 8008c8c:	2200      	movs	r2, #0
 8008c8e:	2181      	movs	r1, #129	@ 0x81
 8008c90:	f8d4 02c0 	ldr.w	r0, [r4, #704]	@ 0x2c0
 8008c94:	f7fd fa87 	bl	80061a6 <HAL_PCDEx_PMAConfig>
  HAL_PCDEx_PMAConfig((PCD_HandleTypeDef*)pdev->pData , 0x01 , PCD_SNG_BUF, 0x110);
 8008c98:	f44f 7388 	mov.w	r3, #272	@ 0x110
 8008c9c:	2200      	movs	r2, #0
 8008c9e:	2101      	movs	r1, #1
 8008ca0:	f8d4 02c0 	ldr.w	r0, [r4, #704]	@ 0x2c0
 8008ca4:	f7fd fa7f 	bl	80061a6 <HAL_PCDEx_PMAConfig>
  HAL_PCDEx_PMAConfig((PCD_HandleTypeDef*)pdev->pData , 0x82 , PCD_SNG_BUF, 0x100);
 8008ca8:	f44f 7380 	mov.w	r3, #256	@ 0x100
 8008cac:	2200      	movs	r2, #0
 8008cae:	2182      	movs	r1, #130	@ 0x82
 8008cb0:	f8d4 02c0 	ldr.w	r0, [r4, #704]	@ 0x2c0
 8008cb4:	f7fd fa77 	bl	80061a6 <HAL_PCDEx_PMAConfig>
}
 8008cb8:	2000      	movs	r0, #0
 8008cba:	bd10      	pop	{r4, pc}
 8008cbc:	40005c00 	.word	0x40005c00
 8008cc0:	20002278 	.word	0x20002278

08008cc4 <USBD_LL_Start>:
{
 8008cc4:	b508      	push	{r3, lr}
  hal_status = HAL_PCD_Start(pdev->pData);
 8008cc6:	f8d0 02c0 	ldr.w	r0, [r0, #704]	@ 0x2c0
 8008cca:	f7fc fc6f 	bl	80055ac <HAL_PCD_Start>
}
 8008cce:	e8bd 4008 	ldmia.w	sp!, {r3, lr}
  usb_status =  USBD_Get_USB_Status(hal_status);
 8008cd2:	f7ff bf47 	b.w	8008b64 <USBD_Get_USB_Status>

08008cd6 <USBD_LL_OpenEP>:
{
 8008cd6:	b510      	push	{r4, lr}
 8008cd8:	4614      	mov	r4, r2
  hal_status = HAL_PCD_EP_Open(pdev->pData, ep_addr, ep_mps, ep_type);
 8008cda:	f8d0 02c0 	ldr.w	r0, [r0, #704]	@ 0x2c0
{
 8008cde:	461a      	mov	r2, r3
  hal_status = HAL_PCD_EP_Open(pdev->pData, ep_addr, ep_mps, ep_type);
 8008ce0:	4623      	mov	r3, r4
 8008ce2:	f7fd f969 	bl	8005fb8 <HAL_PCD_EP_Open>
}
 8008ce6:	e8bd 4010 	ldmia.w	sp!, {r4, lr}
  usb_status =  USBD_Get_USB_Status(hal_status);
 8008cea:	f7ff bf3b 	b.w	8008b64 <USBD_Get_USB_Status>

08008cee <USBD_LL_CloseEP>:
{
 8008cee:	b508      	push	{r3, lr}
  hal_status = HAL_PCD_EP_Close(pdev->pData, ep_addr);
 8008cf0:	f8d0 02c0 	ldr.w	r0, [r0, #704]	@ 0x2c0
 8008cf4:	f7fd f990 	bl	8006018 <HAL_PCD_EP_Close>
}
 8008cf8:	e8bd 4008 	ldmia.w	sp!, {r3, lr}
  usb_status =  USBD_Get_USB_Status(hal_status);
 8008cfc:	f7ff bf32 	b.w	8008b64 <USBD_Get_USB_Status>

08008d00 <USBD_LL_StallEP>:
{
 8008d00:	b508      	push	{r3, lr}
  hal_status = HAL_PCD_EP_SetStall(pdev->pData, ep_addr);
 8008d02:	f8d0 02c0 	ldr.w	r0, [r0, #704]	@ 0x2c0
 8008d06:	f7fd f9e6 	bl	80060d6 <HAL_PCD_EP_SetStall>
}
 8008d0a:	e8bd 4008 	ldmia.w	sp!, {r3, lr}
  usb_status =  USBD_Get_USB_Status(hal_status);
 8008d0e:	f7ff bf29 	b.w	8008b64 <USBD_Get_USB_Status>

08008d12 <USBD_LL_ClearStallEP>:
{
 8008d12:	b508      	push	{r3, lr}
  hal_status = HAL_PCD_EP_ClrStall(pdev->pData, ep_addr);
 8008d14:	f8d0 02c0 	ldr.w	r0, [r0, #704]	@ 0x2c0
 8008d18:	f7fd fa13 	bl	8006142 <HAL_PCD_EP_ClrStall>
}
 8008d1c:	e8bd 4008 	ldmia.w	sp!, {r3, lr}
  usb_status =  USBD_Get_USB_Status(hal_status);
 8008d20:	f7ff bf20 	b.w	8008b64 <USBD_Get_USB_Status>

08008d24 <USBD_LL_IsStallEP>:
  PCD_HandleTypeDef *hpcd = (PCD_HandleTypeDef*) pdev->pData;
 8008d24:	2228      	movs	r2, #40	@ 0x28
  if((ep_addr & 0x80) == 0x80)
 8008d26:	f011 0f80 	tst.w	r1, #128	@ 0x80
  PCD_HandleTypeDef *hpcd = (PCD_HandleTypeDef*) pdev->pData;
 8008d2a:	f8d0 32c0 	ldr.w	r3, [r0, #704]	@ 0x2c0
    return hpcd->IN_ep[ep_addr & 0x7F].is_stall;
 8008d2e:	bf1b      	ittet	ne
 8008d30:	f001 017f 	andne.w	r1, r1, #127	@ 0x7f
 8008d34:	fb02 3301 	mlane	r3, r2, r1, r3
    return hpcd->OUT_ep[ep_addr & 0x7F].is_stall;
 8008d38:	fb02 3301 	mlaeq	r3, r2, r1, r3
    return hpcd->IN_ep[ep_addr & 0x7F].is_stall;
 8008d3c:	7c98      	ldrbne	r0, [r3, #18]
    return hpcd->OUT_ep[ep_addr & 0x7F].is_stall;
 8008d3e:	bf08      	it	eq
 8008d40:	f893 0152 	ldrbeq.w	r0, [r3, #338]	@ 0x152
}
 8008d44:	4770      	bx	lr

08008d46 <USBD_LL_SetUSBAddress>:
{
 8008d46:	b508      	push	{r3, lr}
  hal_status = HAL_PCD_SetAddress(pdev->pData, dev_addr);
 8008d48:	f8d0 02c0 	ldr.w	r0, [r0, #704]	@ 0x2c0
 8008d4c:	f7fc fc47 	bl	80055de <HAL_PCD_SetAddress>
}
 8008d50:	e8bd 4008 	ldmia.w	sp!, {r3, lr}
  usb_status =  USBD_Get_USB_Status(hal_status);
 8008d54:	f7ff bf06 	b.w	8008b64 <USBD_Get_USB_Status>

08008d58 <USBD_LL_Transmit>:
{
 8008d58:	b508      	push	{r3, lr}
  hal_status = HAL_PCD_EP_Transmit(pdev->pData, ep_addr, pbuf, size);
 8008d5a:	f8d0 02c0 	ldr.w	r0, [r0, #704]	@ 0x2c0
 8008d5e:	f7fd f9a2 	bl	80060a6 <HAL_PCD_EP_Transmit>
}
 8008d62:	e8bd 4008 	ldmia.w	sp!, {r3, lr}
  usb_status =  USBD_Get_USB_Status(hal_status);
 8008d66:	f7ff befd 	b.w	8008b64 <USBD_Get_USB_Status>

08008d6a <USBD_LL_PrepareReceive>:
{
 8008d6a:	b508      	push	{r3, lr}
  hal_status = HAL_PCD_EP_Receive(pdev->pData, ep_addr, pbuf, size);
 8008d6c:	f8d0 02c0 	ldr.w	r0, [r0, #704]	@ 0x2c0
 8008d70:	f7fd f97a 	bl	8006068 <HAL_PCD_EP_Receive>
}
 8008d74:	e8bd 4008 	ldmia.w	sp!, {r3, lr}
  usb_status =  USBD_Get_USB_Status(hal_status);
 8008d78:	f7ff bef4 	b.w	8008b64 <USBD_Get_USB_Status>

08008d7c <USBD_LL_GetRxDataSize>:
  return HAL_PCD_EP_GetRxCount((PCD_HandleTypeDef*) pdev->pData, ep_addr);
 8008d7c:	f8d0 02c0 	ldr.w	r0, [r0, #704]	@ 0x2c0
 8008d80:	f7fd b989 	b.w	8006096 <HAL_PCD_EP_GetRxCount>

08008d84 <USBD_static_malloc>:
}
 8008d84:	4800      	ldr	r0, [pc, #0]	@ (8008d88 <USBD_static_malloc+0x4>)
 8008d86:	4770      	bx	lr
 8008d88:	20002058 	.word	0x20002058

08008d8c <USBD_static_free>:
}
 8008d8c:	4770      	bx	lr

08008d8e <HAL_PCDEx_SetConnectionState>:
}
 8008d8e:	4770      	bx	lr

08008d90 <__itoa>:
 8008d90:	1e93      	subs	r3, r2, #2
 8008d92:	2b22      	cmp	r3, #34	@ 0x22
 8008d94:	b510      	push	{r4, lr}
 8008d96:	460c      	mov	r4, r1
 8008d98:	d904      	bls.n	8008da4 <__itoa+0x14>
 8008d9a:	2300      	movs	r3, #0
 8008d9c:	461c      	mov	r4, r3
 8008d9e:	700b      	strb	r3, [r1, #0]
 8008da0:	4620      	mov	r0, r4
 8008da2:	bd10      	pop	{r4, pc}
 8008da4:	2a0a      	cmp	r2, #10
 8008da6:	d109      	bne.n	8008dbc <__itoa+0x2c>
 8008da8:	2800      	cmp	r0, #0
 8008daa:	da07      	bge.n	8008dbc <__itoa+0x2c>
 8008dac:	232d      	movs	r3, #45	@ 0x2d
 8008dae:	700b      	strb	r3, [r1, #0]
 8008db0:	2101      	movs	r1, #1
 8008db2:	4240      	negs	r0, r0
 8008db4:	4421      	add	r1, r4
 8008db6:	f000 f805 	bl	8008dc4 <__utoa>
 8008dba:	e7f1      	b.n	8008da0 <__itoa+0x10>
 8008dbc:	2100      	movs	r1, #0
 8008dbe:	e7f9      	b.n	8008db4 <__itoa+0x24>

08008dc0 <itoa>:
 8008dc0:	f7ff bfe6 	b.w	8008d90 <__itoa>

08008dc4 <__utoa>:
 8008dc4:	b5f0      	push	{r4, r5, r6, r7, lr}
 8008dc6:	b08b      	sub	sp, #44	@ 0x2c
 8008dc8:	4605      	mov	r5, r0
 8008dca:	460b      	mov	r3, r1
 8008dcc:	466e      	mov	r6, sp
 8008dce:	4c1d      	ldr	r4, [pc, #116]	@ (8008e44 <__utoa+0x80>)
 8008dd0:	f104 0c20 	add.w	ip, r4, #32
 8008dd4:	4637      	mov	r7, r6
 8008dd6:	6820      	ldr	r0, [r4, #0]
 8008dd8:	6861      	ldr	r1, [r4, #4]
 8008dda:	3408      	adds	r4, #8
 8008ddc:	c703      	stmia	r7!, {r0, r1}
 8008dde:	4564      	cmp	r4, ip
 8008de0:	463e      	mov	r6, r7
 8008de2:	d1f7      	bne.n	8008dd4 <__utoa+0x10>
 8008de4:	7921      	ldrb	r1, [r4, #4]
 8008de6:	6820      	ldr	r0, [r4, #0]
 8008de8:	7139      	strb	r1, [r7, #4]
 8008dea:	1e91      	subs	r1, r2, #2
 8008dec:	2922      	cmp	r1, #34	@ 0x22
 8008dee:	6038      	str	r0, [r7, #0]
 8008df0:	f04f 0100 	mov.w	r1, #0
 8008df4:	d904      	bls.n	8008e00 <__utoa+0x3c>
 8008df6:	7019      	strb	r1, [r3, #0]
 8008df8:	460b      	mov	r3, r1
 8008dfa:	4618      	mov	r0, r3
 8008dfc:	b00b      	add	sp, #44	@ 0x2c
 8008dfe:	bdf0      	pop	{r4, r5, r6, r7, pc}
 8008e00:	1e58      	subs	r0, r3, #1
 8008e02:	4684      	mov	ip, r0
 8008e04:	fbb5 f7f2 	udiv	r7, r5, r2
 8008e08:	fb02 5617 	mls	r6, r2, r7, r5
 8008e0c:	3628      	adds	r6, #40	@ 0x28
 8008e0e:	446e      	add	r6, sp
 8008e10:	f816 6c28 	ldrb.w	r6, [r6, #-40]
 8008e14:	460c      	mov	r4, r1
 8008e16:	f80c 6f01 	strb.w	r6, [ip, #1]!
 8008e1a:	462e      	mov	r6, r5
 8008e1c:	42b2      	cmp	r2, r6
 8008e1e:	463d      	mov	r5, r7
 8008e20:	f101 0101 	add.w	r1, r1, #1
 8008e24:	d9ee      	bls.n	8008e04 <__utoa+0x40>
 8008e26:	2200      	movs	r2, #0
 8008e28:	545a      	strb	r2, [r3, r1]
 8008e2a:	1919      	adds	r1, r3, r4
 8008e2c:	1aa5      	subs	r5, r4, r2
 8008e2e:	42aa      	cmp	r2, r5
 8008e30:	dae3      	bge.n	8008dfa <__utoa+0x36>
 8008e32:	f810 5f01 	ldrb.w	r5, [r0, #1]!
 8008e36:	780e      	ldrb	r6, [r1, #0]
 8008e38:	3201      	adds	r2, #1
 8008e3a:	7006      	strb	r6, [r0, #0]
 8008e3c:	f801 5901 	strb.w	r5, [r1], #-1
 8008e40:	e7f4      	b.n	8008e2c <__utoa+0x68>
 8008e42:	bf00      	nop
 8008e44:	08009c25 	.word	0x08009c25

08008e48 <sniprintf>:
 8008e48:	b40c      	push	{r2, r3}
 8008e4a:	b530      	push	{r4, r5, lr}
 8008e4c:	4b18      	ldr	r3, [pc, #96]	@ (8008eb0 <sniprintf+0x68>)
 8008e4e:	1e0c      	subs	r4, r1, #0
 8008e50:	681d      	ldr	r5, [r3, #0]
 8008e52:	b09d      	sub	sp, #116	@ 0x74
 8008e54:	da08      	bge.n	8008e68 <sniprintf+0x20>
 8008e56:	238b      	movs	r3, #139	@ 0x8b
 8008e58:	f04f 30ff 	mov.w	r0, #4294967295
 8008e5c:	602b      	str	r3, [r5, #0]
 8008e5e:	b01d      	add	sp, #116	@ 0x74
 8008e60:	e8bd 4030 	ldmia.w	sp!, {r4, r5, lr}
 8008e64:	b002      	add	sp, #8
 8008e66:	4770      	bx	lr
 8008e68:	f44f 7302 	mov.w	r3, #520	@ 0x208
 8008e6c:	f8ad 3014 	strh.w	r3, [sp, #20]
 8008e70:	f04f 0300 	mov.w	r3, #0
 8008e74:	931b      	str	r3, [sp, #108]	@ 0x6c
 8008e76:	bf0c      	ite	eq
 8008e78:	4623      	moveq	r3, r4
 8008e7a:	f104 33ff 	addne.w	r3, r4, #4294967295
 8008e7e:	9304      	str	r3, [sp, #16]
 8008e80:	9307      	str	r3, [sp, #28]
 8008e82:	f64f 73ff 	movw	r3, #65535	@ 0xffff
 8008e86:	9002      	str	r0, [sp, #8]
 8008e88:	9006      	str	r0, [sp, #24]
 8008e8a:	f8ad 3016 	strh.w	r3, [sp, #22]
 8008e8e:	4628      	mov	r0, r5
 8008e90:	ab21      	add	r3, sp, #132	@ 0x84
 8008e92:	9a20      	ldr	r2, [sp, #128]	@ 0x80
 8008e94:	a902      	add	r1, sp, #8
 8008e96:	9301      	str	r3, [sp, #4]
 8008e98:	f000 f9d6 	bl	8009248 <_svfiprintf_r>
 8008e9c:	1c43      	adds	r3, r0, #1
 8008e9e:	bfbc      	itt	lt
 8008ea0:	238b      	movlt	r3, #139	@ 0x8b
 8008ea2:	602b      	strlt	r3, [r5, #0]
 8008ea4:	2c00      	cmp	r4, #0
 8008ea6:	d0da      	beq.n	8008e5e <sniprintf+0x16>
 8008ea8:	2200      	movs	r2, #0
 8008eaa:	9b02      	ldr	r3, [sp, #8]
 8008eac:	701a      	strb	r2, [r3, #0]
 8008eae:	e7d6      	b.n	8008e5e <sniprintf+0x16>
 8008eb0:	200001f0 	.word	0x200001f0

08008eb4 <memset>:
 8008eb4:	4603      	mov	r3, r0
 8008eb6:	4402      	add	r2, r0
 8008eb8:	4293      	cmp	r3, r2
 8008eba:	d100      	bne.n	8008ebe <memset+0xa>
 8008ebc:	4770      	bx	lr
 8008ebe:	f803 1b01 	strb.w	r1, [r3], #1
 8008ec2:	e7f9      	b.n	8008eb8 <memset+0x4>

08008ec4 <strncpy>:
 8008ec4:	4603      	mov	r3, r0
 8008ec6:	b510      	push	{r4, lr}
 8008ec8:	3901      	subs	r1, #1
 8008eca:	b132      	cbz	r2, 8008eda <strncpy+0x16>
 8008ecc:	f811 4f01 	ldrb.w	r4, [r1, #1]!
 8008ed0:	3a01      	subs	r2, #1
 8008ed2:	f803 4b01 	strb.w	r4, [r3], #1
 8008ed6:	2c00      	cmp	r4, #0
 8008ed8:	d1f7      	bne.n	8008eca <strncpy+0x6>
 8008eda:	2100      	movs	r1, #0
 8008edc:	441a      	add	r2, r3
 8008ede:	4293      	cmp	r3, r2
 8008ee0:	d100      	bne.n	8008ee4 <strncpy+0x20>
 8008ee2:	bd10      	pop	{r4, pc}
 8008ee4:	f803 1b01 	strb.w	r1, [r3], #1
 8008ee8:	e7f9      	b.n	8008ede <strncpy+0x1a>

08008eea <strstr>:
 8008eea:	780a      	ldrb	r2, [r1, #0]
 8008eec:	b570      	push	{r4, r5, r6, lr}
 8008eee:	b96a      	cbnz	r2, 8008f0c <strstr+0x22>
 8008ef0:	bd70      	pop	{r4, r5, r6, pc}
 8008ef2:	429a      	cmp	r2, r3
 8008ef4:	d109      	bne.n	8008f0a <strstr+0x20>
 8008ef6:	460c      	mov	r4, r1
 8008ef8:	4605      	mov	r5, r0
 8008efa:	f814 3f01 	ldrb.w	r3, [r4, #1]!
 8008efe:	2b00      	cmp	r3, #0
 8008f00:	d0f6      	beq.n	8008ef0 <strstr+0x6>
 8008f02:	f815 6f01 	ldrb.w	r6, [r5, #1]!
 8008f06:	429e      	cmp	r6, r3
 8008f08:	d0f7      	beq.n	8008efa <strstr+0x10>
 8008f0a:	3001      	adds	r0, #1
 8008f0c:	7803      	ldrb	r3, [r0, #0]
 8008f0e:	2b00      	cmp	r3, #0
 8008f10:	d1ef      	bne.n	8008ef2 <strstr+0x8>
 8008f12:	4618      	mov	r0, r3
 8008f14:	e7ec      	b.n	8008ef0 <strstr+0x6>
	...

08008f18 <__errno>:
 8008f18:	4b01      	ldr	r3, [pc, #4]	@ (8008f20 <__errno+0x8>)
 8008f1a:	6818      	ldr	r0, [r3, #0]
 8008f1c:	4770      	bx	lr
 8008f1e:	bf00      	nop
 8008f20:	200001f0 	.word	0x200001f0

08008f24 <__libc_init_array>:
 8008f24:	b570      	push	{r4, r5, r6, lr}
 8008f26:	2600      	movs	r6, #0
 8008f28:	4d0c      	ldr	r5, [pc, #48]	@ (8008f5c <__libc_init_array+0x38>)
 8008f2a:	4b0d      	ldr	r3, [pc, #52]	@ (8008f60 <__libc_init_array+0x3c>)
 8008f2c:	1b5b      	subs	r3, r3, r5
 8008f2e:	109c      	asrs	r4, r3, #2
 8008f30:	42a6      	cmp	r6, r4
 8008f32:	d109      	bne.n	8008f48 <__libc_init_array+0x24>
 8008f34:	2600      	movs	r6, #0
 8008f36:	f000 fc85 	bl	8009844 <_init>
 8008f3a:	4d0a      	ldr	r5, [pc, #40]	@ (8008f64 <__libc_init_array+0x40>)
 8008f3c:	4b0a      	ldr	r3, [pc, #40]	@ (8008f68 <__libc_init_array+0x44>)
 8008f3e:	1b5b      	subs	r3, r3, r5
 8008f40:	109c      	asrs	r4, r3, #2
 8008f42:	42a6      	cmp	r6, r4
 8008f44:	d105      	bne.n	8008f52 <__libc_init_array+0x2e>
 8008f46:	bd70      	pop	{r4, r5, r6, pc}
 8008f48:	f855 3b04 	ldr.w	r3, [r5], #4
 8008f4c:	4798      	blx	r3
 8008f4e:	3601      	adds	r6, #1
 8008f50:	e7ee      	b.n	8008f30 <__libc_init_array+0xc>
 8008f52:	f855 3b04 	ldr.w	r3, [r5], #4
 8008f56:	4798      	blx	r3
 8008f58:	3601      	adds	r6, #1
 8008f5a:	e7f2      	b.n	8008f42 <__libc_init_array+0x1e>
 8008f5c:	0800b370 	.word	0x0800b370
 8008f60:	0800b370 	.word	0x0800b370
 8008f64:	0800b370 	.word	0x0800b370
 8008f68:	0800b374 	.word	0x0800b374

08008f6c <__retarget_lock_acquire_recursive>:
 8008f6c:	4770      	bx	lr

08008f6e <__retarget_lock_release_recursive>:
 8008f6e:	4770      	bx	lr

08008f70 <strcpy>:
 8008f70:	4603      	mov	r3, r0
 8008f72:	f811 2b01 	ldrb.w	r2, [r1], #1
 8008f76:	f803 2b01 	strb.w	r2, [r3], #1
 8008f7a:	2a00      	cmp	r2, #0
 8008f7c:	d1f9      	bne.n	8008f72 <strcpy+0x2>
 8008f7e:	4770      	bx	lr

08008f80 <memcpy>:
 8008f80:	440a      	add	r2, r1
 8008f82:	4291      	cmp	r1, r2
 8008f84:	f100 33ff 	add.w	r3, r0, #4294967295
 8008f88:	d100      	bne.n	8008f8c <memcpy+0xc>
 8008f8a:	4770      	bx	lr
 8008f8c:	b510      	push	{r4, lr}
 8008f8e:	f811 4b01 	ldrb.w	r4, [r1], #1
 8008f92:	4291      	cmp	r1, r2
 8008f94:	f803 4f01 	strb.w	r4, [r3, #1]!
 8008f98:	d1f9      	bne.n	8008f8e <memcpy+0xe>
 8008f9a:	bd10      	pop	{r4, pc}

08008f9c <_free_r>:
 8008f9c:	b538      	push	{r3, r4, r5, lr}
 8008f9e:	4605      	mov	r5, r0
 8008fa0:	2900      	cmp	r1, #0
 8008fa2:	d040      	beq.n	8009026 <_free_r+0x8a>
 8008fa4:	f851 3c04 	ldr.w	r3, [r1, #-4]
 8008fa8:	1f0c      	subs	r4, r1, #4
 8008faa:	2b00      	cmp	r3, #0
 8008fac:	bfb8      	it	lt
 8008fae:	18e4      	addlt	r4, r4, r3
 8008fb0:	f000 f8de 	bl	8009170 <__malloc_lock>
 8008fb4:	4a1c      	ldr	r2, [pc, #112]	@ (8009028 <_free_r+0x8c>)
 8008fb6:	6813      	ldr	r3, [r2, #0]
 8008fb8:	b933      	cbnz	r3, 8008fc8 <_free_r+0x2c>
 8008fba:	6063      	str	r3, [r4, #4]
 8008fbc:	6014      	str	r4, [r2, #0]
 8008fbe:	4628      	mov	r0, r5
 8008fc0:	e8bd 4038 	ldmia.w	sp!, {r3, r4, r5, lr}
 8008fc4:	f000 b8da 	b.w	800917c <__malloc_unlock>
 8008fc8:	42a3      	cmp	r3, r4
 8008fca:	d908      	bls.n	8008fde <_free_r+0x42>
 8008fcc:	6820      	ldr	r0, [r4, #0]
 8008fce:	1821      	adds	r1, r4, r0
 8008fd0:	428b      	cmp	r3, r1
 8008fd2:	bf01      	itttt	eq
 8008fd4:	6819      	ldreq	r1, [r3, #0]
 8008fd6:	685b      	ldreq	r3, [r3, #4]
 8008fd8:	1809      	addeq	r1, r1, r0
 8008fda:	6021      	streq	r1, [r4, #0]
 8008fdc:	e7ed      	b.n	8008fba <_free_r+0x1e>
 8008fde:	461a      	mov	r2, r3
 8008fe0:	685b      	ldr	r3, [r3, #4]
 8008fe2:	b10b      	cbz	r3, 8008fe8 <_free_r+0x4c>
 8008fe4:	42a3      	cmp	r3, r4
 8008fe6:	d9fa      	bls.n	8008fde <_free_r+0x42>
 8008fe8:	6811      	ldr	r1, [r2, #0]
 8008fea:	1850      	adds	r0, r2, r1
 8008fec:	42a0      	cmp	r0, r4
 8008fee:	d10b      	bne.n	8009008 <_free_r+0x6c>
 8008ff0:	6820      	ldr	r0, [r4, #0]
 8008ff2:	4401      	add	r1, r0
 8008ff4:	1850      	adds	r0, r2, r1
 8008ff6:	4283      	cmp	r3, r0
 8008ff8:	6011      	str	r1, [r2, #0]
 8008ffa:	d1e0      	bne.n	8008fbe <_free_r+0x22>
 8008ffc:	6818      	ldr	r0, [r3, #0]
 8008ffe:	685b      	ldr	r3, [r3, #4]
 8009000:	4408      	add	r0, r1
 8009002:	6010      	str	r0, [r2, #0]
 8009004:	6053      	str	r3, [r2, #4]
 8009006:	e7da      	b.n	8008fbe <_free_r+0x22>
 8009008:	d902      	bls.n	8009010 <_free_r+0x74>
 800900a:	230c      	movs	r3, #12
 800900c:	602b      	str	r3, [r5, #0]
 800900e:	e7d6      	b.n	8008fbe <_free_r+0x22>
 8009010:	6820      	ldr	r0, [r4, #0]
 8009012:	1821      	adds	r1, r4, r0
 8009014:	428b      	cmp	r3, r1
 8009016:	bf01      	itttt	eq
 8009018:	6819      	ldreq	r1, [r3, #0]
 800901a:	685b      	ldreq	r3, [r3, #4]
 800901c:	1809      	addeq	r1, r1, r0
 800901e:	6021      	streq	r1, [r4, #0]
 8009020:	6063      	str	r3, [r4, #4]
 8009022:	6054      	str	r4, [r2, #4]
 8009024:	e7cb      	b.n	8008fbe <_free_r+0x22>
 8009026:	bd38      	pop	{r3, r4, r5, pc}
 8009028:	20002694 	.word	0x20002694

0800902c <sbrk_aligned>:
 800902c:	b570      	push	{r4, r5, r6, lr}
 800902e:	4e0f      	ldr	r6, [pc, #60]	@ (800906c <sbrk_aligned+0x40>)
 8009030:	460c      	mov	r4, r1
 8009032:	6831      	ldr	r1, [r6, #0]
 8009034:	4605      	mov	r5, r0
 8009036:	b911      	cbnz	r1, 800903e <sbrk_aligned+0x12>
 8009038:	f000 fbb0 	bl	800979c <_sbrk_r>
 800903c:	6030      	str	r0, [r6, #0]
 800903e:	4621      	mov	r1, r4
 8009040:	4628      	mov	r0, r5
 8009042:	f000 fbab 	bl	800979c <_sbrk_r>
 8009046:	1c43      	adds	r3, r0, #1
 8009048:	d103      	bne.n	8009052 <sbrk_aligned+0x26>
 800904a:	f04f 34ff 	mov.w	r4, #4294967295
 800904e:	4620      	mov	r0, r4
 8009050:	bd70      	pop	{r4, r5, r6, pc}
 8009052:	1cc4      	adds	r4, r0, #3
 8009054:	f024 0403 	bic.w	r4, r4, #3
 8009058:	42a0      	cmp	r0, r4
 800905a:	d0f8      	beq.n	800904e <sbrk_aligned+0x22>
 800905c:	1a21      	subs	r1, r4, r0
 800905e:	4628      	mov	r0, r5
 8009060:	f000 fb9c 	bl	800979c <_sbrk_r>
 8009064:	3001      	adds	r0, #1
 8009066:	d1f2      	bne.n	800904e <sbrk_aligned+0x22>
 8009068:	e7ef      	b.n	800904a <sbrk_aligned+0x1e>
 800906a:	bf00      	nop
 800906c:	20002690 	.word	0x20002690

08009070 <_malloc_r>:
 8009070:	e92d 43f8 	stmdb	sp!, {r3, r4, r5, r6, r7, r8, r9, lr}
 8009074:	1ccd      	adds	r5, r1, #3
 8009076:	f025 0503 	bic.w	r5, r5, #3
 800907a:	3508      	adds	r5, #8
 800907c:	2d0c      	cmp	r5, #12
 800907e:	bf38      	it	cc
 8009080:	250c      	movcc	r5, #12
 8009082:	2d00      	cmp	r5, #0
 8009084:	4606      	mov	r6, r0
 8009086:	db01      	blt.n	800908c <_malloc_r+0x1c>
 8009088:	42a9      	cmp	r1, r5
 800908a:	d904      	bls.n	8009096 <_malloc_r+0x26>
 800908c:	230c      	movs	r3, #12
 800908e:	6033      	str	r3, [r6, #0]
 8009090:	2000      	movs	r0, #0
 8009092:	e8bd 83f8 	ldmia.w	sp!, {r3, r4, r5, r6, r7, r8, r9, pc}
 8009096:	f8df 80d4 	ldr.w	r8, [pc, #212]	@ 800916c <_malloc_r+0xfc>
 800909a:	f000 f869 	bl	8009170 <__malloc_lock>
 800909e:	f8d8 3000 	ldr.w	r3, [r8]
 80090a2:	461c      	mov	r4, r3
 80090a4:	bb44      	cbnz	r4, 80090f8 <_malloc_r+0x88>
 80090a6:	4629      	mov	r1, r5
 80090a8:	4630      	mov	r0, r6
 80090aa:	f7ff ffbf 	bl	800902c <sbrk_aligned>
 80090ae:	1c43      	adds	r3, r0, #1
 80090b0:	4604      	mov	r4, r0
 80090b2:	d158      	bne.n	8009166 <_malloc_r+0xf6>
 80090b4:	f8d8 4000 	ldr.w	r4, [r8]
 80090b8:	4627      	mov	r7, r4
 80090ba:	2f00      	cmp	r7, #0
 80090bc:	d143      	bne.n	8009146 <_malloc_r+0xd6>
 80090be:	2c00      	cmp	r4, #0
 80090c0:	d04b      	beq.n	800915a <_malloc_r+0xea>
 80090c2:	6823      	ldr	r3, [r4, #0]
 80090c4:	4639      	mov	r1, r7
 80090c6:	4630      	mov	r0, r6
 80090c8:	eb04 0903 	add.w	r9, r4, r3
 80090cc:	f000 fb66 	bl	800979c <_sbrk_r>
 80090d0:	4581      	cmp	r9, r0
 80090d2:	d142      	bne.n	800915a <_malloc_r+0xea>
 80090d4:	6821      	ldr	r1, [r4, #0]
 80090d6:	4630      	mov	r0, r6
 80090d8:	1a6d      	subs	r5, r5, r1
 80090da:	4629      	mov	r1, r5
 80090dc:	f7ff ffa6 	bl	800902c <sbrk_aligned>
 80090e0:	3001      	adds	r0, #1
 80090e2:	d03a      	beq.n	800915a <_malloc_r+0xea>
 80090e4:	6823      	ldr	r3, [r4, #0]
 80090e6:	442b      	add	r3, r5
 80090e8:	6023      	str	r3, [r4, #0]
 80090ea:	f8d8 3000 	ldr.w	r3, [r8]
 80090ee:	685a      	ldr	r2, [r3, #4]
 80090f0:	bb62      	cbnz	r2, 800914c <_malloc_r+0xdc>
 80090f2:	f8c8 7000 	str.w	r7, [r8]
 80090f6:	e00f      	b.n	8009118 <_malloc_r+0xa8>
 80090f8:	6822      	ldr	r2, [r4, #0]
 80090fa:	1b52      	subs	r2, r2, r5
 80090fc:	d420      	bmi.n	8009140 <_malloc_r+0xd0>
 80090fe:	2a0b      	cmp	r2, #11
 8009100:	d917      	bls.n	8009132 <_malloc_r+0xc2>
 8009102:	1961      	adds	r1, r4, r5
 8009104:	42a3      	cmp	r3, r4
 8009106:	6025      	str	r5, [r4, #0]
 8009108:	bf18      	it	ne
 800910a:	6059      	strne	r1, [r3, #4]
 800910c:	6863      	ldr	r3, [r4, #4]
 800910e:	bf08      	it	eq
 8009110:	f8c8 1000 	streq.w	r1, [r8]
 8009114:	5162      	str	r2, [r4, r5]
 8009116:	604b      	str	r3, [r1, #4]
 8009118:	4630      	mov	r0, r6
 800911a:	f000 f82f 	bl	800917c <__malloc_unlock>
 800911e:	f104 000b 	add.w	r0, r4, #11
 8009122:	1d23      	adds	r3, r4, #4
 8009124:	f020 0007 	bic.w	r0, r0, #7
 8009128:	1ac2      	subs	r2, r0, r3
 800912a:	bf1c      	itt	ne
 800912c:	1a1b      	subne	r3, r3, r0
 800912e:	50a3      	strne	r3, [r4, r2]
 8009130:	e7af      	b.n	8009092 <_malloc_r+0x22>
 8009132:	6862      	ldr	r2, [r4, #4]
 8009134:	42a3      	cmp	r3, r4
 8009136:	bf0c      	ite	eq
 8009138:	f8c8 2000 	streq.w	r2, [r8]
 800913c:	605a      	strne	r2, [r3, #4]
 800913e:	e7eb      	b.n	8009118 <_malloc_r+0xa8>
 8009140:	4623      	mov	r3, r4
 8009142:	6864      	ldr	r4, [r4, #4]
 8009144:	e7ae      	b.n	80090a4 <_malloc_r+0x34>
 8009146:	463c      	mov	r4, r7
 8009148:	687f      	ldr	r7, [r7, #4]
 800914a:	e7b6      	b.n	80090ba <_malloc_r+0x4a>
 800914c:	461a      	mov	r2, r3
 800914e:	685b      	ldr	r3, [r3, #4]
 8009150:	42a3      	cmp	r3, r4
 8009152:	d1fb      	bne.n	800914c <_malloc_r+0xdc>
 8009154:	2300      	movs	r3, #0
 8009156:	6053      	str	r3, [r2, #4]
 8009158:	e7de      	b.n	8009118 <_malloc_r+0xa8>
 800915a:	230c      	movs	r3, #12
 800915c:	4630      	mov	r0, r6
 800915e:	6033      	str	r3, [r6, #0]
 8009160:	f000 f80c 	bl	800917c <__malloc_unlock>
 8009164:	e794      	b.n	8009090 <_malloc_r+0x20>
 8009166:	6005      	str	r5, [r0, #0]
 8009168:	e7d6      	b.n	8009118 <_malloc_r+0xa8>
 800916a:	bf00      	nop
 800916c:	20002694 	.word	0x20002694

08009170 <__malloc_lock>:
 8009170:	4801      	ldr	r0, [pc, #4]	@ (8009178 <__malloc_lock+0x8>)
 8009172:	f7ff befb 	b.w	8008f6c <__retarget_lock_acquire_recursive>
 8009176:	bf00      	nop
 8009178:	2000268c 	.word	0x2000268c

0800917c <__malloc_unlock>:
 800917c:	4801      	ldr	r0, [pc, #4]	@ (8009184 <__malloc_unlock+0x8>)
 800917e:	f7ff bef6 	b.w	8008f6e <__retarget_lock_release_recursive>
 8009182:	bf00      	nop
 8009184:	2000268c 	.word	0x2000268c

08009188 <__ssputs_r>:
 8009188:	e92d 47f0 	stmdb	sp!, {r4, r5, r6, r7, r8, r9, sl, lr}
 800918c:	461f      	mov	r7, r3
 800918e:	688e      	ldr	r6, [r1, #8]
 8009190:	4682      	mov	sl, r0
 8009192:	42be      	cmp	r6, r7
 8009194:	460c      	mov	r4, r1
 8009196:	4690      	mov	r8, r2
 8009198:	4633      	mov	r3, r6
 800919a:	d853      	bhi.n	8009244 <__ssputs_r+0xbc>
 800919c:	f9b1 000c 	ldrsh.w	r0, [r1, #12]
 80091a0:	f410 6f90 	tst.w	r0, #1152	@ 0x480
 80091a4:	d02b      	beq.n	80091fe <__ssputs_r+0x76>
 80091a6:	6965      	ldr	r5, [r4, #20]
 80091a8:	6823      	ldr	r3, [r4, #0]
 80091aa:	6909      	ldr	r1, [r1, #16]
 80091ac:	eb05 0545 	add.w	r5, r5, r5, lsl #1
 80091b0:	eba3 0901 	sub.w	r9, r3, r1
 80091b4:	eb05 75d5 	add.w	r5, r5, r5, lsr #31
 80091b8:	1c7b      	adds	r3, r7, #1
 80091ba:	106d      	asrs	r5, r5, #1
 80091bc:	444b      	add	r3, r9
 80091be:	42ab      	cmp	r3, r5
 80091c0:	462a      	mov	r2, r5
 80091c2:	bf84      	itt	hi
 80091c4:	461d      	movhi	r5, r3
 80091c6:	462a      	movhi	r2, r5
 80091c8:	0543      	lsls	r3, r0, #21
 80091ca:	d527      	bpl.n	800921c <__ssputs_r+0x94>
 80091cc:	4611      	mov	r1, r2
 80091ce:	4650      	mov	r0, sl
 80091d0:	f7ff ff4e 	bl	8009070 <_malloc_r>
 80091d4:	4606      	mov	r6, r0
 80091d6:	b358      	cbz	r0, 8009230 <__ssputs_r+0xa8>
 80091d8:	464a      	mov	r2, r9
 80091da:	6921      	ldr	r1, [r4, #16]
 80091dc:	f7ff fed0 	bl	8008f80 <memcpy>
 80091e0:	89a3      	ldrh	r3, [r4, #12]
 80091e2:	f423 6390 	bic.w	r3, r3, #1152	@ 0x480
 80091e6:	f043 0380 	orr.w	r3, r3, #128	@ 0x80
 80091ea:	81a3      	strh	r3, [r4, #12]
 80091ec:	6126      	str	r6, [r4, #16]
 80091ee:	444e      	add	r6, r9
 80091f0:	6026      	str	r6, [r4, #0]
 80091f2:	463b      	mov	r3, r7
 80091f4:	463e      	mov	r6, r7
 80091f6:	6165      	str	r5, [r4, #20]
 80091f8:	eba5 0509 	sub.w	r5, r5, r9
 80091fc:	60a5      	str	r5, [r4, #8]
 80091fe:	461f      	mov	r7, r3
 8009200:	463a      	mov	r2, r7
 8009202:	4641      	mov	r1, r8
 8009204:	6820      	ldr	r0, [r4, #0]
 8009206:	f000 faaf 	bl	8009768 <memmove>
 800920a:	2000      	movs	r0, #0
 800920c:	68a3      	ldr	r3, [r4, #8]
 800920e:	1b9b      	subs	r3, r3, r6
 8009210:	60a3      	str	r3, [r4, #8]
 8009212:	6823      	ldr	r3, [r4, #0]
 8009214:	443b      	add	r3, r7
 8009216:	6023      	str	r3, [r4, #0]
 8009218:	e8bd 87f0 	ldmia.w	sp!, {r4, r5, r6, r7, r8, r9, sl, pc}
 800921c:	4650      	mov	r0, sl
 800921e:	f000 fadb 	bl	80097d8 <_realloc_r>
 8009222:	4606      	mov	r6, r0
 8009224:	2800      	cmp	r0, #0
 8009226:	d1e1      	bne.n	80091ec <__ssputs_r+0x64>
 8009228:	4650      	mov	r0, sl
 800922a:	6921      	ldr	r1, [r4, #16]
 800922c:	f7ff feb6 	bl	8008f9c <_free_r>
 8009230:	230c      	movs	r3, #12
 8009232:	f8ca 3000 	str.w	r3, [sl]
 8009236:	89a3      	ldrh	r3, [r4, #12]
 8009238:	f04f 30ff 	mov.w	r0, #4294967295
 800923c:	f043 0340 	orr.w	r3, r3, #64	@ 0x40
 8009240:	81a3      	strh	r3, [r4, #12]
 8009242:	e7e9      	b.n	8009218 <__ssputs_r+0x90>
 8009244:	463e      	mov	r6, r7
 8009246:	e7db      	b.n	8009200 <__ssputs_r+0x78>

08009248 <_svfiprintf_r>:
 8009248:	e92d 47f0 	stmdb	sp!, {r4, r5, r6, r7, r8, r9, sl, lr}
 800924c:	461f      	mov	r7, r3
 800924e:	898b      	ldrh	r3, [r1, #12]
 8009250:	4606      	mov	r6, r0
 8009252:	061b      	lsls	r3, r3, #24
 8009254:	460d      	mov	r5, r1
 8009256:	4614      	mov	r4, r2
 8009258:	b09c      	sub	sp, #112	@ 0x70
 800925a:	d510      	bpl.n	800927e <_svfiprintf_r+0x36>
 800925c:	690b      	ldr	r3, [r1, #16]
 800925e:	b973      	cbnz	r3, 800927e <_svfiprintf_r+0x36>
 8009260:	2140      	movs	r1, #64	@ 0x40
 8009262:	f7ff ff05 	bl	8009070 <_malloc_r>
 8009266:	6028      	str	r0, [r5, #0]
 8009268:	6128      	str	r0, [r5, #16]
 800926a:	b930      	cbnz	r0, 800927a <_svfiprintf_r+0x32>
 800926c:	230c      	movs	r3, #12
 800926e:	6033      	str	r3, [r6, #0]
 8009270:	f04f 30ff 	mov.w	r0, #4294967295
 8009274:	b01c      	add	sp, #112	@ 0x70
 8009276:	e8bd 87f0 	ldmia.w	sp!, {r4, r5, r6, r7, r8, r9, sl, pc}
 800927a:	2340      	movs	r3, #64	@ 0x40
 800927c:	616b      	str	r3, [r5, #20]
 800927e:	2300      	movs	r3, #0
 8009280:	9309      	str	r3, [sp, #36]	@ 0x24
 8009282:	2320      	movs	r3, #32
 8009284:	f88d 3029 	strb.w	r3, [sp, #41]	@ 0x29
 8009288:	2330      	movs	r3, #48	@ 0x30
 800928a:	f04f 0801 	mov.w	r8, #1
 800928e:	9703      	str	r7, [sp, #12]
 8009290:	4f64      	ldr	r7, [pc, #400]	@ (8009424 <_svfiprintf_r+0x1dc>)
 8009292:	f88d 302a 	strb.w	r3, [sp, #42]	@ 0x2a
 8009296:	4623      	mov	r3, r4
 8009298:	4699      	mov	r9, r3
 800929a:	f813 2b01 	ldrb.w	r2, [r3], #1
 800929e:	b10a      	cbz	r2, 80092a4 <_svfiprintf_r+0x5c>
 80092a0:	2a25      	cmp	r2, #37	@ 0x25
 80092a2:	d1f9      	bne.n	8009298 <_svfiprintf_r+0x50>
 80092a4:	ebb9 0a04 	subs.w	sl, r9, r4
 80092a8:	d00b      	beq.n	80092c2 <_svfiprintf_r+0x7a>
 80092aa:	4653      	mov	r3, sl
 80092ac:	4622      	mov	r2, r4
 80092ae:	4629      	mov	r1, r5
 80092b0:	4630      	mov	r0, r6
 80092b2:	f7ff ff69 	bl	8009188 <__ssputs_r>
 80092b6:	3001      	adds	r0, #1
 80092b8:	f000 80a4 	beq.w	8009404 <_svfiprintf_r+0x1bc>
 80092bc:	9a09      	ldr	r2, [sp, #36]	@ 0x24
 80092be:	4452      	add	r2, sl
 80092c0:	9209      	str	r2, [sp, #36]	@ 0x24
 80092c2:	f899 3000 	ldrb.w	r3, [r9]
 80092c6:	2b00      	cmp	r3, #0
 80092c8:	f000 809c 	beq.w	8009404 <_svfiprintf_r+0x1bc>
 80092cc:	2300      	movs	r3, #0
 80092ce:	f04f 32ff 	mov.w	r2, #4294967295
 80092d2:	e9cd 2305 	strd	r2, r3, [sp, #20]
 80092d6:	f109 0901 	add.w	r9, r9, #1
 80092da:	9304      	str	r3, [sp, #16]
 80092dc:	9307      	str	r3, [sp, #28]
 80092de:	f88d 3053 	strb.w	r3, [sp, #83]	@ 0x53
 80092e2:	931a      	str	r3, [sp, #104]	@ 0x68
 80092e4:	464c      	mov	r4, r9
 80092e6:	2205      	movs	r2, #5
 80092e8:	f814 1b01 	ldrb.w	r1, [r4], #1
 80092ec:	484d      	ldr	r0, [pc, #308]	@ (8009424 <_svfiprintf_r+0x1dc>)
 80092ee:	f000 fa65 	bl	80097bc <memchr>
 80092f2:	9b04      	ldr	r3, [sp, #16]
 80092f4:	b9d0      	cbnz	r0, 800932c <_svfiprintf_r+0xe4>
 80092f6:	06d8      	lsls	r0, r3, #27
 80092f8:	bf44      	itt	mi
 80092fa:	2220      	movmi	r2, #32
 80092fc:	f88d 2053 	strbmi.w	r2, [sp, #83]	@ 0x53
 8009300:	0719      	lsls	r1, r3, #28
 8009302:	bf44      	itt	mi
 8009304:	222b      	movmi	r2, #43	@ 0x2b
 8009306:	f88d 2053 	strbmi.w	r2, [sp, #83]	@ 0x53
 800930a:	f899 2000 	ldrb.w	r2, [r9]
 800930e:	2a2a      	cmp	r2, #42	@ 0x2a
 8009310:	d013      	beq.n	800933a <_svfiprintf_r+0xf2>
 8009312:	464c      	mov	r4, r9
 8009314:	2000      	movs	r0, #0
 8009316:	f04f 0c0a 	mov.w	ip, #10
 800931a:	9a07      	ldr	r2, [sp, #28]
 800931c:	4621      	mov	r1, r4
 800931e:	f811 3b01 	ldrb.w	r3, [r1], #1
 8009322:	3b30      	subs	r3, #48	@ 0x30
 8009324:	2b09      	cmp	r3, #9
 8009326:	d949      	bls.n	80093bc <_svfiprintf_r+0x174>
 8009328:	b968      	cbnz	r0, 8009346 <_svfiprintf_r+0xfe>
 800932a:	e013      	b.n	8009354 <_svfiprintf_r+0x10c>
 800932c:	1bc0      	subs	r0, r0, r7
 800932e:	fa08 f000 	lsl.w	r0, r8, r0
 8009332:	4318      	orrs	r0, r3
 8009334:	46a1      	mov	r9, r4
 8009336:	9004      	str	r0, [sp, #16]
 8009338:	e7d4      	b.n	80092e4 <_svfiprintf_r+0x9c>
 800933a:	9a03      	ldr	r2, [sp, #12]
 800933c:	1d11      	adds	r1, r2, #4
 800933e:	6812      	ldr	r2, [r2, #0]
 8009340:	9103      	str	r1, [sp, #12]
 8009342:	2a00      	cmp	r2, #0
 8009344:	db01      	blt.n	800934a <_svfiprintf_r+0x102>
 8009346:	9207      	str	r2, [sp, #28]
 8009348:	e004      	b.n	8009354 <_svfiprintf_r+0x10c>
 800934a:	4252      	negs	r2, r2
 800934c:	f043 0302 	orr.w	r3, r3, #2
 8009350:	9207      	str	r2, [sp, #28]
 8009352:	9304      	str	r3, [sp, #16]
 8009354:	7823      	ldrb	r3, [r4, #0]
 8009356:	2b2e      	cmp	r3, #46	@ 0x2e
 8009358:	d10a      	bne.n	8009370 <_svfiprintf_r+0x128>
 800935a:	7863      	ldrb	r3, [r4, #1]
 800935c:	2b2a      	cmp	r3, #42	@ 0x2a
 800935e:	d132      	bne.n	80093c6 <_svfiprintf_r+0x17e>
 8009360:	9b03      	ldr	r3, [sp, #12]
 8009362:	3402      	adds	r4, #2
 8009364:	1d1a      	adds	r2, r3, #4
 8009366:	681b      	ldr	r3, [r3, #0]
 8009368:	9203      	str	r2, [sp, #12]
 800936a:	ea43 73e3 	orr.w	r3, r3, r3, asr #31
 800936e:	9305      	str	r3, [sp, #20]
 8009370:	f8df 90b4 	ldr.w	r9, [pc, #180]	@ 8009428 <_svfiprintf_r+0x1e0>
 8009374:	2203      	movs	r2, #3
 8009376:	4648      	mov	r0, r9
 8009378:	7821      	ldrb	r1, [r4, #0]
 800937a:	f000 fa1f 	bl	80097bc <memchr>
 800937e:	b138      	cbz	r0, 8009390 <_svfiprintf_r+0x148>
 8009380:	2240      	movs	r2, #64	@ 0x40
 8009382:	9b04      	ldr	r3, [sp, #16]
 8009384:	eba0 0009 	sub.w	r0, r0, r9
 8009388:	4082      	lsls	r2, r0
 800938a:	4313      	orrs	r3, r2
 800938c:	3401      	adds	r4, #1
 800938e:	9304      	str	r3, [sp, #16]
 8009390:	f814 1b01 	ldrb.w	r1, [r4], #1
 8009394:	2206      	movs	r2, #6
 8009396:	4825      	ldr	r0, [pc, #148]	@ (800942c <_svfiprintf_r+0x1e4>)
 8009398:	f88d 1028 	strb.w	r1, [sp, #40]	@ 0x28
 800939c:	f000 fa0e 	bl	80097bc <memchr>
 80093a0:	2800      	cmp	r0, #0
 80093a2:	d035      	beq.n	8009410 <_svfiprintf_r+0x1c8>
 80093a4:	4822      	ldr	r0, [pc, #136]	@ (8009430 <_svfiprintf_r+0x1e8>)
 80093a6:	bb18      	cbnz	r0, 80093f0 <_svfiprintf_r+0x1a8>
 80093a8:	9b03      	ldr	r3, [sp, #12]
 80093aa:	3307      	adds	r3, #7
 80093ac:	f023 0307 	bic.w	r3, r3, #7
 80093b0:	3308      	adds	r3, #8
 80093b2:	9303      	str	r3, [sp, #12]
 80093b4:	9b09      	ldr	r3, [sp, #36]	@ 0x24
 80093b6:	4403      	add	r3, r0
 80093b8:	9309      	str	r3, [sp, #36]	@ 0x24
 80093ba:	e76c      	b.n	8009296 <_svfiprintf_r+0x4e>
 80093bc:	460c      	mov	r4, r1
 80093be:	2001      	movs	r0, #1
 80093c0:	fb0c 3202 	mla	r2, ip, r2, r3
 80093c4:	e7aa      	b.n	800931c <_svfiprintf_r+0xd4>
 80093c6:	2300      	movs	r3, #0
 80093c8:	f04f 0c0a 	mov.w	ip, #10
 80093cc:	4619      	mov	r1, r3
 80093ce:	3401      	adds	r4, #1
 80093d0:	9305      	str	r3, [sp, #20]
 80093d2:	4620      	mov	r0, r4
 80093d4:	f810 2b01 	ldrb.w	r2, [r0], #1
 80093d8:	3a30      	subs	r2, #48	@ 0x30
 80093da:	2a09      	cmp	r2, #9
 80093dc:	d903      	bls.n	80093e6 <_svfiprintf_r+0x19e>
 80093de:	2b00      	cmp	r3, #0
 80093e0:	d0c6      	beq.n	8009370 <_svfiprintf_r+0x128>
 80093e2:	9105      	str	r1, [sp, #20]
 80093e4:	e7c4      	b.n	8009370 <_svfiprintf_r+0x128>
 80093e6:	4604      	mov	r4, r0
 80093e8:	2301      	movs	r3, #1
 80093ea:	fb0c 2101 	mla	r1, ip, r1, r2
 80093ee:	e7f0      	b.n	80093d2 <_svfiprintf_r+0x18a>
 80093f0:	ab03      	add	r3, sp, #12
 80093f2:	9300      	str	r3, [sp, #0]
 80093f4:	462a      	mov	r2, r5
 80093f6:	4630      	mov	r0, r6
 80093f8:	4b0e      	ldr	r3, [pc, #56]	@ (8009434 <_svfiprintf_r+0x1ec>)
 80093fa:	a904      	add	r1, sp, #16
 80093fc:	f3af 8000 	nop.w
 8009400:	1c42      	adds	r2, r0, #1
 8009402:	d1d7      	bne.n	80093b4 <_svfiprintf_r+0x16c>
 8009404:	89ab      	ldrh	r3, [r5, #12]
 8009406:	065b      	lsls	r3, r3, #25
 8009408:	f53f af32 	bmi.w	8009270 <_svfiprintf_r+0x28>
 800940c:	9809      	ldr	r0, [sp, #36]	@ 0x24
 800940e:	e731      	b.n	8009274 <_svfiprintf_r+0x2c>
 8009410:	ab03      	add	r3, sp, #12
 8009412:	9300      	str	r3, [sp, #0]
 8009414:	462a      	mov	r2, r5
 8009416:	4630      	mov	r0, r6
 8009418:	4b06      	ldr	r3, [pc, #24]	@ (8009434 <_svfiprintf_r+0x1ec>)
 800941a:	a904      	add	r1, sp, #16
 800941c:	f000 f87e 	bl	800951c <_printf_i>
 8009420:	e7ee      	b.n	8009400 <_svfiprintf_r+0x1b8>
 8009422:	bf00      	nop
 8009424:	08009c4a 	.word	0x08009c4a
 8009428:	08009c50 	.word	0x08009c50
 800942c:	08009c54 	.word	0x08009c54
 8009430:	00000000 	.word	0x00000000
 8009434:	08009189 	.word	0x08009189

08009438 <_printf_common>:
 8009438:	e92d 47f0 	stmdb	sp!, {r4, r5, r6, r7, r8, r9, sl, lr}
 800943c:	4616      	mov	r6, r2
 800943e:	4698      	mov	r8, r3
 8009440:	688a      	ldr	r2, [r1, #8]
 8009442:	690b      	ldr	r3, [r1, #16]
 8009444:	4607      	mov	r7, r0
 8009446:	4293      	cmp	r3, r2
 8009448:	bfb8      	it	lt
 800944a:	4613      	movlt	r3, r2
 800944c:	6033      	str	r3, [r6, #0]
 800944e:	f891 2043 	ldrb.w	r2, [r1, #67]	@ 0x43
 8009452:	460c      	mov	r4, r1
 8009454:	f8dd 9020 	ldr.w	r9, [sp, #32]
 8009458:	b10a      	cbz	r2, 800945e <_printf_common+0x26>
 800945a:	3301      	adds	r3, #1
 800945c:	6033      	str	r3, [r6, #0]
 800945e:	6823      	ldr	r3, [r4, #0]
 8009460:	0699      	lsls	r1, r3, #26
 8009462:	bf42      	ittt	mi
 8009464:	6833      	ldrmi	r3, [r6, #0]
 8009466:	3302      	addmi	r3, #2
 8009468:	6033      	strmi	r3, [r6, #0]
 800946a:	6825      	ldr	r5, [r4, #0]
 800946c:	f015 0506 	ands.w	r5, r5, #6
 8009470:	d106      	bne.n	8009480 <_printf_common+0x48>
 8009472:	f104 0a19 	add.w	sl, r4, #25
 8009476:	68e3      	ldr	r3, [r4, #12]
 8009478:	6832      	ldr	r2, [r6, #0]
 800947a:	1a9b      	subs	r3, r3, r2
 800947c:	42ab      	cmp	r3, r5
 800947e:	dc2b      	bgt.n	80094d8 <_printf_common+0xa0>
 8009480:	f894 3043 	ldrb.w	r3, [r4, #67]	@ 0x43
 8009484:	6822      	ldr	r2, [r4, #0]
 8009486:	3b00      	subs	r3, #0
 8009488:	bf18      	it	ne
 800948a:	2301      	movne	r3, #1
 800948c:	0692      	lsls	r2, r2, #26
 800948e:	d430      	bmi.n	80094f2 <_printf_common+0xba>
 8009490:	4641      	mov	r1, r8
 8009492:	4638      	mov	r0, r7
 8009494:	f104 0243 	add.w	r2, r4, #67	@ 0x43
 8009498:	47c8      	blx	r9
 800949a:	3001      	adds	r0, #1
 800949c:	d023      	beq.n	80094e6 <_printf_common+0xae>
 800949e:	6823      	ldr	r3, [r4, #0]
 80094a0:	6922      	ldr	r2, [r4, #16]
 80094a2:	f003 0306 	and.w	r3, r3, #6
 80094a6:	2b04      	cmp	r3, #4
 80094a8:	bf14      	ite	ne
 80094aa:	2500      	movne	r5, #0
 80094ac:	6833      	ldreq	r3, [r6, #0]
 80094ae:	f04f 0600 	mov.w	r6, #0
 80094b2:	bf08      	it	eq
 80094b4:	68e5      	ldreq	r5, [r4, #12]
 80094b6:	f104 041a 	add.w	r4, r4, #26
 80094ba:	bf08      	it	eq
 80094bc:	1aed      	subeq	r5, r5, r3
 80094be:	f854 3c12 	ldr.w	r3, [r4, #-18]
 80094c2:	bf08      	it	eq
 80094c4:	ea25 75e5 	biceq.w	r5, r5, r5, asr #31
 80094c8:	4293      	cmp	r3, r2
 80094ca:	bfc4      	itt	gt
 80094cc:	1a9b      	subgt	r3, r3, r2
 80094ce:	18ed      	addgt	r5, r5, r3
 80094d0:	42b5      	cmp	r5, r6
 80094d2:	d11a      	bne.n	800950a <_printf_common+0xd2>
 80094d4:	2000      	movs	r0, #0
 80094d6:	e008      	b.n	80094ea <_printf_common+0xb2>
 80094d8:	2301      	movs	r3, #1
 80094da:	4652      	mov	r2, sl
 80094dc:	4641      	mov	r1, r8
 80094de:	4638      	mov	r0, r7
 80094e0:	47c8      	blx	r9
 80094e2:	3001      	adds	r0, #1
 80094e4:	d103      	bne.n	80094ee <_printf_common+0xb6>
 80094e6:	f04f 30ff 	mov.w	r0, #4294967295
 80094ea:	e8bd 87f0 	ldmia.w	sp!, {r4, r5, r6, r7, r8, r9, sl, pc}
 80094ee:	3501      	adds	r5, #1
 80094f0:	e7c1      	b.n	8009476 <_printf_common+0x3e>
 80094f2:	2030      	movs	r0, #48	@ 0x30
 80094f4:	18e1      	adds	r1, r4, r3
 80094f6:	f881 0043 	strb.w	r0, [r1, #67]	@ 0x43
 80094fa:	1c5a      	adds	r2, r3, #1
 80094fc:	f894 1045 	ldrb.w	r1, [r4, #69]	@ 0x45
 8009500:	4422      	add	r2, r4
 8009502:	3302      	adds	r3, #2
 8009504:	f882 1043 	strb.w	r1, [r2, #67]	@ 0x43
 8009508:	e7c2      	b.n	8009490 <_printf_common+0x58>
 800950a:	2301      	movs	r3, #1
 800950c:	4622      	mov	r2, r4
 800950e:	4641      	mov	r1, r8
 8009510:	4638      	mov	r0, r7
 8009512:	47c8      	blx	r9
 8009514:	3001      	adds	r0, #1
 8009516:	d0e6      	beq.n	80094e6 <_printf_common+0xae>
 8009518:	3601      	adds	r6, #1
 800951a:	e7d9      	b.n	80094d0 <_printf_common+0x98>

0800951c <_printf_i>:
 800951c:	e92d 43f0 	stmdb	sp!, {r4, r5, r6, r7, r8, r9, lr}
 8009520:	7e0d      	ldrb	r5, [r1, #24]
 8009522:	b085      	sub	sp, #20
 8009524:	2d78      	cmp	r5, #120	@ 0x78
 8009526:	4690      	mov	r8, r2
 8009528:	4607      	mov	r7, r0
 800952a:	460c      	mov	r4, r1
 800952c:	4699      	mov	r9, r3
 800952e:	9e0c      	ldr	r6, [sp, #48]	@ 0x30
 8009530:	f101 0243 	add.w	r2, r1, #67	@ 0x43
 8009534:	d807      	bhi.n	8009546 <_printf_i+0x2a>
 8009536:	2d62      	cmp	r5, #98	@ 0x62
 8009538:	d80a      	bhi.n	8009550 <_printf_i+0x34>
 800953a:	2d00      	cmp	r5, #0
 800953c:	f000 80d7 	beq.w	80096ee <_printf_i+0x1d2>
 8009540:	2d58      	cmp	r5, #88	@ 0x58
 8009542:	f000 80bc 	beq.w	80096be <_printf_i+0x1a2>
 8009546:	f104 0642 	add.w	r6, r4, #66	@ 0x42
 800954a:	f884 5042 	strb.w	r5, [r4, #66]	@ 0x42
 800954e:	e03b      	b.n	80095c8 <_printf_i+0xac>
 8009550:	f1a5 0363 	sub.w	r3, r5, #99	@ 0x63
 8009554:	2b15      	cmp	r3, #21
 8009556:	d8f6      	bhi.n	8009546 <_printf_i+0x2a>
 8009558:	a101      	add	r1, pc, #4	@ (adr r1, 8009560 <_printf_i+0x44>)
 800955a:	f851 f023 	ldr.w	pc, [r1, r3, lsl #2]
 800955e:	bf00      	nop
 8009560:	080095b9 	.word	0x080095b9
 8009564:	080095cd 	.word	0x080095cd
 8009568:	08009547 	.word	0x08009547
 800956c:	08009547 	.word	0x08009547
 8009570:	08009547 	.word	0x08009547
 8009574:	08009547 	.word	0x08009547
 8009578:	080095cd 	.word	0x080095cd
 800957c:	08009547 	.word	0x08009547
 8009580:	08009547 	.word	0x08009547
 8009584:	08009547 	.word	0x08009547
 8009588:	08009547 	.word	0x08009547
 800958c:	080096d5 	.word	0x080096d5
 8009590:	080095f7 	.word	0x080095f7
 8009594:	08009687 	.word	0x08009687
 8009598:	08009547 	.word	0x08009547
 800959c:	08009547 	.word	0x08009547
 80095a0:	080096f7 	.word	0x080096f7
 80095a4:	08009547 	.word	0x08009547
 80095a8:	080095f7 	.word	0x080095f7
 80095ac:	08009547 	.word	0x08009547
 80095b0:	08009547 	.word	0x08009547
 80095b4:	0800968f 	.word	0x0800968f
 80095b8:	6833      	ldr	r3, [r6, #0]
 80095ba:	1d1a      	adds	r2, r3, #4
 80095bc:	681b      	ldr	r3, [r3, #0]
 80095be:	6032      	str	r2, [r6, #0]
 80095c0:	f104 0642 	add.w	r6, r4, #66	@ 0x42
 80095c4:	f884 3042 	strb.w	r3, [r4, #66]	@ 0x42
 80095c8:	2301      	movs	r3, #1
 80095ca:	e0a1      	b.n	8009710 <_printf_i+0x1f4>
 80095cc:	6833      	ldr	r3, [r6, #0]
 80095ce:	6820      	ldr	r0, [r4, #0]
 80095d0:	1d19      	adds	r1, r3, #4
 80095d2:	6031      	str	r1, [r6, #0]
 80095d4:	0606      	lsls	r6, r0, #24
 80095d6:	d501      	bpl.n	80095dc <_printf_i+0xc0>
 80095d8:	681d      	ldr	r5, [r3, #0]
 80095da:	e003      	b.n	80095e4 <_printf_i+0xc8>
 80095dc:	0645      	lsls	r5, r0, #25
 80095de:	d5fb      	bpl.n	80095d8 <_printf_i+0xbc>
 80095e0:	f9b3 5000 	ldrsh.w	r5, [r3]
 80095e4:	2d00      	cmp	r5, #0
 80095e6:	da03      	bge.n	80095f0 <_printf_i+0xd4>
 80095e8:	232d      	movs	r3, #45	@ 0x2d
 80095ea:	426d      	negs	r5, r5
 80095ec:	f884 3043 	strb.w	r3, [r4, #67]	@ 0x43
 80095f0:	230a      	movs	r3, #10
 80095f2:	485b      	ldr	r0, [pc, #364]	@ (8009760 <_printf_i+0x244>)
 80095f4:	e011      	b.n	800961a <_printf_i+0xfe>
 80095f6:	6821      	ldr	r1, [r4, #0]
 80095f8:	6833      	ldr	r3, [r6, #0]
 80095fa:	0608      	lsls	r0, r1, #24
 80095fc:	f853 5b04 	ldr.w	r5, [r3], #4
 8009600:	d402      	bmi.n	8009608 <_printf_i+0xec>
 8009602:	0649      	lsls	r1, r1, #25
 8009604:	bf48      	it	mi
 8009606:	b2ad      	uxthmi	r5, r5
 8009608:	6033      	str	r3, [r6, #0]
 800960a:	7e23      	ldrb	r3, [r4, #24]
 800960c:	4854      	ldr	r0, [pc, #336]	@ (8009760 <_printf_i+0x244>)
 800960e:	2b6f      	cmp	r3, #111	@ 0x6f
 8009610:	d15c      	bne.n	80096cc <_printf_i+0x1b0>
 8009612:	2308      	movs	r3, #8
 8009614:	2100      	movs	r1, #0
 8009616:	f884 1043 	strb.w	r1, [r4, #67]	@ 0x43
 800961a:	6866      	ldr	r6, [r4, #4]
 800961c:	2e00      	cmp	r6, #0
 800961e:	60a6      	str	r6, [r4, #8]
 8009620:	db05      	blt.n	800962e <_printf_i+0x112>
 8009622:	6821      	ldr	r1, [r4, #0]
 8009624:	432e      	orrs	r6, r5
 8009626:	f021 0104 	bic.w	r1, r1, #4
 800962a:	6021      	str	r1, [r4, #0]
 800962c:	d050      	beq.n	80096d0 <_printf_i+0x1b4>
 800962e:	4616      	mov	r6, r2
 8009630:	fbb5 f1f3 	udiv	r1, r5, r3
 8009634:	fb03 5c11 	mls	ip, r3, r1, r5
 8009638:	f810 c00c 	ldrb.w	ip, [r0, ip]
 800963c:	f806 cd01 	strb.w	ip, [r6, #-1]!
 8009640:	46ac      	mov	ip, r5
 8009642:	4563      	cmp	r3, ip
 8009644:	460d      	mov	r5, r1
 8009646:	d9f3      	bls.n	8009630 <_printf_i+0x114>
 8009648:	2b08      	cmp	r3, #8
 800964a:	d10b      	bne.n	8009664 <_printf_i+0x148>
 800964c:	6823      	ldr	r3, [r4, #0]
 800964e:	07db      	lsls	r3, r3, #31
 8009650:	d508      	bpl.n	8009664 <_printf_i+0x148>
 8009652:	6923      	ldr	r3, [r4, #16]
 8009654:	6861      	ldr	r1, [r4, #4]
 8009656:	4299      	cmp	r1, r3
 8009658:	bfde      	ittt	le
 800965a:	2330      	movle	r3, #48	@ 0x30
 800965c:	f806 3c01 	strble.w	r3, [r6, #-1]
 8009660:	f106 36ff 	addle.w	r6, r6, #4294967295
 8009664:	1b92      	subs	r2, r2, r6
 8009666:	6122      	str	r2, [r4, #16]
 8009668:	4643      	mov	r3, r8
 800966a:	4621      	mov	r1, r4
 800966c:	4638      	mov	r0, r7
 800966e:	f8cd 9000 	str.w	r9, [sp]
 8009672:	aa03      	add	r2, sp, #12
 8009674:	f7ff fee0 	bl	8009438 <_printf_common>
 8009678:	3001      	adds	r0, #1
 800967a:	d14e      	bne.n	800971a <_printf_i+0x1fe>
 800967c:	f04f 30ff 	mov.w	r0, #4294967295
 8009680:	b005      	add	sp, #20
 8009682:	e8bd 83f0 	ldmia.w	sp!, {r4, r5, r6, r7, r8, r9, pc}
 8009686:	6823      	ldr	r3, [r4, #0]
 8009688:	f043 0320 	orr.w	r3, r3, #32
 800968c:	6023      	str	r3, [r4, #0]
 800968e:	2578      	movs	r5, #120	@ 0x78
 8009690:	4834      	ldr	r0, [pc, #208]	@ (8009764 <_printf_i+0x248>)
 8009692:	f884 5045 	strb.w	r5, [r4, #69]	@ 0x45
 8009696:	6823      	ldr	r3, [r4, #0]
 8009698:	6831      	ldr	r1, [r6, #0]
 800969a:	f013 0f80 	tst.w	r3, #128	@ 0x80
 800969e:	f851 5b04 	ldr.w	r5, [r1], #4
 80096a2:	d103      	bne.n	80096ac <_printf_i+0x190>
 80096a4:	f013 0f40 	tst.w	r3, #64	@ 0x40
 80096a8:	bf18      	it	ne
 80096aa:	b2ad      	uxthne	r5, r5
 80096ac:	6031      	str	r1, [r6, #0]
 80096ae:	07d9      	lsls	r1, r3, #31
 80096b0:	bf44      	itt	mi
 80096b2:	f043 0320 	orrmi.w	r3, r3, #32
 80096b6:	6023      	strmi	r3, [r4, #0]
 80096b8:	b11d      	cbz	r5, 80096c2 <_printf_i+0x1a6>
 80096ba:	2310      	movs	r3, #16
 80096bc:	e7aa      	b.n	8009614 <_printf_i+0xf8>
 80096be:	4828      	ldr	r0, [pc, #160]	@ (8009760 <_printf_i+0x244>)
 80096c0:	e7e7      	b.n	8009692 <_printf_i+0x176>
 80096c2:	6823      	ldr	r3, [r4, #0]
 80096c4:	f023 0320 	bic.w	r3, r3, #32
 80096c8:	6023      	str	r3, [r4, #0]
 80096ca:	e7f6      	b.n	80096ba <_printf_i+0x19e>
 80096cc:	230a      	movs	r3, #10
 80096ce:	e7a1      	b.n	8009614 <_printf_i+0xf8>
 80096d0:	4616      	mov	r6, r2
 80096d2:	e7b9      	b.n	8009648 <_printf_i+0x12c>
 80096d4:	6833      	ldr	r3, [r6, #0]
 80096d6:	6825      	ldr	r5, [r4, #0]
 80096d8:	1d18      	adds	r0, r3, #4
 80096da:	6961      	ldr	r1, [r4, #20]
 80096dc:	6030      	str	r0, [r6, #0]
 80096de:	062e      	lsls	r6, r5, #24
 80096e0:	681b      	ldr	r3, [r3, #0]
 80096e2:	d501      	bpl.n	80096e8 <_printf_i+0x1cc>
 80096e4:	6019      	str	r1, [r3, #0]
 80096e6:	e002      	b.n	80096ee <_printf_i+0x1d2>
 80096e8:	0668      	lsls	r0, r5, #25
 80096ea:	d5fb      	bpl.n	80096e4 <_printf_i+0x1c8>
 80096ec:	8019      	strh	r1, [r3, #0]
 80096ee:	2300      	movs	r3, #0
 80096f0:	4616      	mov	r6, r2
 80096f2:	6123      	str	r3, [r4, #16]
 80096f4:	e7b8      	b.n	8009668 <_printf_i+0x14c>
 80096f6:	6833      	ldr	r3, [r6, #0]
 80096f8:	2100      	movs	r1, #0
 80096fa:	1d1a      	adds	r2, r3, #4
 80096fc:	6032      	str	r2, [r6, #0]
 80096fe:	681e      	ldr	r6, [r3, #0]
 8009700:	6862      	ldr	r2, [r4, #4]
 8009702:	4630      	mov	r0, r6
 8009704:	f000 f85a 	bl	80097bc <memchr>
 8009708:	b108      	cbz	r0, 800970e <_printf_i+0x1f2>
 800970a:	1b80      	subs	r0, r0, r6
 800970c:	6060      	str	r0, [r4, #4]
 800970e:	6863      	ldr	r3, [r4, #4]
 8009710:	6123      	str	r3, [r4, #16]
 8009712:	2300      	movs	r3, #0
 8009714:	f884 3043 	strb.w	r3, [r4, #67]	@ 0x43
 8009718:	e7a6      	b.n	8009668 <_printf_i+0x14c>
 800971a:	4632      	mov	r2, r6
 800971c:	4641      	mov	r1, r8
 800971e:	4638      	mov	r0, r7
 8009720:	6923      	ldr	r3, [r4, #16]
 8009722:	47c8      	blx	r9
 8009724:	3001      	adds	r0, #1
 8009726:	d0a9      	beq.n	800967c <_printf_i+0x160>
 8009728:	6823      	ldr	r3, [r4, #0]
 800972a:	079b      	lsls	r3, r3, #30
 800972c:	d413      	bmi.n	8009756 <_printf_i+0x23a>
 800972e:	68e0      	ldr	r0, [r4, #12]
 8009730:	9b03      	ldr	r3, [sp, #12]
 8009732:	4298      	cmp	r0, r3
 8009734:	bfb8      	it	lt
 8009736:	4618      	movlt	r0, r3
 8009738:	e7a2      	b.n	8009680 <_printf_i+0x164>
 800973a:	2301      	movs	r3, #1
 800973c:	4632      	mov	r2, r6
 800973e:	4641      	mov	r1, r8
 8009740:	4638      	mov	r0, r7
 8009742:	47c8      	blx	r9
 8009744:	3001      	adds	r0, #1
 8009746:	d099      	beq.n	800967c <_printf_i+0x160>
 8009748:	3501      	adds	r5, #1
 800974a:	68e3      	ldr	r3, [r4, #12]
 800974c:	9903      	ldr	r1, [sp, #12]
 800974e:	1a5b      	subs	r3, r3, r1
 8009750:	42ab      	cmp	r3, r5
 8009752:	dcf2      	bgt.n	800973a <_printf_i+0x21e>
 8009754:	e7eb      	b.n	800972e <_printf_i+0x212>
 8009756:	2500      	movs	r5, #0
 8009758:	f104 0619 	add.w	r6, r4, #25
 800975c:	e7f5      	b.n	800974a <_printf_i+0x22e>
 800975e:	bf00      	nop
 8009760:	08009c5b 	.word	0x08009c5b
 8009764:	08009c6c 	.word	0x08009c6c

08009768 <memmove>:
 8009768:	4288      	cmp	r0, r1
 800976a:	b510      	push	{r4, lr}
 800976c:	eb01 0402 	add.w	r4, r1, r2
 8009770:	d902      	bls.n	8009778 <memmove+0x10>
 8009772:	4284      	cmp	r4, r0
 8009774:	4623      	mov	r3, r4
 8009776:	d807      	bhi.n	8009788 <memmove+0x20>
 8009778:	1e43      	subs	r3, r0, #1
 800977a:	42a1      	cmp	r1, r4
 800977c:	d007      	beq.n	800978e <memmove+0x26>
 800977e:	f811 2b01 	ldrb.w	r2, [r1], #1
 8009782:	f803 2f01 	strb.w	r2, [r3, #1]!
 8009786:	e7f8      	b.n	800977a <memmove+0x12>
 8009788:	4402      	add	r2, r0
 800978a:	4282      	cmp	r2, r0
 800978c:	d100      	bne.n	8009790 <memmove+0x28>
 800978e:	bd10      	pop	{r4, pc}
 8009790:	f813 1d01 	ldrb.w	r1, [r3, #-1]!
 8009794:	f802 1d01 	strb.w	r1, [r2, #-1]!
 8009798:	e7f7      	b.n	800978a <memmove+0x22>
	...

0800979c <_sbrk_r>:
 800979c:	b538      	push	{r3, r4, r5, lr}
 800979e:	2300      	movs	r3, #0
 80097a0:	4d05      	ldr	r5, [pc, #20]	@ (80097b8 <_sbrk_r+0x1c>)
 80097a2:	4604      	mov	r4, r0
 80097a4:	4608      	mov	r0, r1
 80097a6:	602b      	str	r3, [r5, #0]
 80097a8:	f7f9 fbf0 	bl	8002f8c <_sbrk>
 80097ac:	1c43      	adds	r3, r0, #1
 80097ae:	d102      	bne.n	80097b6 <_sbrk_r+0x1a>
 80097b0:	682b      	ldr	r3, [r5, #0]
 80097b2:	b103      	cbz	r3, 80097b6 <_sbrk_r+0x1a>
 80097b4:	6023      	str	r3, [r4, #0]
 80097b6:	bd38      	pop	{r3, r4, r5, pc}
 80097b8:	20002688 	.word	0x20002688

080097bc <memchr>:
 80097bc:	4603      	mov	r3, r0
 80097be:	b510      	push	{r4, lr}
 80097c0:	b2c9      	uxtb	r1, r1
 80097c2:	4402      	add	r2, r0
 80097c4:	4293      	cmp	r3, r2
 80097c6:	4618      	mov	r0, r3
 80097c8:	d101      	bne.n	80097ce <memchr+0x12>
 80097ca:	2000      	movs	r0, #0
 80097cc:	e003      	b.n	80097d6 <memchr+0x1a>
 80097ce:	7804      	ldrb	r4, [r0, #0]
 80097d0:	3301      	adds	r3, #1
 80097d2:	428c      	cmp	r4, r1
 80097d4:	d1f6      	bne.n	80097c4 <memchr+0x8>
 80097d6:	bd10      	pop	{r4, pc}

080097d8 <_realloc_r>:
 80097d8:	e92d 41f0 	stmdb	sp!, {r4, r5, r6, r7, r8, lr}
 80097dc:	4607      	mov	r7, r0
 80097de:	4614      	mov	r4, r2
 80097e0:	460d      	mov	r5, r1
 80097e2:	b921      	cbnz	r1, 80097ee <_realloc_r+0x16>
 80097e4:	4611      	mov	r1, r2
 80097e6:	e8bd 41f0 	ldmia.w	sp!, {r4, r5, r6, r7, r8, lr}
 80097ea:	f7ff bc41 	b.w	8009070 <_malloc_r>
 80097ee:	b92a      	cbnz	r2, 80097fc <_realloc_r+0x24>
 80097f0:	f7ff fbd4 	bl	8008f9c <_free_r>
 80097f4:	4625      	mov	r5, r4
 80097f6:	4628      	mov	r0, r5
 80097f8:	e8bd 81f0 	ldmia.w	sp!, {r4, r5, r6, r7, r8, pc}
 80097fc:	f000 f81a 	bl	8009834 <_malloc_usable_size_r>
 8009800:	4284      	cmp	r4, r0
 8009802:	4606      	mov	r6, r0
 8009804:	d802      	bhi.n	800980c <_realloc_r+0x34>
 8009806:	ebb4 0f50 	cmp.w	r4, r0, lsr #1
 800980a:	d8f4      	bhi.n	80097f6 <_realloc_r+0x1e>
 800980c:	4621      	mov	r1, r4
 800980e:	4638      	mov	r0, r7
 8009810:	f7ff fc2e 	bl	8009070 <_malloc_r>
 8009814:	4680      	mov	r8, r0
 8009816:	b908      	cbnz	r0, 800981c <_realloc_r+0x44>
 8009818:	4645      	mov	r5, r8
 800981a:	e7ec      	b.n	80097f6 <_realloc_r+0x1e>
 800981c:	42b4      	cmp	r4, r6
 800981e:	4622      	mov	r2, r4
 8009820:	4629      	mov	r1, r5
 8009822:	bf28      	it	cs
 8009824:	4632      	movcs	r2, r6
 8009826:	f7ff fbab 	bl	8008f80 <memcpy>
 800982a:	4629      	mov	r1, r5
 800982c:	4638      	mov	r0, r7
 800982e:	f7ff fbb5 	bl	8008f9c <_free_r>
 8009832:	e7f1      	b.n	8009818 <_realloc_r+0x40>

08009834 <_malloc_usable_size_r>:
 8009834:	f851 3c04 	ldr.w	r3, [r1, #-4]
 8009838:	1f18      	subs	r0, r3, #4
 800983a:	2b00      	cmp	r3, #0
 800983c:	bfbc      	itt	lt
 800983e:	580b      	ldrlt	r3, [r1, r0]
 8009840:	18c0      	addlt	r0, r0, r3
 8009842:	4770      	bx	lr

08009844 <_init>:
 8009844:	b5f8      	push	{r3, r4, r5, r6, r7, lr}
 8009846:	bf00      	nop
 8009848:	bcf8      	pop	{r3, r4, r5, r6, r7}
 800984a:	bc08      	pop	{r3}
 800984c:	469e      	mov	lr, r3
 800984e:	4770      	bx	lr

08009850 <_fini>:
 8009850:	b5f8      	push	{r3, r4, r5, r6, r7, lr}
 8009852:	bf00      	nop
 8009854:	bcf8      	pop	{r3, r4, r5, r6, r7}
 8009856:	bc08      	pop	{r3}
 8009858:	469e      	mov	lr, r3
 800985a:	4770      	bx	lr
